
add_float.o:     file format elf64-littleriscv


Disassembly of section .text:

00000000000100b0 <main>:
   100b0:	000227b7          	lui	a5,0x22
   100b4:	c3078793          	addi	a5,a5,-976 # 21c30 <__moddi3+0x3c>
   100b8:	0007bf03          	ld	t5,0(a5)
   100bc:	0087be83          	ld	t4,8(a5)
   100c0:	0107be03          	ld	t3,16(a5)
   100c4:	0187b303          	ld	t1,24(a5)
   100c8:	0207b883          	ld	a7,32(a5)
   100cc:	0287b803          	ld	a6,40(a5)
   100d0:	fb010113          	addi	sp,sp,-80
   100d4:	020f5513          	srli	a0,t5,0x20
   100d8:	020ed593          	srli	a1,t4,0x20
   100dc:	020e5613          	srli	a2,t3,0x20
   100e0:	02035693          	srli	a3,t1,0x20
   100e4:	0208d713          	srli	a4,a7,0x20
   100e8:	02085793          	srli	a5,a6,0x20
   100ec:	04113423          	sd	ra,72(sp)
   100f0:	04813023          	sd	s0,64(sp)
   100f4:	02913c23          	sd	s1,56(sp)
   100f8:	000f0f93          	mv	t6,t5
   100fc:	01e13023          	sd	t5,0(sp)
   10100:	01d13423          	sd	t4,8(sp)
   10104:	000e8f13          	mv	t5,t4
   10108:	01c13823          	sd	t3,16(sp)
   1010c:	000e0e93          	mv	t4,t3
   10110:	00613c23          	sd	t1,24(sp)
   10114:	00030e13          	mv	t3,t1
   10118:	f0050053          	fmv.w.x	ft0,a0
   1011c:	f00585d3          	fmv.w.x	fa1,a1
   10120:	f0060653          	fmv.w.x	fa2,a2
   10124:	f00686d3          	fmv.w.x	fa3,a3
   10128:	00088313          	mv	t1,a7
   1012c:	f0070753          	fmv.w.x	fa4,a4
   10130:	03113023          	sd	a7,32(sp)
   10134:	f0078553          	fmv.w.x	fa0,a5
   10138:	03013423          	sd	a6,40(sp)
   1013c:	c0002473          	rdcycle	s0
   10140:	f00007d3          	fmv.w.x	fa5,zero
   10144:	f00f80d3          	fmv.w.x	ft1,t6
   10148:	0017f7d3          	fadd.s	fa5,fa5,ft1
   1014c:	0007f7d3          	fadd.s	fa5,fa5,ft0
   10150:	f00f0053          	fmv.w.x	ft0,t5
   10154:	0007f7d3          	fadd.s	fa5,fa5,ft0
   10158:	00b7f7d3          	fadd.s	fa5,fa5,fa1
   1015c:	f00e85d3          	fmv.w.x	fa1,t4
   10160:	00b7f7d3          	fadd.s	fa5,fa5,fa1
   10164:	00c7f7d3          	fadd.s	fa5,fa5,fa2
   10168:	f00e0653          	fmv.w.x	fa2,t3
   1016c:	00c7f7d3          	fadd.s	fa5,fa5,fa2
   10170:	00d7f7d3          	fadd.s	fa5,fa5,fa3
   10174:	f00306d3          	fmv.w.x	fa3,t1
   10178:	00d7f7d3          	fadd.s	fa5,fa5,fa3
   1017c:	00e7f7d3          	fadd.s	fa5,fa5,fa4
   10180:	f0080753          	fmv.w.x	fa4,a6
   10184:	00e7f7d3          	fadd.s	fa5,fa5,fa4
   10188:	c00024f3          	rdcycle	s1
   1018c:	00a7f553          	fadd.s	fa0,fa5,fa0
   10190:	158000ef          	jal	ra,102e8 <__extendsfdf2>
   10194:	00050593          	mv	a1,a0
   10198:	00022537          	lui	a0,0x22
   1019c:	c6050513          	addi	a0,a0,-928 # 21c60 <__moddi3+0x6c>
   101a0:	4c4000ef          	jal	ra,10664 <printf>
   101a4:	00022537          	lui	a0,0x22
   101a8:	408485bb          	subw	a1,s1,s0
   101ac:	c8050513          	addi	a0,a0,-896 # 21c80 <__moddi3+0x8c>
   101b0:	4b4000ef          	jal	ra,10664 <printf>
   101b4:	04813083          	ld	ra,72(sp)
   101b8:	04013403          	ld	s0,64(sp)
   101bc:	03813483          	ld	s1,56(sp)
   101c0:	00000513          	li	a0,0
   101c4:	05010113          	addi	sp,sp,80
   101c8:	00008067          	ret

00000000000101cc <register_fini>:
   101cc:	ffff0797          	auipc	a5,0xffff0
   101d0:	e3478793          	addi	a5,a5,-460 # 0 <main-0x100b0>
   101d4:	00078863          	beqz	a5,101e4 <register_fini+0x18>
   101d8:	00000517          	auipc	a0,0x0
   101dc:	27c50513          	addi	a0,a0,636 # 10454 <__libc_fini_array>
   101e0:	22c0006f          	j	1040c <atexit>
   101e4:	00008067          	ret

00000000000101e8 <_start>:
   101e8:	00014197          	auipc	gp,0x14
   101ec:	23818193          	addi	gp,gp,568 # 24420 <__global_pointer$>
   101f0:	77018513          	addi	a0,gp,1904 # 24b90 <_edata>
   101f4:	00015617          	auipc	a2,0x15
   101f8:	a2c60613          	addi	a2,a2,-1492 # 24c20 <__BSS_END__>
   101fc:	40a60633          	sub	a2,a2,a0
   10200:	00000593          	li	a1,0
   10204:	340000ef          	jal	ra,10544 <memset>
   10208:	00000517          	auipc	a0,0x0
   1020c:	24c50513          	addi	a0,a0,588 # 10454 <__libc_fini_array>
   10210:	1fc000ef          	jal	ra,1040c <atexit>
   10214:	29c000ef          	jal	ra,104b0 <__libc_init_array>
   10218:	00012503          	lw	a0,0(sp)
   1021c:	00810593          	addi	a1,sp,8
   10220:	00000613          	li	a2,0
   10224:	e8dff0ef          	jal	ra,100b0 <main>
   10228:	1f80006f          	j	10420 <exit>

000000000001022c <__do_global_dtors_aux>:
   1022c:	7981c783          	lbu	a5,1944(gp) # 24bb8 <completed.5470>
   10230:	04079463          	bnez	a5,10278 <__do_global_dtors_aux+0x4c>
   10234:	ffff0797          	auipc	a5,0xffff0
   10238:	dcc78793          	addi	a5,a5,-564 # 0 <main-0x100b0>
   1023c:	02078863          	beqz	a5,1026c <__do_global_dtors_aux+0x40>
   10240:	ff010113          	addi	sp,sp,-16
   10244:	00013517          	auipc	a0,0x13
   10248:	7d850513          	addi	a0,a0,2008 # 23a1c <__FRAME_END__>
   1024c:	00113423          	sd	ra,8(sp)
   10250:	00000097          	auipc	ra,0x0
   10254:	000000e7          	jalr	zero # 0 <main-0x100b0>
   10258:	00813083          	ld	ra,8(sp)
   1025c:	00100793          	li	a5,1
   10260:	78f18c23          	sb	a5,1944(gp) # 24bb8 <completed.5470>
   10264:	01010113          	addi	sp,sp,16
   10268:	00008067          	ret
   1026c:	00100793          	li	a5,1
   10270:	78f18c23          	sb	a5,1944(gp) # 24bb8 <completed.5470>
   10274:	00008067          	ret
   10278:	00008067          	ret

000000000001027c <frame_dummy>:
   1027c:	ffff0797          	auipc	a5,0xffff0
   10280:	d8478793          	addi	a5,a5,-636 # 0 <main-0x100b0>
   10284:	00078c63          	beqz	a5,1029c <frame_dummy+0x20>
   10288:	7a018593          	addi	a1,gp,1952 # 24bc0 <object.5475>
   1028c:	00013517          	auipc	a0,0x13
   10290:	79050513          	addi	a0,a0,1936 # 23a1c <__FRAME_END__>
   10294:	00000317          	auipc	t1,0x0
   10298:	00000067          	jr	zero # 0 <main-0x100b0>
   1029c:	00008067          	ret

00000000000102a0 <read_cycles>:
   102a0:	c0002573          	rdcycle	a0
   102a4:	0005051b          	sext.w	a0,a0
   102a8:	00008067          	ret

00000000000102ac <calculateSum>:
   102ac:	02b05a63          	blez	a1,102e0 <calculateSum+0x34>
   102b0:	fff5879b          	addiw	a5,a1,-1
   102b4:	02079793          	slli	a5,a5,0x20
   102b8:	0207d793          	srli	a5,a5,0x20
   102bc:	f0000553          	fmv.w.x	fa0,zero
   102c0:	00279793          	slli	a5,a5,0x2
   102c4:	00450713          	addi	a4,a0,4
   102c8:	00e787b3          	add	a5,a5,a4
   102cc:	00052787          	flw	fa5,0(a0)
   102d0:	00450513          	addi	a0,a0,4
   102d4:	00f57553          	fadd.s	fa0,fa0,fa5
   102d8:	fea79ae3          	bne	a5,a0,102cc <calculateSum+0x20>
   102dc:	00008067          	ret
   102e0:	f0000553          	fmv.w.x	fa0,zero
   102e4:	00008067          	ret

00000000000102e8 <__extendsfdf2>:
   102e8:	fe010113          	addi	sp,sp,-32
   102ec:	00113c23          	sd	ra,24(sp)
   102f0:	00813823          	sd	s0,16(sp)
   102f4:	00913423          	sd	s1,8(sp)
   102f8:	01213023          	sd	s2,0(sp)
   102fc:	e0050553          	fmv.x.w	a0,fa0
   10300:	002027f3          	frrm	a5
   10304:	0175591b          	srliw	s2,a0,0x17
   10308:	02951793          	slli	a5,a0,0x29
   1030c:	0ff97913          	andi	s2,s2,255
   10310:	0297d793          	srli	a5,a5,0x29
   10314:	01f5549b          	srliw	s1,a0,0x1f
   10318:	00190513          	addi	a0,s2,1
   1031c:	02079413          	slli	s0,a5,0x20
   10320:	0fe57513          	andi	a0,a0,254
   10324:	02045413          	srli	s0,s0,0x20
   10328:	00050a63          	beqz	a0,1033c <__extendsfdf2+0x54>
   1032c:	38090513          	addi	a0,s2,896
   10330:	01d41413          	slli	s0,s0,0x1d
   10334:	00000793          	li	a5,0
   10338:	0540006f          	j	1038c <__extendsfdf2+0xa4>
   1033c:	02091463          	bnez	s2,10364 <__extendsfdf2+0x7c>
   10340:	00000793          	li	a5,0
   10344:	04040463          	beqz	s0,1038c <__extendsfdf2+0xa4>
   10348:	00040513          	mv	a0,s0
   1034c:	084000ef          	jal	ra,103d0 <__clzdi2>
   10350:	ff55079b          	addiw	a5,a0,-11
   10354:	00f41433          	sll	s0,s0,a5
   10358:	3a900793          	li	a5,937
   1035c:	40a7853b          	subw	a0,a5,a0
   10360:	fd5ff06f          	j	10334 <__extendsfdf2+0x4c>
   10364:	06040263          	beqz	s0,103c8 <__extendsfdf2+0xe0>
   10368:	00400737          	lui	a4,0x400
   1036c:	00e7f7b3          	and	a5,a5,a4
   10370:	00100513          	li	a0,1
   10374:	03351513          	slli	a0,a0,0x33
   10378:	0017b793          	seqz	a5,a5
   1037c:	01d41413          	slli	s0,s0,0x1d
   10380:	00a46433          	or	s0,s0,a0
   10384:	00479793          	slli	a5,a5,0x4
   10388:	7ff00513          	li	a0,2047
   1038c:	00c41413          	slli	s0,s0,0xc
   10390:	7ff57513          	andi	a0,a0,2047
   10394:	03451513          	slli	a0,a0,0x34
   10398:	00c45413          	srli	s0,s0,0xc
   1039c:	03f49493          	slli	s1,s1,0x3f
   103a0:	00a46433          	or	s0,s0,a0
   103a4:	00946533          	or	a0,s0,s1
   103a8:	00078463          	beqz	a5,103b0 <__extendsfdf2+0xc8>
   103ac:	0017a073          	csrs	fflags,a5
   103b0:	01813083          	ld	ra,24(sp)
   103b4:	01013403          	ld	s0,16(sp)
   103b8:	00813483          	ld	s1,8(sp)
   103bc:	00013903          	ld	s2,0(sp)
   103c0:	02010113          	addi	sp,sp,32
   103c4:	00008067          	ret
   103c8:	7ff00513          	li	a0,2047
   103cc:	f69ff06f          	j	10334 <__extendsfdf2+0x4c>

00000000000103d0 <__clzdi2>:
   103d0:	03800793          	li	a5,56
   103d4:	00f55733          	srl	a4,a0,a5
   103d8:	0ff77713          	andi	a4,a4,255
   103dc:	00071663          	bnez	a4,103e8 <__clzdi2+0x18>
   103e0:	ff878793          	addi	a5,a5,-8
   103e4:	fe0798e3          	bnez	a5,103d4 <__clzdi2+0x4>
   103e8:	04000713          	li	a4,64
   103ec:	40f70733          	sub	a4,a4,a5
   103f0:	00f557b3          	srl	a5,a0,a5
   103f4:	00012517          	auipc	a0,0x12
   103f8:	8bc50513          	addi	a0,a0,-1860 # 21cb0 <__clz_tab>
   103fc:	00f507b3          	add	a5,a0,a5
   10400:	0007c503          	lbu	a0,0(a5)
   10404:	40a7053b          	subw	a0,a4,a0
   10408:	00008067          	ret

000000000001040c <atexit>:
   1040c:	00050593          	mv	a1,a0
   10410:	00000693          	li	a3,0
   10414:	00000613          	li	a2,0
   10418:	00000513          	li	a0,0
   1041c:	3f50206f          	j	13010 <__register_exitproc>

0000000000010420 <exit>:
   10420:	ff010113          	addi	sp,sp,-16
   10424:	00000593          	li	a1,0
   10428:	00813023          	sd	s0,0(sp)
   1042c:	00113423          	sd	ra,8(sp)
   10430:	00050413          	mv	s0,a0
   10434:	489020ef          	jal	ra,130bc <__call_exitprocs>
   10438:	74818793          	addi	a5,gp,1864 # 24b68 <_global_impure_ptr>
   1043c:	0007b503          	ld	a0,0(a5)
   10440:	05853783          	ld	a5,88(a0)
   10444:	00078463          	beqz	a5,1044c <exit+0x2c>
   10448:	000780e7          	jalr	a5
   1044c:	00040513          	mv	a0,s0
   10450:	5850e0ef          	jal	ra,1f1d4 <_exit>

0000000000010454 <__libc_fini_array>:
   10454:	fe010113          	addi	sp,sp,-32
   10458:	00813823          	sd	s0,16(sp)
   1045c:	00013797          	auipc	a5,0x13
   10460:	5dc78793          	addi	a5,a5,1500 # 23a38 <__fini_array_end>
   10464:	00013417          	auipc	s0,0x13
   10468:	5cc40413          	addi	s0,s0,1484 # 23a30 <__init_array_end>
   1046c:	408787b3          	sub	a5,a5,s0
   10470:	00913423          	sd	s1,8(sp)
   10474:	00113c23          	sd	ra,24(sp)
   10478:	4037d493          	srai	s1,a5,0x3
   1047c:	02048063          	beqz	s1,1049c <__libc_fini_array+0x48>
   10480:	ff878793          	addi	a5,a5,-8
   10484:	00878433          	add	s0,a5,s0
   10488:	00043783          	ld	a5,0(s0)
   1048c:	fff48493          	addi	s1,s1,-1
   10490:	ff840413          	addi	s0,s0,-8
   10494:	000780e7          	jalr	a5
   10498:	fe0498e3          	bnez	s1,10488 <__libc_fini_array+0x34>
   1049c:	01813083          	ld	ra,24(sp)
   104a0:	01013403          	ld	s0,16(sp)
   104a4:	00813483          	ld	s1,8(sp)
   104a8:	02010113          	addi	sp,sp,32
   104ac:	00008067          	ret

00000000000104b0 <__libc_init_array>:
   104b0:	fe010113          	addi	sp,sp,-32
   104b4:	00813823          	sd	s0,16(sp)
   104b8:	01213023          	sd	s2,0(sp)
   104bc:	00013417          	auipc	s0,0x13
   104c0:	56440413          	addi	s0,s0,1380 # 23a20 <__init_array_start>
   104c4:	00013917          	auipc	s2,0x13
   104c8:	55c90913          	addi	s2,s2,1372 # 23a20 <__init_array_start>
   104cc:	40890933          	sub	s2,s2,s0
   104d0:	00113c23          	sd	ra,24(sp)
   104d4:	00913423          	sd	s1,8(sp)
   104d8:	40395913          	srai	s2,s2,0x3
   104dc:	00090e63          	beqz	s2,104f8 <__libc_init_array+0x48>
   104e0:	00000493          	li	s1,0
   104e4:	00043783          	ld	a5,0(s0)
   104e8:	00148493          	addi	s1,s1,1
   104ec:	00840413          	addi	s0,s0,8
   104f0:	000780e7          	jalr	a5
   104f4:	fe9918e3          	bne	s2,s1,104e4 <__libc_init_array+0x34>
   104f8:	00013417          	auipc	s0,0x13
   104fc:	52840413          	addi	s0,s0,1320 # 23a20 <__init_array_start>
   10500:	00013917          	auipc	s2,0x13
   10504:	53090913          	addi	s2,s2,1328 # 23a30 <__init_array_end>
   10508:	40890933          	sub	s2,s2,s0
   1050c:	40395913          	srai	s2,s2,0x3
   10510:	00090e63          	beqz	s2,1052c <__libc_init_array+0x7c>
   10514:	00000493          	li	s1,0
   10518:	00043783          	ld	a5,0(s0)
   1051c:	00148493          	addi	s1,s1,1
   10520:	00840413          	addi	s0,s0,8
   10524:	000780e7          	jalr	a5
   10528:	fe9918e3          	bne	s2,s1,10518 <__libc_init_array+0x68>
   1052c:	01813083          	ld	ra,24(sp)
   10530:	01013403          	ld	s0,16(sp)
   10534:	00813483          	ld	s1,8(sp)
   10538:	00013903          	ld	s2,0(sp)
   1053c:	02010113          	addi	sp,sp,32
   10540:	00008067          	ret

0000000000010544 <memset>:
   10544:	00f00313          	li	t1,15
   10548:	00050713          	mv	a4,a0
   1054c:	02c37a63          	bgeu	t1,a2,10580 <memset+0x3c>
   10550:	00f77793          	andi	a5,a4,15
   10554:	0a079063          	bnez	a5,105f4 <memset+0xb0>
   10558:	06059e63          	bnez	a1,105d4 <memset+0x90>
   1055c:	ff067693          	andi	a3,a2,-16
   10560:	00f67613          	andi	a2,a2,15
   10564:	00e686b3          	add	a3,a3,a4
   10568:	00b73023          	sd	a1,0(a4) # 400000 <__BSS_END__+0x3db3e0>
   1056c:	00b73423          	sd	a1,8(a4)
   10570:	01070713          	addi	a4,a4,16
   10574:	fed76ae3          	bltu	a4,a3,10568 <memset+0x24>
   10578:	00061463          	bnez	a2,10580 <memset+0x3c>
   1057c:	00008067          	ret
   10580:	40c306b3          	sub	a3,t1,a2
   10584:	00269693          	slli	a3,a3,0x2
   10588:	00000297          	auipc	t0,0x0
   1058c:	005686b3          	add	a3,a3,t0
   10590:	00c68067          	jr	12(a3)
   10594:	00b70723          	sb	a1,14(a4)
   10598:	00b706a3          	sb	a1,13(a4)
   1059c:	00b70623          	sb	a1,12(a4)
   105a0:	00b705a3          	sb	a1,11(a4)
   105a4:	00b70523          	sb	a1,10(a4)
   105a8:	00b704a3          	sb	a1,9(a4)
   105ac:	00b70423          	sb	a1,8(a4)
   105b0:	00b703a3          	sb	a1,7(a4)
   105b4:	00b70323          	sb	a1,6(a4)
   105b8:	00b702a3          	sb	a1,5(a4)
   105bc:	00b70223          	sb	a1,4(a4)
   105c0:	00b701a3          	sb	a1,3(a4)
   105c4:	00b70123          	sb	a1,2(a4)
   105c8:	00b700a3          	sb	a1,1(a4)
   105cc:	00b70023          	sb	a1,0(a4)
   105d0:	00008067          	ret
   105d4:	0ff5f593          	andi	a1,a1,255
   105d8:	00859693          	slli	a3,a1,0x8
   105dc:	00d5e5b3          	or	a1,a1,a3
   105e0:	01059693          	slli	a3,a1,0x10
   105e4:	00d5e5b3          	or	a1,a1,a3
   105e8:	02059693          	slli	a3,a1,0x20
   105ec:	00d5e5b3          	or	a1,a1,a3
   105f0:	f6dff06f          	j	1055c <memset+0x18>
   105f4:	00279693          	slli	a3,a5,0x2
   105f8:	00000297          	auipc	t0,0x0
   105fc:	005686b3          	add	a3,a3,t0
   10600:	00008293          	mv	t0,ra
   10604:	f98680e7          	jalr	-104(a3)
   10608:	00028093          	mv	ra,t0
   1060c:	ff078793          	addi	a5,a5,-16
   10610:	40f70733          	sub	a4,a4,a5
   10614:	00f60633          	add	a2,a2,a5
   10618:	f6c374e3          	bgeu	t1,a2,10580 <memset+0x3c>
   1061c:	f3dff06f          	j	10558 <memset+0x14>

0000000000010620 <_printf_r>:
   10620:	fb010113          	addi	sp,sp,-80
   10624:	02c13023          	sd	a2,32(sp)
   10628:	02d13423          	sd	a3,40(sp)
   1062c:	02f13c23          	sd	a5,56(sp)
   10630:	02e13823          	sd	a4,48(sp)
   10634:	05013023          	sd	a6,64(sp)
   10638:	05113423          	sd	a7,72(sp)
   1063c:	00058613          	mv	a2,a1
   10640:	01053583          	ld	a1,16(a0)
   10644:	02010793          	addi	a5,sp,32
   10648:	00078693          	mv	a3,a5
   1064c:	00113c23          	sd	ra,24(sp)
   10650:	00f13423          	sd	a5,8(sp)
   10654:	064000ef          	jal	ra,106b8 <_vfprintf_r>
   10658:	01813083          	ld	ra,24(sp)
   1065c:	05010113          	addi	sp,sp,80
   10660:	00008067          	ret

0000000000010664 <printf>:
   10664:	75818313          	addi	t1,gp,1880 # 24b78 <_impure_ptr>
   10668:	00033303          	ld	t1,0(t1) # 10294 <frame_dummy+0x18>
   1066c:	fa010113          	addi	sp,sp,-96
   10670:	02c13823          	sd	a2,48(sp)
   10674:	02d13c23          	sd	a3,56(sp)
   10678:	04f13423          	sd	a5,72(sp)
   1067c:	02b13423          	sd	a1,40(sp)
   10680:	04e13023          	sd	a4,64(sp)
   10684:	05013823          	sd	a6,80(sp)
   10688:	05113c23          	sd	a7,88(sp)
   1068c:	01033583          	ld	a1,16(t1)
   10690:	02810793          	addi	a5,sp,40
   10694:	00050613          	mv	a2,a0
   10698:	00078693          	mv	a3,a5
   1069c:	00030513          	mv	a0,t1
   106a0:	00113c23          	sd	ra,24(sp)
   106a4:	00f13423          	sd	a5,8(sp)
   106a8:	010000ef          	jal	ra,106b8 <_vfprintf_r>
   106ac:	01813083          	ld	ra,24(sp)
   106b0:	06010113          	addi	sp,sp,96
   106b4:	00008067          	ret

00000000000106b8 <_vfprintf_r>:
   106b8:	d8010113          	addi	sp,sp,-640
   106bc:	26113c23          	sd	ra,632(sp)
   106c0:	25613023          	sd	s6,576(sp)
   106c4:	23713c23          	sd	s7,568(sp)
   106c8:	23a13023          	sd	s10,544(sp)
   106cc:	00058b13          	mv	s6,a1
   106d0:	00060d13          	mv	s10,a2
   106d4:	00d13823          	sd	a3,16(sp)
   106d8:	26813823          	sd	s0,624(sp)
   106dc:	26913423          	sd	s1,616(sp)
   106e0:	27213023          	sd	s2,608(sp)
   106e4:	25313c23          	sd	s3,600(sp)
   106e8:	25413823          	sd	s4,592(sp)
   106ec:	25513423          	sd	s5,584(sp)
   106f0:	23813823          	sd	s8,560(sp)
   106f4:	23913423          	sd	s9,552(sp)
   106f8:	21b13c23          	sd	s11,536(sp)
   106fc:	00050b93          	mv	s7,a0
   10700:	31c060ef          	jal	ra,16a1c <_localeconv_r>
   10704:	00053783          	ld	a5,0(a0)
   10708:	00078513          	mv	a0,a5
   1070c:	08f13023          	sd	a5,128(sp)
   10710:	644080ef          	jal	ra,18d54 <strlen>
   10714:	06a13c23          	sd	a0,120(sp)
   10718:	10013023          	sd	zero,256(sp)
   1071c:	10013423          	sd	zero,264(sp)
   10720:	000b8663          	beqz	s7,1072c <_vfprintf_r+0x74>
   10724:	050ba783          	lw	a5,80(s7)
   10728:	540780e3          	beqz	a5,11468 <_vfprintf_r+0xdb0>
   1072c:	010b1683          	lh	a3,16(s6)
   10730:	03069793          	slli	a5,a3,0x30
   10734:	0307d793          	srli	a5,a5,0x30
   10738:	03279713          	slli	a4,a5,0x32
   1073c:	02074663          	bltz	a4,10768 <_vfprintf_r+0xb0>
   10740:	0acb2603          	lw	a2,172(s6)
   10744:	000027b7          	lui	a5,0x2
   10748:	00f6e7b3          	or	a5,a3,a5
   1074c:	ffffe6b7          	lui	a3,0xffffe
   10750:	fff68693          	addi	a3,a3,-1 # ffffffffffffdfff <__BSS_END__+0xfffffffffffd93df>
   10754:	00d676b3          	and	a3,a2,a3
   10758:	00fb1823          	sh	a5,16(s6)
   1075c:	03079793          	slli	a5,a5,0x30
   10760:	0adb2623          	sw	a3,172(s6)
   10764:	0307d793          	srli	a5,a5,0x30
   10768:	0087f693          	andi	a3,a5,8
   1076c:	12068c63          	beqz	a3,108a4 <_vfprintf_r+0x1ec>
   10770:	018b3683          	ld	a3,24(s6)
   10774:	12068863          	beqz	a3,108a4 <_vfprintf_r+0x1ec>
   10778:	01a7f793          	andi	a5,a5,26
   1077c:	00a00693          	li	a3,10
   10780:	14d78463          	beq	a5,a3,108c8 <_vfprintf_r+0x210>
   10784:	000d4783          	lbu	a5,0(s10)
   10788:	19010c13          	addi	s8,sp,400
   1078c:	11813823          	sd	s8,272(sp)
   10790:	12013023          	sd	zero,288(sp)
   10794:	10012c23          	sw	zero,280(sp)
   10798:	02013423          	sd	zero,40(sp)
   1079c:	02013823          	sd	zero,48(sp)
   107a0:	08013823          	sd	zero,144(sp)
   107a4:	06013823          	sd	zero,112(sp)
   107a8:	08013423          	sd	zero,136(sp)
   107ac:	08013c23          	sd	zero,152(sp)
   107b0:	00013423          	sd	zero,8(sp)
   107b4:	000c0313          	mv	t1,s8
   107b8:	01000d93          	li	s11,16
   107bc:	00011997          	auipc	s3,0x11
   107c0:	77498993          	addi	s3,s3,1908 # 21f30 <zeroes.4541>
   107c4:	1e0780e3          	beqz	a5,111a4 <_vfprintf_r+0xaec>
   107c8:	02500693          	li	a3,37
   107cc:	00d79463          	bne	a5,a3,107d4 <_vfprintf_r+0x11c>
   107d0:	6640106f          	j	11e34 <_vfprintf_r+0x177c>
   107d4:	000d0413          	mv	s0,s10
   107d8:	00c0006f          	j	107e4 <_vfprintf_r+0x12c>
   107dc:	10d78863          	beq	a5,a3,108ec <_vfprintf_r+0x234>
   107e0:	00048413          	mv	s0,s1
   107e4:	00144783          	lbu	a5,1(s0)
   107e8:	00140493          	addi	s1,s0,1
   107ec:	fe0798e3          	bnez	a5,107dc <_vfprintf_r+0x124>
   107f0:	41a4893b          	subw	s2,s1,s10
   107f4:	1a0908e3          	beqz	s2,111a4 <_vfprintf_r+0xaec>
   107f8:	12013683          	ld	a3,288(sp)
   107fc:	11812783          	lw	a5,280(sp)
   10800:	01a33023          	sd	s10,0(t1)
   10804:	012686b3          	add	a3,a3,s2
   10808:	0017879b          	addiw	a5,a5,1
   1080c:	01233423          	sd	s2,8(t1)
   10810:	12d13023          	sd	a3,288(sp)
   10814:	10f12c23          	sw	a5,280(sp)
   10818:	0007869b          	sext.w	a3,a5
   1081c:	00700793          	li	a5,7
   10820:	01030313          	addi	t1,t1,16
   10824:	0cd7ca63          	blt	a5,a3,108f8 <_vfprintf_r+0x240>
   10828:	00813703          	ld	a4,8(sp)
   1082c:	00144783          	lbu	a5,1(s0)
   10830:	00e9073b          	addw	a4,s2,a4
   10834:	00e13423          	sd	a4,8(sp)
   10838:	160786e3          	beqz	a5,111a4 <_vfprintf_r+0xaec>
   1083c:	00148913          	addi	s2,s1,1
   10840:	0014c483          	lbu	s1,1(s1)
   10844:	0c010fa3          	sb	zero,223(sp)
   10848:	fff00e93          	li	t4,-1
   1084c:	00000a13          	li	s4,0
   10850:	00000413          	li	s0,0
   10854:	00900a93          	li	s5,9
   10858:	02a00c93          	li	s9,42
   1085c:	00190913          	addi	s2,s2,1
   10860:	0004849b          	sext.w	s1,s1
   10864:	05a00613          	li	a2,90
   10868:	fe04879b          	addiw	a5,s1,-32
   1086c:	0007869b          	sext.w	a3,a5
   10870:	20d66263          	bltu	a2,a3,10a74 <_vfprintf_r+0x3bc>
   10874:	02079793          	slli	a5,a5,0x20
   10878:	00011717          	auipc	a4,0x11
   1087c:	53870713          	addi	a4,a4,1336 # 21db0 <__clz_tab+0x100>
   10880:	01e7d793          	srli	a5,a5,0x1e
   10884:	00e787b3          	add	a5,a5,a4
   10888:	0007a783          	lw	a5,0(a5) # 2000 <main-0xe0b0>
   1088c:	00e787b3          	add	a5,a5,a4
   10890:	00078067          	jr	a5
   10894:	01046413          	ori	s0,s0,16
   10898:	0004041b          	sext.w	s0,s0
   1089c:	00094483          	lbu	s1,0(s2)
   108a0:	fbdff06f          	j	1085c <_vfprintf_r+0x1a4>
   108a4:	000b0593          	mv	a1,s6
   108a8:	000b8513          	mv	a0,s7
   108ac:	5fc020ef          	jal	ra,12ea8 <__swsetup_r>
   108b0:	00050463          	beqz	a0,108b8 <_vfprintf_r+0x200>
   108b4:	1c80206f          	j	12a7c <_vfprintf_r+0x23c4>
   108b8:	010b5783          	lhu	a5,16(s6)
   108bc:	00a00693          	li	a3,10
   108c0:	01a7f793          	andi	a5,a5,26
   108c4:	ecd790e3          	bne	a5,a3,10784 <_vfprintf_r+0xcc>
   108c8:	012b1783          	lh	a5,18(s6)
   108cc:	ea07cce3          	bltz	a5,10784 <_vfprintf_r+0xcc>
   108d0:	01013683          	ld	a3,16(sp)
   108d4:	000d0613          	mv	a2,s10
   108d8:	000b0593          	mv	a1,s6
   108dc:	000b8513          	mv	a0,s7
   108e0:	508020ef          	jal	ra,12de8 <__sbprintf>
   108e4:	00a13423          	sd	a0,8(sp)
   108e8:	0640006f          	j	1094c <_vfprintf_r+0x294>
   108ec:	41a4893b          	subw	s2,s1,s10
   108f0:	f40906e3          	beqz	s2,1083c <_vfprintf_r+0x184>
   108f4:	f05ff06f          	j	107f8 <_vfprintf_r+0x140>
   108f8:	11010613          	addi	a2,sp,272
   108fc:	000b0593          	mv	a1,s6
   10900:	000b8513          	mv	a0,s7
   10904:	5d10a0ef          	jal	ra,1b6d4 <__sprint_r>
   10908:	02051a63          	bnez	a0,1093c <_vfprintf_r+0x284>
   1090c:	000c0313          	mv	t1,s8
   10910:	f19ff06f          	j	10828 <_vfprintf_r+0x170>
   10914:	11010613          	addi	a2,sp,272
   10918:	000b0593          	mv	a1,s6
   1091c:	000b8513          	mv	a0,s7
   10920:	5b50a0ef          	jal	ra,1b6d4 <__sprint_r>
   10924:	04050ce3          	beqz	a0,1117c <_vfprintf_r+0xac4>
   10928:	02013783          	ld	a5,32(sp)
   1092c:	00078863          	beqz	a5,1093c <_vfprintf_r+0x284>
   10930:	00078593          	mv	a1,a5
   10934:	000b8513          	mv	a0,s7
   10938:	02c030ef          	jal	ra,13964 <_free_r>
   1093c:	010b5783          	lhu	a5,16(s6)
   10940:	0407f793          	andi	a5,a5,64
   10944:	00078463          	beqz	a5,1094c <_vfprintf_r+0x294>
   10948:	1340206f          	j	12a7c <_vfprintf_r+0x23c4>
   1094c:	27813083          	ld	ra,632(sp)
   10950:	27013403          	ld	s0,624(sp)
   10954:	00813503          	ld	a0,8(sp)
   10958:	26813483          	ld	s1,616(sp)
   1095c:	26013903          	ld	s2,608(sp)
   10960:	25813983          	ld	s3,600(sp)
   10964:	25013a03          	ld	s4,592(sp)
   10968:	24813a83          	ld	s5,584(sp)
   1096c:	24013b03          	ld	s6,576(sp)
   10970:	23813b83          	ld	s7,568(sp)
   10974:	23013c03          	ld	s8,560(sp)
   10978:	22813c83          	ld	s9,552(sp)
   1097c:	22013d03          	ld	s10,544(sp)
   10980:	21813d83          	ld	s11,536(sp)
   10984:	28010113          	addi	sp,sp,640
   10988:	00008067          	ret
   1098c:	01013703          	ld	a4,16(sp)
   10990:	00011797          	auipc	a5,0x11
   10994:	60078793          	addi	a5,a5,1536 # 21f90 <zeroes.4541+0x60>
   10998:	02f13823          	sd	a5,48(sp)
   1099c:	02047793          	andi	a5,s0,32
   109a0:	00870693          	addi	a3,a4,8
   109a4:	10078463          	beqz	a5,10aac <_vfprintf_r+0x3f4>
   109a8:	00073a83          	ld	s5,0(a4)
   109ac:	00147713          	andi	a4,s0,1
   109b0:	00070e63          	beqz	a4,109cc <_vfprintf_r+0x314>
   109b4:	000a8c63          	beqz	s5,109cc <_vfprintf_r+0x314>
   109b8:	00246413          	ori	s0,s0,2
   109bc:	03000713          	li	a4,48
   109c0:	0ee10023          	sb	a4,224(sp)
   109c4:	0e9100a3          	sb	s1,225(sp)
   109c8:	0004041b          	sext.w	s0,s0
   109cc:	bff47813          	andi	a6,s0,-1025
   109d0:	0008081b          	sext.w	a6,a6
   109d4:	00d13823          	sd	a3,16(sp)
   109d8:	00200713          	li	a4,2
   109dc:	0c010fa3          	sb	zero,223(sp)
   109e0:	fff00693          	li	a3,-1
   109e4:	5ede8e63          	beq	t4,a3,10fe0 <_vfprintf_r+0x928>
   109e8:	f7f87413          	andi	s0,a6,-129
   109ec:	0004041b          	sext.w	s0,s0
   109f0:	660a9ce3          	bnez	s5,11868 <_vfprintf_r+0x11b0>
   109f4:	000e8463          	beqz	t4,109fc <_vfprintf_r+0x344>
   109f8:	0580106f          	j	11a50 <_vfprintf_r+0x1398>
   109fc:	52071a63          	bnez	a4,10f30 <_vfprintf_r+0x878>
   10a00:	00187c93          	andi	s9,a6,1
   10a04:	18c10d13          	addi	s10,sp,396
   10a08:	000c8463          	beqz	s9,10a10 <_vfprintf_r+0x358>
   10a0c:	2940106f          	j	11ca0 <_vfprintf_r+0x15e8>
   10a10:	000c8a9b          	sext.w	s5,s9
   10a14:	01dcd463          	bge	s9,t4,10a1c <_vfprintf_r+0x364>
   10a18:	000e8a9b          	sext.w	s5,t4
   10a1c:	0df14783          	lbu	a5,223(sp)
   10a20:	02013023          	sd	zero,32(sp)
   10a24:	04013c23          	sd	zero,88(sp)
   10a28:	06013423          	sd	zero,104(sp)
   10a2c:	06013023          	sd	zero,96(sp)
   10a30:	64078463          	beqz	a5,11078 <_vfprintf_r+0x9c0>
   10a34:	001a8a9b          	addiw	s5,s5,1
   10a38:	6400006f          	j	11078 <_vfprintf_r+0x9c0>
   10a3c:	00000a13          	li	s4,0
   10a40:	00190913          	addi	s2,s2,1
   10a44:	fff94683          	lbu	a3,-1(s2)
   10a48:	002a179b          	slliw	a5,s4,0x2
   10a4c:	01478a3b          	addw	s4,a5,s4
   10a50:	fd04849b          	addiw	s1,s1,-48
   10a54:	001a1a1b          	slliw	s4,s4,0x1
   10a58:	fd06879b          	addiw	a5,a3,-48
   10a5c:	01448a3b          	addw	s4,s1,s4
   10a60:	0006849b          	sext.w	s1,a3
   10a64:	fcfafee3          	bgeu	s5,a5,10a40 <_vfprintf_r+0x388>
   10a68:	fe04879b          	addiw	a5,s1,-32
   10a6c:	0007869b          	sext.w	a3,a5
   10a70:	e0d672e3          	bgeu	a2,a3,10874 <_vfprintf_r+0x1bc>
   10a74:	72048863          	beqz	s1,111a4 <_vfprintf_r+0xaec>
   10a78:	12910423          	sb	s1,296(sp)
   10a7c:	0c010fa3          	sb	zero,223(sp)
   10a80:	00100a93          	li	s5,1
   10a84:	00100c93          	li	s9,1
   10a88:	12810d13          	addi	s10,sp,296
   10a8c:	5d80006f          	j	11064 <_vfprintf_r+0x9ac>
   10a90:	01013703          	ld	a4,16(sp)
   10a94:	00011797          	auipc	a5,0x11
   10a98:	51478793          	addi	a5,a5,1300 # 21fa8 <zeroes.4541+0x78>
   10a9c:	02f13823          	sd	a5,48(sp)
   10aa0:	02047793          	andi	a5,s0,32
   10aa4:	00870693          	addi	a3,a4,8
   10aa8:	f00790e3          	bnez	a5,109a8 <_vfprintf_r+0x2f0>
   10aac:	01047793          	andi	a5,s0,16
   10ab0:	00078463          	beqz	a5,10ab8 <_vfprintf_r+0x400>
   10ab4:	23c0106f          	j	11cf0 <_vfprintf_r+0x1638>
   10ab8:	01013783          	ld	a5,16(sp)
   10abc:	04047713          	andi	a4,s0,64
   10ac0:	0007a783          	lw	a5,0(a5)
   10ac4:	00071463          	bnez	a4,10acc <_vfprintf_r+0x414>
   10ac8:	5cc0106f          	j	12094 <_vfprintf_r+0x19dc>
   10acc:	03079a93          	slli	s5,a5,0x30
   10ad0:	030ada93          	srli	s5,s5,0x30
   10ad4:	ed9ff06f          	j	109ac <_vfprintf_r+0x2f4>
   10ad8:	00094483          	lbu	s1,0(s2)
   10adc:	00446413          	ori	s0,s0,4
   10ae0:	0004041b          	sext.w	s0,s0
   10ae4:	d79ff06f          	j	1085c <_vfprintf_r+0x1a4>
   10ae8:	00094483          	lbu	s1,0(s2)
   10aec:	06800793          	li	a5,104
   10af0:	00f49463          	bne	s1,a5,10af8 <_vfprintf_r+0x440>
   10af4:	2700106f          	j	11d64 <_vfprintf_r+0x16ac>
   10af8:	04046413          	ori	s0,s0,64
   10afc:	0004041b          	sext.w	s0,s0
   10b00:	d5dff06f          	j	1085c <_vfprintf_r+0x1a4>
   10b04:	00847793          	andi	a5,s0,8
   10b08:	00078463          	beqz	a5,10b10 <_vfprintf_r+0x458>
   10b0c:	1b40106f          	j	11cc0 <_vfprintf_r+0x1608>
   10b10:	01013783          	ld	a5,16(sp)
   10b14:	02613023          	sd	t1,32(sp)
   10b18:	01d13c23          	sd	t4,24(sp)
   10b1c:	0007b503          	ld	a0,0(a5)
   10b20:	00878793          	addi	a5,a5,8
   10b24:	00f13823          	sd	a5,16(sp)
   10b28:	3cd100ef          	jal	ra,216f4 <__extenddftf2>
   10b2c:	02013303          	ld	t1,32(sp)
   10b30:	01813e83          	ld	t4,24(sp)
   10b34:	10a13023          	sd	a0,256(sp)
   10b38:	10b13423          	sd	a1,264(sp)
   10b3c:	10010513          	addi	a0,sp,256
   10b40:	02613023          	sd	t1,32(sp)
   10b44:	01d13c23          	sd	t4,24(sp)
   10b48:	679050ef          	jal	ra,169c0 <_ldcheck>
   10b4c:	0ea12423          	sw	a0,232(sp)
   10b50:	00200793          	li	a5,2
   10b54:	01813e83          	ld	t4,24(sp)
   10b58:	02013303          	ld	t1,32(sp)
   10b5c:	00f51463          	bne	a0,a5,10b64 <_vfprintf_r+0x4ac>
   10b60:	4840106f          	j	11fe4 <_vfprintf_r+0x192c>
   10b64:	00100793          	li	a5,1
   10b68:	00f51463          	bne	a0,a5,10b70 <_vfprintf_r+0x4b8>
   10b6c:	5940106f          	j	12100 <_vfprintf_r+0x1a48>
   10b70:	06100793          	li	a5,97
   10b74:	00f49463          	bne	s1,a5,10b7c <_vfprintf_r+0x4c4>
   10b78:	7b90106f          	j	12b30 <_vfprintf_r+0x2478>
   10b7c:	04100793          	li	a5,65
   10b80:	00f49463          	bne	s1,a5,10b88 <_vfprintf_r+0x4d0>
   10b84:	1210106f          	j	124a4 <_vfprintf_r+0x1dec>
   10b88:	fdf4f713          	andi	a4,s1,-33
   10b8c:	fff00793          	li	a5,-1
   10b90:	0ae13423          	sd	a4,168(sp)
   10b94:	00fe9463          	bne	t4,a5,10b9c <_vfprintf_r+0x4e4>
   10b98:	0380206f          	j	12bd0 <_vfprintf_r+0x2518>
   10b9c:	04700793          	li	a5,71
   10ba0:	00f71463          	bne	a4,a5,10ba8 <_vfprintf_r+0x4f0>
   10ba4:	01c0206f          	j	12bc0 <_vfprintf_r+0x2508>
   10ba8:	10813c83          	ld	s9,264(sp)
   10bac:	10046793          	ori	a5,s0,256
   10bb0:	0a813823          	sd	s0,176(sp)
   10bb4:	0007879b          	sext.w	a5,a5
   10bb8:	10013f03          	ld	t5,256(sp)
   10bbc:	000cd463          	bgez	s9,10bc4 <_vfprintf_r+0x50c>
   10bc0:	4b90106f          	j	12878 <_vfprintf_r+0x21c0>
   10bc4:	0c013423          	sd	zero,200(sp)
   10bc8:	00078413          	mv	s0,a5
   10bcc:	02013023          	sd	zero,32(sp)
   10bd0:	0a813703          	ld	a4,168(sp)
   10bd4:	04600793          	li	a5,70
   10bd8:	00f71463          	bne	a4,a5,10be0 <_vfprintf_r+0x528>
   10bdc:	3810106f          	j	1275c <_vfprintf_r+0x20a4>
   10be0:	04500793          	li	a5,69
   10be4:	02613c23          	sd	t1,56(sp)
   10be8:	00f71463          	bne	a4,a5,10bf0 <_vfprintf_r+0x538>
   10bec:	7810106f          	j	12b6c <_vfprintf_r+0x24b4>
   10bf0:	000e8713          	mv	a4,t4
   10bf4:	0e810793          	addi	a5,sp,232
   10bf8:	000f0593          	mv	a1,t5
   10bfc:	0f810893          	addi	a7,sp,248
   10c00:	0ec10813          	addi	a6,sp,236
   10c04:	00200693          	li	a3,2
   10c08:	000c8613          	mv	a2,s9
   10c0c:	000b8513          	mv	a0,s7
   10c10:	03d13423          	sd	t4,40(sp)
   10c14:	01e13c23          	sd	t5,24(sp)
   10c18:	291040ef          	jal	ra,156a8 <_ldtoa_r>
   10c1c:	0a813703          	ld	a4,168(sp)
   10c20:	04700793          	li	a5,71
   10c24:	00050d13          	mv	s10,a0
   10c28:	01813f03          	ld	t5,24(sp)
   10c2c:	02813e83          	ld	t4,40(sp)
   10c30:	03813303          	ld	t1,56(sp)
   10c34:	00f70463          	beq	a4,a5,10c3c <_vfprintf_r+0x584>
   10c38:	1700206f          	j	12da8 <_vfprintf_r+0x26f0>
   10c3c:	0b013783          	ld	a5,176(sp)
   10c40:	01d50ab3          	add	s5,a0,t4
   10c44:	0017f793          	andi	a5,a5,1
   10c48:	00078463          	beqz	a5,10c50 <_vfprintf_r+0x598>
   10c4c:	3690106f          	j	127b4 <_vfprintf_r+0x20fc>
   10c50:	0f813783          	ld	a5,248(sp)
   10c54:	0e812703          	lw	a4,232(sp)
   10c58:	41a787bb          	subw	a5,a5,s10
   10c5c:	02f13423          	sd	a5,40(sp)
   10c60:	06e13023          	sd	a4,96(sp)
   10c64:	0a813703          	ld	a4,168(sp)
   10c68:	04700793          	li	a5,71
   10c6c:	00f71463          	bne	a4,a5,10c74 <_vfprintf_r+0x5bc>
   10c70:	2cd0106f          	j	1273c <_vfprintf_r+0x2084>
   10c74:	0a813703          	ld	a4,168(sp)
   10c78:	04600793          	li	a5,70
   10c7c:	00f71463          	bne	a4,a5,10c84 <_vfprintf_r+0x5cc>
   10c80:	51d0106f          	j	1299c <_vfprintf_r+0x22e4>
   10c84:	06013783          	ld	a5,96(sp)
   10c88:	0a813703          	ld	a4,168(sp)
   10c8c:	04100693          	li	a3,65
   10c90:	fff78a9b          	addiw	s5,a5,-1
   10c94:	0f512423          	sw	s5,232(sp)
   10c98:	0ff4f793          	andi	a5,s1,255
   10c9c:	00000613          	li	a2,0
   10ca0:	00d71863          	bne	a4,a3,10cb0 <_vfprintf_r+0x5f8>
   10ca4:	00f7879b          	addiw	a5,a5,15
   10ca8:	0ff7f793          	andi	a5,a5,255
   10cac:	00100613          	li	a2,1
   10cb0:	0ef10823          	sb	a5,240(sp)
   10cb4:	02b00793          	li	a5,43
   10cb8:	000ada63          	bgez	s5,10ccc <_vfprintf_r+0x614>
   10cbc:	06013703          	ld	a4,96(sp)
   10cc0:	00100793          	li	a5,1
   10cc4:	40e78abb          	subw	s5,a5,a4
   10cc8:	02d00793          	li	a5,45
   10ccc:	0ef108a3          	sb	a5,241(sp)
   10cd0:	00900793          	li	a5,9
   10cd4:	0157c463          	blt	a5,s5,10cdc <_vfprintf_r+0x624>
   10cd8:	7710106f          	j	12c48 <_vfprintf_r+0x2590>
   10cdc:	0ff10413          	addi	s0,sp,255
   10ce0:	00040c93          	mv	s9,s0
   10ce4:	00c0006f          	j	10cf0 <_vfprintf_r+0x638>
   10ce8:	00060c93          	mv	s9,a2
   10cec:	00050a93          	mv	s5,a0
   10cf0:	00a00593          	li	a1,10
   10cf4:	000a8513          	mv	a0,s5
   10cf8:	00613c23          	sd	t1,24(sp)
   10cfc:	6f9100ef          	jal	ra,21bf4 <__moddi3>
   10d00:	0305051b          	addiw	a0,a0,48
   10d04:	feac8fa3          	sb	a0,-1(s9)
   10d08:	00a00593          	li	a1,10
   10d0c:	000a8513          	mv	a0,s5
   10d10:	661100ef          	jal	ra,21b70 <__divdi3>
   10d14:	06300793          	li	a5,99
   10d18:	fffc8613          	addi	a2,s9,-1
   10d1c:	0005051b          	sext.w	a0,a0
   10d20:	01813303          	ld	t1,24(sp)
   10d24:	fd57c2e3          	blt	a5,s5,10ce8 <_vfprintf_r+0x630>
   10d28:	0305079b          	addiw	a5,a0,48
   10d2c:	0ff7f793          	andi	a5,a5,255
   10d30:	ffec8693          	addi	a3,s9,-2
   10d34:	fef60fa3          	sb	a5,-1(a2)
   10d38:	0086e463          	bltu	a3,s0,10d40 <_vfprintf_r+0x688>
   10d3c:	0780206f          	j	12db4 <_vfprintf_r+0x26fc>
   10d40:	0f210613          	addi	a2,sp,242
   10d44:	0080006f          	j	10d4c <_vfprintf_r+0x694>
   10d48:	0006c783          	lbu	a5,0(a3)
   10d4c:	00160613          	addi	a2,a2,1
   10d50:	00168693          	addi	a3,a3,1
   10d54:	fef60fa3          	sb	a5,-1(a2)
   10d58:	fe8698e3          	bne	a3,s0,10d48 <_vfprintf_r+0x690>
   10d5c:	10110793          	addi	a5,sp,257
   10d60:	419787b3          	sub	a5,a5,s9
   10d64:	0f210713          	addi	a4,sp,242
   10d68:	00f707b3          	add	a5,a4,a5
   10d6c:	0f010693          	addi	a3,sp,240
   10d70:	40d787bb          	subw	a5,a5,a3
   10d74:	08f13823          	sd	a5,144(sp)
   10d78:	09013783          	ld	a5,144(sp)
   10d7c:	02813703          	ld	a4,40(sp)
   10d80:	00100693          	li	a3,1
   10d84:	00f70cbb          	addw	s9,a4,a5
   10d88:	000c8793          	mv	a5,s9
   10d8c:	00e6c463          	blt	a3,a4,10d94 <_vfprintf_r+0x6dc>
   10d90:	79d0106f          	j	12d2c <_vfprintf_r+0x2674>
   10d94:	07813703          	ld	a4,120(sp)
   10d98:	00e78cbb          	addw	s9,a5,a4
   10d9c:	0b013783          	ld	a5,176(sp)
   10da0:	fffcca93          	not	s5,s9
   10da4:	43fada93          	srai	s5,s5,0x3f
   10da8:	bff7f413          	andi	s0,a5,-1025
   10dac:	0004041b          	sext.w	s0,s0
   10db0:	015cfab3          	and	s5,s9,s5
   10db4:	10046413          	ori	s0,s0,256
   10db8:	000a8a9b          	sext.w	s5,s5
   10dbc:	04013c23          	sd	zero,88(sp)
   10dc0:	06013423          	sd	zero,104(sp)
   10dc4:	06013023          	sd	zero,96(sp)
   10dc8:	0c813783          	ld	a5,200(sp)
   10dcc:	00079463          	bnez	a5,10dd4 <_vfprintf_r+0x71c>
   10dd0:	2950106f          	j	12864 <_vfprintf_r+0x21ac>
   10dd4:	02d00793          	li	a5,45
   10dd8:	0cf10fa3          	sb	a5,223(sp)
   10ddc:	00000e93          	li	t4,0
   10de0:	001a8a9b          	addiw	s5,s5,1
   10de4:	2940006f          	j	11078 <_vfprintf_r+0x9c0>
   10de8:	01013783          	ld	a5,16(sp)
   10dec:	01046813          	ori	a6,s0,16
   10df0:	0008081b          	sext.w	a6,a6
   10df4:	00878693          	addi	a3,a5,8
   10df8:	01013783          	ld	a5,16(sp)
   10dfc:	00100713          	li	a4,1
   10e00:	0007ba83          	ld	s5,0(a5)
   10e04:	00d13823          	sd	a3,16(sp)
   10e08:	bd5ff06f          	j	109dc <_vfprintf_r+0x324>
   10e0c:	01013783          	ld	a5,16(sp)
   10e10:	0c010fa3          	sb	zero,223(sp)
   10e14:	0007bd03          	ld	s10,0(a5)
   10e18:	00878693          	addi	a3,a5,8
   10e1c:	780d0ae3          	beqz	s10,11db0 <_vfprintf_r+0x16f8>
   10e20:	fff00793          	li	a5,-1
   10e24:	00fe9463          	bne	t4,a5,10e2c <_vfprintf_r+0x774>
   10e28:	2200106f          	j	12048 <_vfprintf_r+0x1990>
   10e2c:	000e8613          	mv	a2,t4
   10e30:	00000593          	li	a1,0
   10e34:	000d0513          	mv	a0,s10
   10e38:	02d13c23          	sd	a3,56(sp)
   10e3c:	00613c23          	sd	t1,24(sp)
   10e40:	01d13823          	sd	t4,16(sp)
   10e44:	73c060ef          	jal	ra,17580 <memchr>
   10e48:	02a13023          	sd	a0,32(sp)
   10e4c:	01013e83          	ld	t4,16(sp)
   10e50:	01813303          	ld	t1,24(sp)
   10e54:	03813683          	ld	a3,56(sp)
   10e58:	00051463          	bnez	a0,10e60 <_vfprintf_r+0x7a8>
   10e5c:	2e50106f          	j	12940 <_vfprintf_r+0x2288>
   10e60:	02013783          	ld	a5,32(sp)
   10e64:	00d13823          	sd	a3,16(sp)
   10e68:	02013023          	sd	zero,32(sp)
   10e6c:	41a78cbb          	subw	s9,a5,s10
   10e70:	fffcca93          	not	s5,s9
   10e74:	0df14783          	lbu	a5,223(sp)
   10e78:	43fada93          	srai	s5,s5,0x3f
   10e7c:	015cfab3          	and	s5,s9,s5
   10e80:	04013c23          	sd	zero,88(sp)
   10e84:	06013423          	sd	zero,104(sp)
   10e88:	06013023          	sd	zero,96(sp)
   10e8c:	000a8a9b          	sext.w	s5,s5
   10e90:	00000e93          	li	t4,0
   10e94:	ba0790e3          	bnez	a5,10a34 <_vfprintf_r+0x37c>
   10e98:	1e00006f          	j	11078 <_vfprintf_r+0x9c0>
   10e9c:	01013703          	ld	a4,16(sp)
   10ea0:	01046813          	ori	a6,s0,16
   10ea4:	0008041b          	sext.w	s0,a6
   10ea8:	00870713          	addi	a4,a4,8
   10eac:	01013783          	ld	a5,16(sp)
   10eb0:	0007ba83          	ld	s5,0(a5)
   10eb4:	00e13823          	sd	a4,16(sp)
   10eb8:	bff47813          	andi	a6,s0,-1025
   10ebc:	0008081b          	sext.w	a6,a6
   10ec0:	00000713          	li	a4,0
   10ec4:	b19ff06f          	j	109dc <_vfprintf_r+0x324>
   10ec8:	00846413          	ori	s0,s0,8
   10ecc:	0004041b          	sext.w	s0,s0
   10ed0:	00094483          	lbu	s1,0(s2)
   10ed4:	989ff06f          	j	1085c <_vfprintf_r+0x1a4>
   10ed8:	01013703          	ld	a4,16(sp)
   10edc:	02047793          	andi	a5,s0,32
   10ee0:	00870693          	addi	a3,a4,8
   10ee4:	600792e3          	bnez	a5,11ce8 <_vfprintf_r+0x1630>
   10ee8:	01047793          	andi	a5,s0,16
   10eec:	5e079ee3          	bnez	a5,11ce8 <_vfprintf_r+0x1630>
   10ef0:	04047793          	andi	a5,s0,64
   10ef4:	00079463          	bnez	a5,10efc <_vfprintf_r+0x844>
   10ef8:	1e80106f          	j	120e0 <_vfprintf_r+0x1a28>
   10efc:	01013783          	ld	a5,16(sp)
   10f00:	00040813          	mv	a6,s0
   10f04:	00d13823          	sd	a3,16(sp)
   10f08:	00079a83          	lh	s5,0(a5)
   10f0c:	000a8713          	mv	a4,s5
   10f10:	0a074c63          	bltz	a4,10fc8 <_vfprintf_r+0x910>
   10f14:	fff00713          	li	a4,-1
   10f18:	56ee8063          	beq	t4,a4,11478 <_vfprintf_r+0xdc0>
   10f1c:	f7f87813          	andi	a6,a6,-129
   10f20:	0008041b          	sext.w	s0,a6
   10f24:	540a9863          	bnez	s5,11474 <_vfprintf_r+0xdbc>
   10f28:	000e8463          	beqz	t4,10f30 <_vfprintf_r+0x878>
   10f2c:	7f40106f          	j	12720 <_vfprintf_r+0x2068>
   10f30:	00000e93          	li	t4,0
   10f34:	00000c93          	li	s9,0
   10f38:	18c10d13          	addi	s10,sp,396
   10f3c:	ad5ff06f          	j	10a10 <_vfprintf_r+0x358>
   10f40:	02b00793          	li	a5,43
   10f44:	0cf10fa3          	sb	a5,223(sp)
   10f48:	00094483          	lbu	s1,0(s2)
   10f4c:	911ff06f          	j	1085c <_vfprintf_r+0x1a4>
   10f50:	08046413          	ori	s0,s0,128
   10f54:	0004041b          	sext.w	s0,s0
   10f58:	00094483          	lbu	s1,0(s2)
   10f5c:	901ff06f          	j	1085c <_vfprintf_r+0x1a4>
   10f60:	00094483          	lbu	s1,0(s2)
   10f64:	00190793          	addi	a5,s2,1
   10f68:	01949463          	bne	s1,s9,10f70 <_vfprintf_r+0x8b8>
   10f6c:	6190106f          	j	12d84 <_vfprintf_r+0x26cc>
   10f70:	fd04869b          	addiw	a3,s1,-48
   10f74:	00078913          	mv	s2,a5
   10f78:	00000e93          	li	t4,0
   10f7c:	8edae6e3          	bltu	s5,a3,10868 <_vfprintf_r+0x1b0>
   10f80:	00190913          	addi	s2,s2,1
   10f84:	002e979b          	slliw	a5,t4,0x2
   10f88:	fff94483          	lbu	s1,-1(s2)
   10f8c:	01d78ebb          	addw	t4,a5,t4
   10f90:	001e9e9b          	slliw	t4,t4,0x1
   10f94:	00de8ebb          	addw	t4,t4,a3
   10f98:	fd04869b          	addiw	a3,s1,-48
   10f9c:	fedaf2e3          	bgeu	s5,a3,10f80 <_vfprintf_r+0x8c8>
   10fa0:	8c9ff06f          	j	10868 <_vfprintf_r+0x1b0>
   10fa4:	01013783          	ld	a5,16(sp)
   10fa8:	01046813          	ori	a6,s0,16
   10fac:	0008081b          	sext.w	a6,a6
   10fb0:	00878693          	addi	a3,a5,8
   10fb4:	01013783          	ld	a5,16(sp)
   10fb8:	0007b703          	ld	a4,0(a5)
   10fbc:	00d13823          	sd	a3,16(sp)
   10fc0:	00070a93          	mv	s5,a4
   10fc4:	f40758e3          	bgez	a4,10f14 <_vfprintf_r+0x85c>
   10fc8:	02d00713          	li	a4,45
   10fcc:	0ce10fa3          	sb	a4,223(sp)
   10fd0:	fff00693          	li	a3,-1
   10fd4:	41500ab3          	neg	s5,s5
   10fd8:	00100713          	li	a4,1
   10fdc:	a0de96e3          	bne	t4,a3,109e8 <_vfprintf_r+0x330>
   10fe0:	00100693          	li	a3,1
   10fe4:	48d70a63          	beq	a4,a3,11478 <_vfprintf_r+0xdc0>
   10fe8:	00200693          	li	a3,2
   10fec:	26d70ce3          	beq	a4,a3,11a64 <_vfprintf_r+0x13ac>
   10ff0:	18c10c93          	addi	s9,sp,396
   10ff4:	000c8613          	mv	a2,s9
   10ff8:	0080006f          	j	11000 <_vfprintf_r+0x948>
   10ffc:	000d0613          	mv	a2,s10
   11000:	007af693          	andi	a3,s5,7
   11004:	03068693          	addi	a3,a3,48
   11008:	fed60fa3          	sb	a3,-1(a2)
   1100c:	003ada93          	srli	s5,s5,0x3
   11010:	fff60d13          	addi	s10,a2,-1
   11014:	fe0a94e3          	bnez	s5,10ffc <_vfprintf_r+0x944>
   11018:	00187793          	andi	a5,a6,1
   1101c:	48078663          	beqz	a5,114a8 <_vfprintf_r+0xdf0>
   11020:	03000793          	li	a5,48
   11024:	48f68263          	beq	a3,a5,114a8 <_vfprintf_r+0xdf0>
   11028:	ffe60613          	addi	a2,a2,-2
   1102c:	fefd0fa3          	sb	a5,-1(s10)
   11030:	40cc8cbb          	subw	s9,s9,a2
   11034:	00080413          	mv	s0,a6
   11038:	00060d13          	mv	s10,a2
   1103c:	9d5ff06f          	j	10a10 <_vfprintf_r+0x358>
   11040:	01013703          	ld	a4,16(sp)
   11044:	0c010fa3          	sb	zero,223(sp)
   11048:	00100a93          	li	s5,1
   1104c:	00072783          	lw	a5,0(a4)
   11050:	00870713          	addi	a4,a4,8
   11054:	00e13823          	sd	a4,16(sp)
   11058:	12f10423          	sb	a5,296(sp)
   1105c:	00100c93          	li	s9,1
   11060:	12810d13          	addi	s10,sp,296
   11064:	02013023          	sd	zero,32(sp)
   11068:	00000e93          	li	t4,0
   1106c:	04013c23          	sd	zero,88(sp)
   11070:	06013423          	sd	zero,104(sp)
   11074:	06013023          	sd	zero,96(sp)
   11078:	00247f13          	andi	t5,s0,2
   1107c:	000f0f1b          	sext.w	t5,t5
   11080:	000f0463          	beqz	t5,11088 <_vfprintf_r+0x9d0>
   11084:	002a8a9b          	addiw	s5,s5,2
   11088:	08447f93          	andi	t6,s0,132
   1108c:	12013783          	ld	a5,288(sp)
   11090:	000f9663          	bnez	t6,1109c <_vfprintf_r+0x9e4>
   11094:	415a083b          	subw	a6,s4,s5
   11098:	7d004c63          	bgtz	a6,11870 <_vfprintf_r+0x11b8>
   1109c:	0df14683          	lbu	a3,223(sp)
   110a0:	02068c63          	beqz	a3,110d8 <_vfprintf_r+0xa20>
   110a4:	11812683          	lw	a3,280(sp)
   110a8:	0df10613          	addi	a2,sp,223
   110ac:	00c33023          	sd	a2,0(t1)
   110b0:	0016869b          	addiw	a3,a3,1
   110b4:	00100613          	li	a2,1
   110b8:	00178793          	addi	a5,a5,1
   110bc:	00c33423          	sd	a2,8(t1)
   110c0:	10d12c23          	sw	a3,280(sp)
   110c4:	0006861b          	sext.w	a2,a3
   110c8:	12f13023          	sd	a5,288(sp)
   110cc:	00700693          	li	a3,7
   110d0:	01030313          	addi	t1,t1,16
   110d4:	0ec6c663          	blt	a3,a2,111c0 <_vfprintf_r+0xb08>
   110d8:	020f0c63          	beqz	t5,11110 <_vfprintf_r+0xa58>
   110dc:	11812683          	lw	a3,280(sp)
   110e0:	0e010613          	addi	a2,sp,224
   110e4:	00c33023          	sd	a2,0(t1)
   110e8:	0016869b          	addiw	a3,a3,1
   110ec:	00200613          	li	a2,2
   110f0:	00278793          	addi	a5,a5,2
   110f4:	00c33423          	sd	a2,8(t1)
   110f8:	10d12c23          	sw	a3,280(sp)
   110fc:	0006861b          	sext.w	a2,a3
   11100:	12f13023          	sd	a5,288(sp)
   11104:	00700693          	li	a3,7
   11108:	01030313          	addi	t1,t1,16
   1110c:	04c6cee3          	blt	a3,a2,11968 <_vfprintf_r+0x12b0>
   11110:	08000693          	li	a3,128
   11114:	4cdf8263          	beq	t6,a3,115d8 <_vfprintf_r+0xf20>
   11118:	419e8ebb          	subw	t4,t4,s9
   1111c:	59d04263          	bgtz	t4,116a0 <_vfprintf_r+0xfe8>
   11120:	10047693          	andi	a3,s0,256
   11124:	38069863          	bnez	a3,114b4 <_vfprintf_r+0xdfc>
   11128:	11812703          	lw	a4,280(sp)
   1112c:	019787b3          	add	a5,a5,s9
   11130:	01a33023          	sd	s10,0(t1)
   11134:	0017069b          	addiw	a3,a4,1
   11138:	01933423          	sd	s9,8(t1)
   1113c:	12f13023          	sd	a5,288(sp)
   11140:	10d12c23          	sw	a3,280(sp)
   11144:	00700713          	li	a4,7
   11148:	12d74863          	blt	a4,a3,11278 <_vfprintf_r+0xbc0>
   1114c:	01030313          	addi	t1,t1,16
   11150:	00447413          	andi	s0,s0,4
   11154:	00040663          	beqz	s0,11160 <_vfprintf_r+0xaa8>
   11158:	415a043b          	subw	s0,s4,s5
   1115c:	048040e3          	bgtz	s0,1199c <_vfprintf_r+0x12e4>
   11160:	000a0713          	mv	a4,s4
   11164:	015a5463          	bge	s4,s5,1116c <_vfprintf_r+0xab4>
   11168:	000a8713          	mv	a4,s5
   1116c:	00813683          	ld	a3,8(sp)
   11170:	00d7073b          	addw	a4,a4,a3
   11174:	00e13423          	sd	a4,8(sp)
   11178:	f8079e63          	bnez	a5,10914 <_vfprintf_r+0x25c>
   1117c:	02013783          	ld	a5,32(sp)
   11180:	10012c23          	sw	zero,280(sp)
   11184:	00078863          	beqz	a5,11194 <_vfprintf_r+0xadc>
   11188:	02013583          	ld	a1,32(sp)
   1118c:	000b8513          	mv	a0,s7
   11190:	7d4020ef          	jal	ra,13964 <_free_r>
   11194:	000c0313          	mv	t1,s8
   11198:	00090d13          	mv	s10,s2
   1119c:	000d4783          	lbu	a5,0(s10)
   111a0:	e2079463          	bnez	a5,107c8 <_vfprintf_r+0x110>
   111a4:	12013783          	ld	a5,288(sp)
   111a8:	f8078a63          	beqz	a5,1093c <_vfprintf_r+0x284>
   111ac:	11010613          	addi	a2,sp,272
   111b0:	000b0593          	mv	a1,s6
   111b4:	000b8513          	mv	a0,s7
   111b8:	51c0a0ef          	jal	ra,1b6d4 <__sprint_r>
   111bc:	f80ff06f          	j	1093c <_vfprintf_r+0x284>
   111c0:	11010613          	addi	a2,sp,272
   111c4:	000b0593          	mv	a1,s6
   111c8:	000b8513          	mv	a0,s7
   111cc:	05d13023          	sd	t4,64(sp)
   111d0:	03f13c23          	sd	t6,56(sp)
   111d4:	01e13c23          	sd	t5,24(sp)
   111d8:	4fc0a0ef          	jal	ra,1b6d4 <__sprint_r>
   111dc:	f4051663          	bnez	a0,10928 <_vfprintf_r+0x270>
   111e0:	12013783          	ld	a5,288(sp)
   111e4:	000c0313          	mv	t1,s8
   111e8:	04013e83          	ld	t4,64(sp)
   111ec:	03813f83          	ld	t6,56(sp)
   111f0:	01813f03          	ld	t5,24(sp)
   111f4:	ee5ff06f          	j	110d8 <_vfprintf_r+0xa20>
   111f8:	11812603          	lw	a2,280(sp)
   111fc:	07813703          	ld	a4,120(sp)
   11200:	08013683          	ld	a3,128(sp)
   11204:	01030313          	addi	t1,t1,16
   11208:	00f707b3          	add	a5,a4,a5
   1120c:	fed33823          	sd	a3,-16(t1)
   11210:	0016069b          	addiw	a3,a2,1
   11214:	fee33c23          	sd	a4,-8(t1)
   11218:	12f13023          	sd	a5,288(sp)
   1121c:	10d12c23          	sw	a3,280(sp)
   11220:	00700613          	li	a2,7
   11224:	02d65463          	bge	a2,a3,1124c <_vfprintf_r+0xb94>
   11228:	11010613          	addi	a2,sp,272
   1122c:	000b0593          	mv	a1,s6
   11230:	000b8513          	mv	a0,s7
   11234:	4a00a0ef          	jal	ra,1b6d4 <__sprint_r>
   11238:	ee051863          	bnez	a0,10928 <_vfprintf_r+0x270>
   1123c:	0e812583          	lw	a1,232(sp)
   11240:	12013783          	ld	a5,288(sp)
   11244:	11812683          	lw	a3,280(sp)
   11248:	000c0313          	mv	t1,s8
   1124c:	0005d463          	bgez	a1,11254 <_vfprintf_r+0xb9c>
   11250:	7c80106f          	j	12a18 <_vfprintf_r+0x2360>
   11254:	02813703          	ld	a4,40(sp)
   11258:	0016861b          	addiw	a2,a3,1
   1125c:	01a33023          	sd	s10,0(t1)
   11260:	00f707b3          	add	a5,a4,a5
   11264:	00e33423          	sd	a4,8(t1)
   11268:	12f13023          	sd	a5,288(sp)
   1126c:	10c12c23          	sw	a2,280(sp)
   11270:	00700713          	li	a4,7
   11274:	ecc75ce3          	bge	a4,a2,1114c <_vfprintf_r+0xa94>
   11278:	11010613          	addi	a2,sp,272
   1127c:	000b0593          	mv	a1,s6
   11280:	000b8513          	mv	a0,s7
   11284:	4500a0ef          	jal	ra,1b6d4 <__sprint_r>
   11288:	ea051063          	bnez	a0,10928 <_vfprintf_r+0x270>
   1128c:	12013783          	ld	a5,288(sp)
   11290:	000c0313          	mv	t1,s8
   11294:	ebdff06f          	j	11150 <_vfprintf_r+0xa98>
   11298:	01013783          	ld	a5,16(sp)
   1129c:	00094483          	lbu	s1,0(s2)
   112a0:	0007aa03          	lw	s4,0(a5)
   112a4:	00878793          	addi	a5,a5,8
   112a8:	00f13823          	sd	a5,16(sp)
   112ac:	da0a5863          	bgez	s4,1085c <_vfprintf_r+0x1a4>
   112b0:	41400a3b          	negw	s4,s4
   112b4:	829ff06f          	j	10adc <_vfprintf_r+0x424>
   112b8:	000b8513          	mv	a0,s7
   112bc:	02613023          	sd	t1,32(sp)
   112c0:	01d13c23          	sd	t4,24(sp)
   112c4:	758050ef          	jal	ra,16a1c <_localeconv_r>
   112c8:	00853783          	ld	a5,8(a0)
   112cc:	00078513          	mv	a0,a5
   112d0:	08f13c23          	sd	a5,152(sp)
   112d4:	281070ef          	jal	ra,18d54 <strlen>
   112d8:	00050493          	mv	s1,a0
   112dc:	08a13423          	sd	a0,136(sp)
   112e0:	000b8513          	mv	a0,s7
   112e4:	738050ef          	jal	ra,16a1c <_localeconv_r>
   112e8:	01053703          	ld	a4,16(a0)
   112ec:	00048793          	mv	a5,s1
   112f0:	01813e83          	ld	t4,24(sp)
   112f4:	06e13823          	sd	a4,112(sp)
   112f8:	02013303          	ld	t1,32(sp)
   112fc:	00094483          	lbu	s1,0(s2)
   11300:	d4078e63          	beqz	a5,1085c <_vfprintf_r+0x1a4>
   11304:	d4070c63          	beqz	a4,1085c <_vfprintf_r+0x1a4>
   11308:	00074783          	lbu	a5,0(a4)
   1130c:	d4078863          	beqz	a5,1085c <_vfprintf_r+0x1a4>
   11310:	40046413          	ori	s0,s0,1024
   11314:	0004041b          	sext.w	s0,s0
   11318:	d44ff06f          	j	1085c <_vfprintf_r+0x1a4>
   1131c:	00146413          	ori	s0,s0,1
   11320:	0004041b          	sext.w	s0,s0
   11324:	00094483          	lbu	s1,0(s2)
   11328:	d34ff06f          	j	1085c <_vfprintf_r+0x1a4>
   1132c:	0df14783          	lbu	a5,223(sp)
   11330:	00094483          	lbu	s1,0(s2)
   11334:	d2079463          	bnez	a5,1085c <_vfprintf_r+0x1a4>
   11338:	02000793          	li	a5,32
   1133c:	0cf10fa3          	sb	a5,223(sp)
   11340:	d1cff06f          	j	1085c <_vfprintf_r+0x1a4>
   11344:	01013703          	ld	a4,16(sp)
   11348:	02047793          	andi	a5,s0,32
   1134c:	00870693          	addi	a3,a4,8
   11350:	1a0796e3          	bnez	a5,11cfc <_vfprintf_r+0x1644>
   11354:	01047793          	andi	a5,s0,16
   11358:	1a0792e3          	bnez	a5,11cfc <_vfprintf_r+0x1644>
   1135c:	01013783          	ld	a5,16(sp)
   11360:	04047713          	andi	a4,s0,64
   11364:	0007a783          	lw	a5,0(a5)
   11368:	540704e3          	beqz	a4,120b0 <_vfprintf_r+0x19f8>
   1136c:	03079a93          	slli	s5,a5,0x30
   11370:	030ada93          	srli	s5,s5,0x30
   11374:	00d13823          	sd	a3,16(sp)
   11378:	00040813          	mv	a6,s0
   1137c:	00100713          	li	a4,1
   11380:	e5cff06f          	j	109dc <_vfprintf_r+0x324>
   11384:	02046413          	ori	s0,s0,32
   11388:	0004041b          	sext.w	s0,s0
   1138c:	00094483          	lbu	s1,0(s2)
   11390:	cccff06f          	j	1085c <_vfprintf_r+0x1a4>
   11394:	01013783          	ld	a5,16(sp)
   11398:	ffff8737          	lui	a4,0xffff8
   1139c:	83074713          	xori	a4,a4,-2000
   113a0:	0007ba83          	ld	s5,0(a5)
   113a4:	00878793          	addi	a5,a5,8
   113a8:	00246813          	ori	a6,s0,2
   113ac:	00f13823          	sd	a5,16(sp)
   113b0:	00011797          	auipc	a5,0x11
   113b4:	be078793          	addi	a5,a5,-1056 # 21f90 <zeroes.4541+0x60>
   113b8:	0ee11023          	sh	a4,224(sp)
   113bc:	0008081b          	sext.w	a6,a6
   113c0:	02f13823          	sd	a5,48(sp)
   113c4:	00200713          	li	a4,2
   113c8:	07800493          	li	s1,120
   113cc:	e10ff06f          	j	109dc <_vfprintf_r+0x324>
   113d0:	01013703          	ld	a4,16(sp)
   113d4:	02047793          	andi	a5,s0,32
   113d8:	00870713          	addi	a4,a4,8 # ffffffffffff8008 <__BSS_END__+0xfffffffffffd33e8>
   113dc:	ac0798e3          	bnez	a5,10eac <_vfprintf_r+0x7f4>
   113e0:	01047793          	andi	a5,s0,16
   113e4:	ac0794e3          	bnez	a5,10eac <_vfprintf_r+0x7f4>
   113e8:	01013783          	ld	a5,16(sp)
   113ec:	04047693          	andi	a3,s0,64
   113f0:	0007a783          	lw	a5,0(a5)
   113f4:	4c068ce3          	beqz	a3,120cc <_vfprintf_r+0x1a14>
   113f8:	03079a93          	slli	s5,a5,0x30
   113fc:	030ada93          	srli	s5,s5,0x30
   11400:	00e13823          	sd	a4,16(sp)
   11404:	ab5ff06f          	j	10eb8 <_vfprintf_r+0x800>
   11408:	01013683          	ld	a3,16(sp)
   1140c:	02047793          	andi	a5,s0,32
   11410:	0006b703          	ld	a4,0(a3)
   11414:	00868693          	addi	a3,a3,8
   11418:	00d13823          	sd	a3,16(sp)
   1141c:	08079ae3          	bnez	a5,11cb0 <_vfprintf_r+0x15f8>
   11420:	01047793          	andi	a5,s0,16
   11424:	080796e3          	bnez	a5,11cb0 <_vfprintf_r+0x15f8>
   11428:	04047793          	andi	a5,s0,64
   1142c:	00078463          	beqz	a5,11434 <_vfprintf_r+0xd7c>
   11430:	0340106f          	j	12464 <_vfprintf_r+0x1dac>
   11434:	20047413          	andi	s0,s0,512
   11438:	00813783          	ld	a5,8(sp)
   1143c:	00041463          	bnez	s0,11444 <_vfprintf_r+0xd8c>
   11440:	7740106f          	j	12bb4 <_vfprintf_r+0x24fc>
   11444:	00f70023          	sb	a5,0(a4)
   11448:	00090d13          	mv	s10,s2
   1144c:	d51ff06f          	j	1119c <_vfprintf_r+0xae4>
   11450:	00094483          	lbu	s1,0(s2)
   11454:	06c00793          	li	a5,108
   11458:	14f482e3          	beq	s1,a5,11d9c <_vfprintf_r+0x16e4>
   1145c:	01046413          	ori	s0,s0,16
   11460:	0004041b          	sext.w	s0,s0
   11464:	bf8ff06f          	j	1085c <_vfprintf_r+0x1a4>
   11468:	000b8513          	mv	a0,s7
   1146c:	378020ef          	jal	ra,137e4 <__sinit>
   11470:	abcff06f          	j	1072c <_vfprintf_r+0x74>
   11474:	00040813          	mv	a6,s0
   11478:	00900713          	li	a4,9
   1147c:	2b5768e3          	bltu	a4,s5,11f2c <_vfprintf_r+0x1874>
   11480:	030a879b          	addiw	a5,s5,48
   11484:	18f105a3          	sb	a5,395(sp)
   11488:	00080413          	mv	s0,a6
   1148c:	00100c93          	li	s9,1
   11490:	18b10d13          	addi	s10,sp,395
   11494:	d7cff06f          	j	10a10 <_vfprintf_r+0x358>
   11498:	0ff00793          	li	a5,255
   1149c:	2ef688e3          	beq	a3,a5,11f8c <_vfprintf_r+0x18d4>
   114a0:	00900793          	li	a5,9
   114a4:	7357e0e3          	bltu	a5,s5,123c4 <_vfprintf_r+0x1d0c>
   114a8:	41ac8cbb          	subw	s9,s9,s10
   114ac:	00080413          	mv	s0,a6
   114b0:	d60ff06f          	j	10a10 <_vfprintf_r+0x358>
   114b4:	06500693          	li	a3,101
   114b8:	2896dc63          	bge	a3,s1,11750 <_vfprintf_r+0x1098>
   114bc:	10013503          	ld	a0,256(sp)
   114c0:	10813583          	ld	a1,264(sp)
   114c4:	00000613          	li	a2,0
   114c8:	00000693          	li	a3,0
   114cc:	02f13c23          	sd	a5,56(sp)
   114d0:	00613c23          	sd	t1,24(sp)
   114d4:	28d0e0ef          	jal	ra,1ff60 <__eqtf2>
   114d8:	01813303          	ld	t1,24(sp)
   114dc:	03813783          	ld	a5,56(sp)
   114e0:	5a051c63          	bnez	a0,11a98 <_vfprintf_r+0x13e0>
   114e4:	11812703          	lw	a4,280(sp)
   114e8:	00011697          	auipc	a3,0x11
   114ec:	ae068693          	addi	a3,a3,-1312 # 21fc8 <zeroes.4541+0x98>
   114f0:	00178793          	addi	a5,a5,1
   114f4:	0017071b          	addiw	a4,a4,1
   114f8:	00d33023          	sd	a3,0(t1)
   114fc:	00100693          	li	a3,1
   11500:	00d33423          	sd	a3,8(t1)
   11504:	12f13023          	sd	a5,288(sp)
   11508:	0007069b          	sext.w	a3,a4
   1150c:	10e12c23          	sw	a4,280(sp)
   11510:	00700793          	li	a5,7
   11514:	01030313          	addi	t1,t1,16
   11518:	1ed7cae3          	blt	a5,a3,11f0c <_vfprintf_r+0x1854>
   1151c:	0e812783          	lw	a5,232(sp)
   11520:	02813703          	ld	a4,40(sp)
   11524:	00e7ca63          	blt	a5,a4,11538 <_vfprintf_r+0xe80>
   11528:	00147793          	andi	a5,s0,1
   1152c:	00079663          	bnez	a5,11538 <_vfprintf_r+0xe80>
   11530:	12013783          	ld	a5,288(sp)
   11534:	c1dff06f          	j	11150 <_vfprintf_r+0xa98>
   11538:	08013783          	ld	a5,128(sp)
   1153c:	07813683          	ld	a3,120(sp)
   11540:	11812703          	lw	a4,280(sp)
   11544:	00f33023          	sd	a5,0(t1)
   11548:	12013783          	ld	a5,288(sp)
   1154c:	0017071b          	addiw	a4,a4,1
   11550:	00d33423          	sd	a3,8(t1)
   11554:	00f687b3          	add	a5,a3,a5
   11558:	10e12c23          	sw	a4,280(sp)
   1155c:	0007069b          	sext.w	a3,a4
   11560:	12f13023          	sd	a5,288(sp)
   11564:	00700713          	li	a4,7
   11568:	01030313          	addi	t1,t1,16
   1156c:	00d746e3          	blt	a4,a3,11d78 <_vfprintf_r+0x16c0>
   11570:	02813703          	ld	a4,40(sp)
   11574:	fff7049b          	addiw	s1,a4,-1
   11578:	bc905ce3          	blez	s1,11150 <_vfprintf_r+0xa98>
   1157c:	11812703          	lw	a4,280(sp)
   11580:	249dd0e3          	bge	s11,s1,11fc0 <_vfprintf_r+0x1908>
   11584:	00700c93          	li	s9,7
   11588:	00c0006f          	j	11594 <_vfprintf_r+0xedc>
   1158c:	ff04849b          	addiw	s1,s1,-16
   11590:	229dd8e3          	bge	s11,s1,11fc0 <_vfprintf_r+0x1908>
   11594:	0017071b          	addiw	a4,a4,1
   11598:	01078793          	addi	a5,a5,16
   1159c:	01333023          	sd	s3,0(t1)
   115a0:	01b33423          	sd	s11,8(t1)
   115a4:	12f13023          	sd	a5,288(sp)
   115a8:	10e12c23          	sw	a4,280(sp)
   115ac:	01030313          	addi	t1,t1,16
   115b0:	fcecdee3          	bge	s9,a4,1158c <_vfprintf_r+0xed4>
   115b4:	11010613          	addi	a2,sp,272
   115b8:	000b0593          	mv	a1,s6
   115bc:	000b8513          	mv	a0,s7
   115c0:	1140a0ef          	jal	ra,1b6d4 <__sprint_r>
   115c4:	b6051263          	bnez	a0,10928 <_vfprintf_r+0x270>
   115c8:	12013783          	ld	a5,288(sp)
   115cc:	11812703          	lw	a4,280(sp)
   115d0:	000c0313          	mv	t1,s8
   115d4:	fb9ff06f          	j	1158c <_vfprintf_r+0xed4>
   115d8:	415a083b          	subw	a6,s4,s5
   115dc:	b3005ee3          	blez	a6,11118 <_vfprintf_r+0xa60>
   115e0:	11812683          	lw	a3,280(sp)
   115e4:	070dd863          	bge	s11,a6,11654 <_vfprintf_r+0xf9c>
   115e8:	00700893          	li	a7,7
   115ec:	00c0006f          	j	115f8 <_vfprintf_r+0xf40>
   115f0:	ff08081b          	addiw	a6,a6,-16
   115f4:	070dd063          	bge	s11,a6,11654 <_vfprintf_r+0xf9c>
   115f8:	0016869b          	addiw	a3,a3,1
   115fc:	01078793          	addi	a5,a5,16
   11600:	01333023          	sd	s3,0(t1)
   11604:	01b33423          	sd	s11,8(t1)
   11608:	12f13023          	sd	a5,288(sp)
   1160c:	10d12c23          	sw	a3,280(sp)
   11610:	01030313          	addi	t1,t1,16
   11614:	fcd8dee3          	bge	a7,a3,115f0 <_vfprintf_r+0xf38>
   11618:	11010613          	addi	a2,sp,272
   1161c:	000b0593          	mv	a1,s6
   11620:	000b8513          	mv	a0,s7
   11624:	03013c23          	sd	a6,56(sp)
   11628:	01d13c23          	sd	t4,24(sp)
   1162c:	0a80a0ef          	jal	ra,1b6d4 <__sprint_r>
   11630:	ae051c63          	bnez	a0,10928 <_vfprintf_r+0x270>
   11634:	03813803          	ld	a6,56(sp)
   11638:	12013783          	ld	a5,288(sp)
   1163c:	11812683          	lw	a3,280(sp)
   11640:	ff08081b          	addiw	a6,a6,-16
   11644:	000c0313          	mv	t1,s8
   11648:	00700893          	li	a7,7
   1164c:	01813e83          	ld	t4,24(sp)
   11650:	fb0dc4e3          	blt	s11,a6,115f8 <_vfprintf_r+0xf40>
   11654:	0016861b          	addiw	a2,a3,1
   11658:	010787b3          	add	a5,a5,a6
   1165c:	01333023          	sd	s3,0(t1)
   11660:	01033423          	sd	a6,8(t1)
   11664:	12f13023          	sd	a5,288(sp)
   11668:	10c12c23          	sw	a2,280(sp)
   1166c:	00700693          	li	a3,7
   11670:	01030313          	addi	t1,t1,16
   11674:	aac6d2e3          	bge	a3,a2,11118 <_vfprintf_r+0xa60>
   11678:	11010613          	addi	a2,sp,272
   1167c:	000b0593          	mv	a1,s6
   11680:	000b8513          	mv	a0,s7
   11684:	01d13c23          	sd	t4,24(sp)
   11688:	04c0a0ef          	jal	ra,1b6d4 <__sprint_r>
   1168c:	a8051e63          	bnez	a0,10928 <_vfprintf_r+0x270>
   11690:	12013783          	ld	a5,288(sp)
   11694:	000c0313          	mv	t1,s8
   11698:	01813e83          	ld	t4,24(sp)
   1169c:	a7dff06f          	j	11118 <_vfprintf_r+0xa60>
   116a0:	11812683          	lw	a3,280(sp)
   116a4:	07ddd463          	bge	s11,t4,1170c <_vfprintf_r+0x1054>
   116a8:	00700813          	li	a6,7
   116ac:	00c0006f          	j	116b8 <_vfprintf_r+0x1000>
   116b0:	ff0e8e9b          	addiw	t4,t4,-16
   116b4:	05dddc63          	bge	s11,t4,1170c <_vfprintf_r+0x1054>
   116b8:	0016869b          	addiw	a3,a3,1
   116bc:	01078793          	addi	a5,a5,16
   116c0:	01333023          	sd	s3,0(t1)
   116c4:	01b33423          	sd	s11,8(t1)
   116c8:	12f13023          	sd	a5,288(sp)
   116cc:	10d12c23          	sw	a3,280(sp)
   116d0:	01030313          	addi	t1,t1,16
   116d4:	fcd85ee3          	bge	a6,a3,116b0 <_vfprintf_r+0xff8>
   116d8:	11010613          	addi	a2,sp,272
   116dc:	000b0593          	mv	a1,s6
   116e0:	000b8513          	mv	a0,s7
   116e4:	01d13c23          	sd	t4,24(sp)
   116e8:	7ed090ef          	jal	ra,1b6d4 <__sprint_r>
   116ec:	a2051e63          	bnez	a0,10928 <_vfprintf_r+0x270>
   116f0:	01813e83          	ld	t4,24(sp)
   116f4:	12013783          	ld	a5,288(sp)
   116f8:	11812683          	lw	a3,280(sp)
   116fc:	ff0e8e9b          	addiw	t4,t4,-16
   11700:	000c0313          	mv	t1,s8
   11704:	00700813          	li	a6,7
   11708:	fbddc8e3          	blt	s11,t4,116b8 <_vfprintf_r+0x1000>
   1170c:	0016861b          	addiw	a2,a3,1
   11710:	01d787b3          	add	a5,a5,t4
   11714:	01333023          	sd	s3,0(t1)
   11718:	01d33423          	sd	t4,8(t1)
   1171c:	12f13023          	sd	a5,288(sp)
   11720:	10c12c23          	sw	a2,280(sp)
   11724:	00700693          	li	a3,7
   11728:	01030313          	addi	t1,t1,16
   1172c:	9ec6dae3          	bge	a3,a2,11120 <_vfprintf_r+0xa68>
   11730:	11010613          	addi	a2,sp,272
   11734:	000b0593          	mv	a1,s6
   11738:	000b8513          	mv	a0,s7
   1173c:	799090ef          	jal	ra,1b6d4 <__sprint_r>
   11740:	9e051463          	bnez	a0,10928 <_vfprintf_r+0x270>
   11744:	12013783          	ld	a5,288(sp)
   11748:	000c0313          	mv	t1,s8
   1174c:	9d5ff06f          	j	11120 <_vfprintf_r+0xa68>
   11750:	11812e83          	lw	t4,280(sp)
   11754:	02813703          	ld	a4,40(sp)
   11758:	00178c93          	addi	s9,a5,1
   1175c:	00100613          	li	a2,1
   11760:	001e879b          	addiw	a5,t4,1
   11764:	01a33023          	sd	s10,0(t1)
   11768:	00078693          	mv	a3,a5
   1176c:	01030493          	addi	s1,t1,16
   11770:	48e65c63          	bge	a2,a4,11c08 <_vfprintf_r+0x1550>
   11774:	00100613          	li	a2,1
   11778:	10d12c23          	sw	a3,280(sp)
   1177c:	00c33423          	sd	a2,8(t1)
   11780:	13913023          	sd	s9,288(sp)
   11784:	00700693          	li	a3,7
   11788:	6af6ca63          	blt	a3,a5,11e3c <_vfprintf_r+0x1784>
   1178c:	0017869b          	addiw	a3,a5,1
   11790:	07813783          	ld	a5,120(sp)
   11794:	08013703          	ld	a4,128(sp)
   11798:	10d12c23          	sw	a3,280(sp)
   1179c:	00fc8cb3          	add	s9,s9,a5
   117a0:	00f4b423          	sd	a5,8(s1)
   117a4:	00e4b023          	sd	a4,0(s1)
   117a8:	0006879b          	sext.w	a5,a3
   117ac:	13913023          	sd	s9,288(sp)
   117b0:	00700693          	li	a3,7
   117b4:	01048493          	addi	s1,s1,16
   117b8:	6af6c663          	blt	a3,a5,11e64 <_vfprintf_r+0x17ac>
   117bc:	0017889b          	addiw	a7,a5,1
   117c0:	04f13823          	sd	a5,80(sp)
   117c4:	02813783          	ld	a5,40(sp)
   117c8:	10013503          	ld	a0,256(sp)
   117cc:	10813583          	ld	a1,264(sp)
   117d0:	00088e9b          	sext.w	t4,a7
   117d4:	01048313          	addi	t1,s1,16
   117d8:	fff7881b          	addiw	a6,a5,-1
   117dc:	00000613          	li	a2,0
   117e0:	00000693          	li	a3,0
   117e4:	05113423          	sd	a7,72(sp)
   117e8:	05d13023          	sd	t4,64(sp)
   117ec:	02613c23          	sd	t1,56(sp)
   117f0:	01013c23          	sd	a6,24(sp)
   117f4:	76c0e0ef          	jal	ra,1ff60 <__eqtf2>
   117f8:	01813803          	ld	a6,24(sp)
   117fc:	03813303          	ld	t1,56(sp)
   11800:	04013e83          	ld	t4,64(sp)
   11804:	04813883          	ld	a7,72(sp)
   11808:	42050463          	beqz	a0,11c30 <_vfprintf_r+0x1578>
   1180c:	001d0713          	addi	a4,s10,1
   11810:	010c8cb3          	add	s9,s9,a6
   11814:	00e4b023          	sd	a4,0(s1)
   11818:	0104b423          	sd	a6,8(s1)
   1181c:	13913023          	sd	s9,288(sp)
   11820:	11112c23          	sw	a7,280(sp)
   11824:	00700713          	li	a4,7
   11828:	51d74663          	blt	a4,t4,11d34 <_vfprintf_r+0x167c>
   1182c:	05013783          	ld	a5,80(sp)
   11830:	02048713          	addi	a4,s1,32
   11834:	00030493          	mv	s1,t1
   11838:	00278e9b          	addiw	t4,a5,2
   1183c:	00070313          	mv	t1,a4
   11840:	09013683          	ld	a3,144(sp)
   11844:	0f010713          	addi	a4,sp,240
   11848:	00e4b023          	sd	a4,0(s1)
   1184c:	00dc87b3          	add	a5,s9,a3
   11850:	00d4b423          	sd	a3,8(s1)
   11854:	12f13023          	sd	a5,288(sp)
   11858:	11d12c23          	sw	t4,280(sp)
   1185c:	00700713          	li	a4,7
   11860:	8fd758e3          	bge	a4,t4,11150 <_vfprintf_r+0xa98>
   11864:	a15ff06f          	j	11278 <_vfprintf_r+0xbc0>
   11868:	00040813          	mv	a6,s0
   1186c:	f74ff06f          	j	10fe0 <_vfprintf_r+0x928>
   11870:	11812683          	lw	a3,280(sp)
   11874:	00010897          	auipc	a7,0x10
   11878:	6ac88893          	addi	a7,a7,1708 # 21f20 <blanks.4540>
   1187c:	00700293          	li	t0,7
   11880:	010dc863          	blt	s11,a6,11890 <_vfprintf_r+0x11d8>
   11884:	0840006f          	j	11908 <_vfprintf_r+0x1250>
   11888:	ff08081b          	addiw	a6,a6,-16
   1188c:	070dde63          	bge	s11,a6,11908 <_vfprintf_r+0x1250>
   11890:	0016869b          	addiw	a3,a3,1
   11894:	01078793          	addi	a5,a5,16
   11898:	01133023          	sd	a7,0(t1)
   1189c:	01b33423          	sd	s11,8(t1)
   118a0:	12f13023          	sd	a5,288(sp)
   118a4:	10d12c23          	sw	a3,280(sp)
   118a8:	01030313          	addi	t1,t1,16
   118ac:	fcd2dee3          	bge	t0,a3,11888 <_vfprintf_r+0x11d0>
   118b0:	11010613          	addi	a2,sp,272
   118b4:	000b0593          	mv	a1,s6
   118b8:	000b8513          	mv	a0,s7
   118bc:	05113823          	sd	a7,80(sp)
   118c0:	05013423          	sd	a6,72(sp)
   118c4:	05d13023          	sd	t4,64(sp)
   118c8:	03f13c23          	sd	t6,56(sp)
   118cc:	01e13c23          	sd	t5,24(sp)
   118d0:	605090ef          	jal	ra,1b6d4 <__sprint_r>
   118d4:	00050463          	beqz	a0,118dc <_vfprintf_r+0x1224>
   118d8:	850ff06f          	j	10928 <_vfprintf_r+0x270>
   118dc:	04813803          	ld	a6,72(sp)
   118e0:	12013783          	ld	a5,288(sp)
   118e4:	11812683          	lw	a3,280(sp)
   118e8:	ff08081b          	addiw	a6,a6,-16
   118ec:	000c0313          	mv	t1,s8
   118f0:	05013883          	ld	a7,80(sp)
   118f4:	00700293          	li	t0,7
   118f8:	04013e83          	ld	t4,64(sp)
   118fc:	03813f83          	ld	t6,56(sp)
   11900:	01813f03          	ld	t5,24(sp)
   11904:	f90dc6e3          	blt	s11,a6,11890 <_vfprintf_r+0x11d8>
   11908:	0016861b          	addiw	a2,a3,1
   1190c:	010787b3          	add	a5,a5,a6
   11910:	01133023          	sd	a7,0(t1)
   11914:	01033423          	sd	a6,8(t1)
   11918:	12f13023          	sd	a5,288(sp)
   1191c:	10c12c23          	sw	a2,280(sp)
   11920:	00700693          	li	a3,7
   11924:	01030313          	addi	t1,t1,16
   11928:	f6c6da63          	bge	a3,a2,1109c <_vfprintf_r+0x9e4>
   1192c:	11010613          	addi	a2,sp,272
   11930:	000b0593          	mv	a1,s6
   11934:	000b8513          	mv	a0,s7
   11938:	05d13023          	sd	t4,64(sp)
   1193c:	03f13c23          	sd	t6,56(sp)
   11940:	01e13c23          	sd	t5,24(sp)
   11944:	591090ef          	jal	ra,1b6d4 <__sprint_r>
   11948:	00050463          	beqz	a0,11950 <_vfprintf_r+0x1298>
   1194c:	fddfe06f          	j	10928 <_vfprintf_r+0x270>
   11950:	12013783          	ld	a5,288(sp)
   11954:	000c0313          	mv	t1,s8
   11958:	04013e83          	ld	t4,64(sp)
   1195c:	03813f83          	ld	t6,56(sp)
   11960:	01813f03          	ld	t5,24(sp)
   11964:	f38ff06f          	j	1109c <_vfprintf_r+0x9e4>
   11968:	11010613          	addi	a2,sp,272
   1196c:	000b0593          	mv	a1,s6
   11970:	000b8513          	mv	a0,s7
   11974:	03d13c23          	sd	t4,56(sp)
   11978:	01f13c23          	sd	t6,24(sp)
   1197c:	559090ef          	jal	ra,1b6d4 <__sprint_r>
   11980:	00050463          	beqz	a0,11988 <_vfprintf_r+0x12d0>
   11984:	fa5fe06f          	j	10928 <_vfprintf_r+0x270>
   11988:	12013783          	ld	a5,288(sp)
   1198c:	000c0313          	mv	t1,s8
   11990:	03813e83          	ld	t4,56(sp)
   11994:	01813f83          	ld	t6,24(sp)
   11998:	f78ff06f          	j	11110 <_vfprintf_r+0xa58>
   1199c:	11812703          	lw	a4,280(sp)
   119a0:	00010897          	auipc	a7,0x10
   119a4:	58088893          	addi	a7,a7,1408 # 21f20 <blanks.4540>
   119a8:	00700493          	li	s1,7
   119ac:	008dc863          	blt	s11,s0,119bc <_vfprintf_r+0x1304>
   119b0:	0600006f          	j	11a10 <_vfprintf_r+0x1358>
   119b4:	ff04041b          	addiw	s0,s0,-16
   119b8:	048ddc63          	bge	s11,s0,11a10 <_vfprintf_r+0x1358>
   119bc:	0017071b          	addiw	a4,a4,1
   119c0:	01078793          	addi	a5,a5,16
   119c4:	01133023          	sd	a7,0(t1)
   119c8:	01b33423          	sd	s11,8(t1)
   119cc:	12f13023          	sd	a5,288(sp)
   119d0:	10e12c23          	sw	a4,280(sp)
   119d4:	01030313          	addi	t1,t1,16
   119d8:	fce4dee3          	bge	s1,a4,119b4 <_vfprintf_r+0x12fc>
   119dc:	11010613          	addi	a2,sp,272
   119e0:	000b0593          	mv	a1,s6
   119e4:	000b8513          	mv	a0,s7
   119e8:	01113c23          	sd	a7,24(sp)
   119ec:	4e9090ef          	jal	ra,1b6d4 <__sprint_r>
   119f0:	00050463          	beqz	a0,119f8 <_vfprintf_r+0x1340>
   119f4:	f35fe06f          	j	10928 <_vfprintf_r+0x270>
   119f8:	ff04041b          	addiw	s0,s0,-16
   119fc:	12013783          	ld	a5,288(sp)
   11a00:	11812703          	lw	a4,280(sp)
   11a04:	000c0313          	mv	t1,s8
   11a08:	01813883          	ld	a7,24(sp)
   11a0c:	fa8dc8e3          	blt	s11,s0,119bc <_vfprintf_r+0x1304>
   11a10:	0017069b          	addiw	a3,a4,1
   11a14:	008787b3          	add	a5,a5,s0
   11a18:	01133023          	sd	a7,0(t1)
   11a1c:	00833423          	sd	s0,8(t1)
   11a20:	12f13023          	sd	a5,288(sp)
   11a24:	10d12c23          	sw	a3,280(sp)
   11a28:	00700713          	li	a4,7
   11a2c:	f2d75a63          	bge	a4,a3,11160 <_vfprintf_r+0xaa8>
   11a30:	11010613          	addi	a2,sp,272
   11a34:	000b0593          	mv	a1,s6
   11a38:	000b8513          	mv	a0,s7
   11a3c:	499090ef          	jal	ra,1b6d4 <__sprint_r>
   11a40:	00050463          	beqz	a0,11a48 <_vfprintf_r+0x1390>
   11a44:	ee5fe06f          	j	10928 <_vfprintf_r+0x270>
   11a48:	12013783          	ld	a5,288(sp)
   11a4c:	f14ff06f          	j	11160 <_vfprintf_r+0xaa8>
   11a50:	00100693          	li	a3,1
   11a54:	4cd706e3          	beq	a4,a3,12720 <_vfprintf_r+0x2068>
   11a58:	00200693          	li	a3,2
   11a5c:	00040813          	mv	a6,s0
   11a60:	d8d71863          	bne	a4,a3,10ff0 <_vfprintf_r+0x938>
   11a64:	18c10c93          	addi	s9,sp,396
   11a68:	000c8d13          	mv	s10,s9
   11a6c:	03013783          	ld	a5,48(sp)
   11a70:	00faf693          	andi	a3,s5,15
   11a74:	fffd0d13          	addi	s10,s10,-1
   11a78:	00d786b3          	add	a3,a5,a3
   11a7c:	0006c683          	lbu	a3,0(a3)
   11a80:	004ada93          	srli	s5,s5,0x4
   11a84:	00dd0023          	sb	a3,0(s10)
   11a88:	fe0a92e3          	bnez	s5,11a6c <_vfprintf_r+0x13b4>
   11a8c:	41ac8cbb          	subw	s9,s9,s10
   11a90:	00080413          	mv	s0,a6
   11a94:	f7dfe06f          	j	10a10 <_vfprintf_r+0x358>
   11a98:	0e812583          	lw	a1,232(sp)
   11a9c:	3eb05863          	blez	a1,11e8c <_vfprintf_r+0x17d4>
   11aa0:	02813703          	ld	a4,40(sp)
   11aa4:	06013683          	ld	a3,96(sp)
   11aa8:	0007049b          	sext.w	s1,a4
   11aac:	24e6cc63          	blt	a3,a4,11d04 <_vfprintf_r+0x164c>
   11ab0:	02905663          	blez	s1,11adc <_vfprintf_r+0x1424>
   11ab4:	11812683          	lw	a3,280(sp)
   11ab8:	009787b3          	add	a5,a5,s1
   11abc:	01a33023          	sd	s10,0(t1)
   11ac0:	0016861b          	addiw	a2,a3,1
   11ac4:	00933423          	sd	s1,8(t1)
   11ac8:	12f13023          	sd	a5,288(sp)
   11acc:	10c12c23          	sw	a2,280(sp)
   11ad0:	00700693          	li	a3,7
   11ad4:	01030313          	addi	t1,t1,16
   11ad8:	0cc6c4e3          	blt	a3,a2,123a0 <_vfprintf_r+0x1ce8>
   11adc:	fff4c693          	not	a3,s1
   11ae0:	06013703          	ld	a4,96(sp)
   11ae4:	43f6d693          	srai	a3,a3,0x3f
   11ae8:	00d4f4b3          	and	s1,s1,a3
   11aec:	409704bb          	subw	s1,a4,s1
   11af0:	2e904263          	bgtz	s1,11dd4 <_vfprintf_r+0x171c>
   11af4:	06013703          	ld	a4,96(sp)
   11af8:	40047693          	andi	a3,s0,1024
   11afc:	00ed04b3          	add	s1,s10,a4
   11b00:	66069a63          	bnez	a3,12174 <_vfprintf_r+0x1abc>
   11b04:	0e812683          	lw	a3,232(sp)
   11b08:	02813703          	ld	a4,40(sp)
   11b0c:	00e6c663          	blt	a3,a4,11b18 <_vfprintf_r+0x1460>
   11b10:	00147613          	andi	a2,s0,1
   11b14:	10060ae3          	beqz	a2,12428 <_vfprintf_r+0x1d70>
   11b18:	08013603          	ld	a2,128(sp)
   11b1c:	07813703          	ld	a4,120(sp)
   11b20:	01030313          	addi	t1,t1,16
   11b24:	fec33823          	sd	a2,-16(t1)
   11b28:	11812603          	lw	a2,280(sp)
   11b2c:	00e787b3          	add	a5,a5,a4
   11b30:	fee33c23          	sd	a4,-8(t1)
   11b34:	0016059b          	addiw	a1,a2,1
   11b38:	12f13023          	sd	a5,288(sp)
   11b3c:	10b12c23          	sw	a1,280(sp)
   11b40:	00700613          	li	a2,7
   11b44:	5cb64ae3          	blt	a2,a1,12918 <_vfprintf_r+0x2260>
   11b48:	02813703          	ld	a4,40(sp)
   11b4c:	40d7063b          	subw	a2,a4,a3
   11b50:	00ed0733          	add	a4,s10,a4
   11b54:	4097073b          	subw	a4,a4,s1
   11b58:	00060693          	mv	a3,a2
   11b5c:	00c75463          	bge	a4,a2,11b64 <_vfprintf_r+0x14ac>
   11b60:	00070693          	mv	a3,a4
   11b64:	00068c9b          	sext.w	s9,a3
   11b68:	03905663          	blez	s9,11b94 <_vfprintf_r+0x14dc>
   11b6c:	11812703          	lw	a4,280(sp)
   11b70:	019787b3          	add	a5,a5,s9
   11b74:	00933023          	sd	s1,0(t1)
   11b78:	0017069b          	addiw	a3,a4,1
   11b7c:	01933423          	sd	s9,8(t1)
   11b80:	12f13023          	sd	a5,288(sp)
   11b84:	10d12c23          	sw	a3,280(sp)
   11b88:	00700713          	li	a4,7
   11b8c:	01030313          	addi	t1,t1,16
   11b90:	5cd74ee3          	blt	a4,a3,1296c <_vfprintf_r+0x22b4>
   11b94:	fffcc493          	not	s1,s9
   11b98:	43f4d493          	srai	s1,s1,0x3f
   11b9c:	009cf4b3          	and	s1,s9,s1
   11ba0:	409604bb          	subw	s1,a2,s1
   11ba4:	da905663          	blez	s1,11150 <_vfprintf_r+0xa98>
   11ba8:	11812703          	lw	a4,280(sp)
   11bac:	409dda63          	bge	s11,s1,11fc0 <_vfprintf_r+0x1908>
   11bb0:	00700c93          	li	s9,7
   11bb4:	00c0006f          	j	11bc0 <_vfprintf_r+0x1508>
   11bb8:	ff04849b          	addiw	s1,s1,-16
   11bbc:	409dd263          	bge	s11,s1,11fc0 <_vfprintf_r+0x1908>
   11bc0:	0017071b          	addiw	a4,a4,1
   11bc4:	01078793          	addi	a5,a5,16
   11bc8:	01333023          	sd	s3,0(t1)
   11bcc:	01b33423          	sd	s11,8(t1)
   11bd0:	12f13023          	sd	a5,288(sp)
   11bd4:	10e12c23          	sw	a4,280(sp)
   11bd8:	01030313          	addi	t1,t1,16
   11bdc:	fcecdee3          	bge	s9,a4,11bb8 <_vfprintf_r+0x1500>
   11be0:	11010613          	addi	a2,sp,272
   11be4:	000b0593          	mv	a1,s6
   11be8:	000b8513          	mv	a0,s7
   11bec:	2e9090ef          	jal	ra,1b6d4 <__sprint_r>
   11bf0:	00050463          	beqz	a0,11bf8 <_vfprintf_r+0x1540>
   11bf4:	d35fe06f          	j	10928 <_vfprintf_r+0x270>
   11bf8:	12013783          	ld	a5,288(sp)
   11bfc:	11812703          	lw	a4,280(sp)
   11c00:	000c0313          	mv	t1,s8
   11c04:	fb5ff06f          	j	11bb8 <_vfprintf_r+0x1500>
   11c08:	00147593          	andi	a1,s0,1
   11c0c:	b60594e3          	bnez	a1,11774 <_vfprintf_r+0x10bc>
   11c10:	00c33423          	sd	a2,8(t1)
   11c14:	13913023          	sd	s9,288(sp)
   11c18:	10f12c23          	sw	a5,280(sp)
   11c1c:	00700713          	li	a4,7
   11c20:	10f74a63          	blt	a4,a5,11d34 <_vfprintf_r+0x167c>
   11c24:	002e8e9b          	addiw	t4,t4,2
   11c28:	02030313          	addi	t1,t1,32
   11c2c:	c15ff06f          	j	11840 <_vfprintf_r+0x1188>
   11c30:	c10058e3          	blez	a6,11840 <_vfprintf_r+0x1188>
   11c34:	010dc463          	blt	s11,a6,11c3c <_vfprintf_r+0x1584>
   11c38:	1440106f          	j	12d7c <_vfprintf_r+0x26c4>
   11c3c:	00700d13          	li	s10,7
   11c40:	0100006f          	j	11c50 <_vfprintf_r+0x1598>
   11c44:	ff08081b          	addiw	a6,a6,-16
   11c48:	0d0dd463          	bge	s11,a6,11d10 <_vfprintf_r+0x1658>
   11c4c:	0017889b          	addiw	a7,a5,1
   11c50:	010c8c93          	addi	s9,s9,16
   11c54:	0134b023          	sd	s3,0(s1)
   11c58:	01b4b423          	sd	s11,8(s1)
   11c5c:	13913023          	sd	s9,288(sp)
   11c60:	0008879b          	sext.w	a5,a7
   11c64:	11112c23          	sw	a7,280(sp)
   11c68:	01048493          	addi	s1,s1,16
   11c6c:	fcfd5ce3          	bge	s10,a5,11c44 <_vfprintf_r+0x158c>
   11c70:	11010613          	addi	a2,sp,272
   11c74:	000b0593          	mv	a1,s6
   11c78:	000b8513          	mv	a0,s7
   11c7c:	01013c23          	sd	a6,24(sp)
   11c80:	255090ef          	jal	ra,1b6d4 <__sprint_r>
   11c84:	00050463          	beqz	a0,11c8c <_vfprintf_r+0x15d4>
   11c88:	ca1fe06f          	j	10928 <_vfprintf_r+0x270>
   11c8c:	12013c83          	ld	s9,288(sp)
   11c90:	11812783          	lw	a5,280(sp)
   11c94:	000c0493          	mv	s1,s8
   11c98:	01813803          	ld	a6,24(sp)
   11c9c:	fa9ff06f          	j	11c44 <_vfprintf_r+0x158c>
   11ca0:	03000793          	li	a5,48
   11ca4:	18f105a3          	sb	a5,395(sp)
   11ca8:	18b10d13          	addi	s10,sp,395
   11cac:	d65fe06f          	j	10a10 <_vfprintf_r+0x358>
   11cb0:	00813783          	ld	a5,8(sp)
   11cb4:	00090d13          	mv	s10,s2
   11cb8:	00f73023          	sd	a5,0(a4)
   11cbc:	ce0ff06f          	j	1119c <_vfprintf_r+0xae4>
   11cc0:	01013783          	ld	a5,16(sp)
   11cc4:	00f78793          	addi	a5,a5,15
   11cc8:	ff07f793          	andi	a5,a5,-16
   11ccc:	0007b603          	ld	a2,0(a5)
   11cd0:	0087b683          	ld	a3,8(a5)
   11cd4:	01078793          	addi	a5,a5,16
   11cd8:	00f13823          	sd	a5,16(sp)
   11cdc:	10c13023          	sd	a2,256(sp)
   11ce0:	10d13423          	sd	a3,264(sp)
   11ce4:	e59fe06f          	j	10b3c <_vfprintf_r+0x484>
   11ce8:	00040813          	mv	a6,s0
   11cec:	ac8ff06f          	j	10fb4 <_vfprintf_r+0x8fc>
   11cf0:	01013783          	ld	a5,16(sp)
   11cf4:	0007ba83          	ld	s5,0(a5)
   11cf8:	cb5fe06f          	j	109ac <_vfprintf_r+0x2f4>
   11cfc:	00040813          	mv	a6,s0
   11d00:	8f8ff06f          	j	10df8 <_vfprintf_r+0x740>
   11d04:	0006849b          	sext.w	s1,a3
   11d08:	da9046e3          	bgtz	s1,11ab4 <_vfprintf_r+0x13fc>
   11d0c:	dd1ff06f          	j	11adc <_vfprintf_r+0x1424>
   11d10:	00178e9b          	addiw	t4,a5,1
   11d14:	01048793          	addi	a5,s1,16
   11d18:	010c8cb3          	add	s9,s9,a6
   11d1c:	0134b023          	sd	s3,0(s1)
   11d20:	0104b423          	sd	a6,8(s1)
   11d24:	13913023          	sd	s9,288(sp)
   11d28:	11d12c23          	sw	t4,280(sp)
   11d2c:	00700713          	li	a4,7
   11d30:	63d75663          	bge	a4,t4,1235c <_vfprintf_r+0x1ca4>
   11d34:	11010613          	addi	a2,sp,272
   11d38:	000b0593          	mv	a1,s6
   11d3c:	000b8513          	mv	a0,s7
   11d40:	195090ef          	jal	ra,1b6d4 <__sprint_r>
   11d44:	00050463          	beqz	a0,11d4c <_vfprintf_r+0x1694>
   11d48:	be1fe06f          	j	10928 <_vfprintf_r+0x270>
   11d4c:	11812e83          	lw	t4,280(sp)
   11d50:	12013c83          	ld	s9,288(sp)
   11d54:	1a010313          	addi	t1,sp,416
   11d58:	001e8e9b          	addiw	t4,t4,1
   11d5c:	000c0493          	mv	s1,s8
   11d60:	ae1ff06f          	j	11840 <_vfprintf_r+0x1188>
   11d64:	20046413          	ori	s0,s0,512
   11d68:	00194483          	lbu	s1,1(s2)
   11d6c:	0004041b          	sext.w	s0,s0
   11d70:	00190913          	addi	s2,s2,1
   11d74:	ae9fe06f          	j	1085c <_vfprintf_r+0x1a4>
   11d78:	11010613          	addi	a2,sp,272
   11d7c:	000b0593          	mv	a1,s6
   11d80:	000b8513          	mv	a0,s7
   11d84:	151090ef          	jal	ra,1b6d4 <__sprint_r>
   11d88:	00050463          	beqz	a0,11d90 <_vfprintf_r+0x16d8>
   11d8c:	b9dfe06f          	j	10928 <_vfprintf_r+0x270>
   11d90:	12013783          	ld	a5,288(sp)
   11d94:	000c0313          	mv	t1,s8
   11d98:	fd8ff06f          	j	11570 <_vfprintf_r+0xeb8>
   11d9c:	02046413          	ori	s0,s0,32
   11da0:	00194483          	lbu	s1,1(s2)
   11da4:	0004041b          	sext.w	s0,s0
   11da8:	00190913          	addi	s2,s2,1
   11dac:	ab1fe06f          	j	1085c <_vfprintf_r+0x1a4>
   11db0:	000e871b          	sext.w	a4,t4
   11db4:	00600793          	li	a5,6
   11db8:	66e7e463          	bltu	a5,a4,12420 <_vfprintf_r+0x1d68>
   11dbc:	000e8c9b          	sext.w	s9,t4
   11dc0:	000c8a93          	mv	s5,s9
   11dc4:	00d13823          	sd	a3,16(sp)
   11dc8:	00010d17          	auipc	s10,0x10
   11dcc:	1f8d0d13          	addi	s10,s10,504 # 21fc0 <zeroes.4541+0x90>
   11dd0:	a94ff06f          	j	11064 <_vfprintf_r+0x9ac>
   11dd4:	11812683          	lw	a3,280(sp)
   11dd8:	349dda63          	bge	s11,s1,1212c <_vfprintf_r+0x1a74>
   11ddc:	00700c93          	li	s9,7
   11de0:	00c0006f          	j	11dec <_vfprintf_r+0x1734>
   11de4:	ff04849b          	addiw	s1,s1,-16
   11de8:	349dd263          	bge	s11,s1,1212c <_vfprintf_r+0x1a74>
   11dec:	0016869b          	addiw	a3,a3,1
   11df0:	01078793          	addi	a5,a5,16
   11df4:	01333023          	sd	s3,0(t1)
   11df8:	01b33423          	sd	s11,8(t1)
   11dfc:	12f13023          	sd	a5,288(sp)
   11e00:	10d12c23          	sw	a3,280(sp)
   11e04:	01030313          	addi	t1,t1,16
   11e08:	fcdcdee3          	bge	s9,a3,11de4 <_vfprintf_r+0x172c>
   11e0c:	11010613          	addi	a2,sp,272
   11e10:	000b0593          	mv	a1,s6
   11e14:	000b8513          	mv	a0,s7
   11e18:	0bd090ef          	jal	ra,1b6d4 <__sprint_r>
   11e1c:	00050463          	beqz	a0,11e24 <_vfprintf_r+0x176c>
   11e20:	b09fe06f          	j	10928 <_vfprintf_r+0x270>
   11e24:	12013783          	ld	a5,288(sp)
   11e28:	11812683          	lw	a3,280(sp)
   11e2c:	000c0313          	mv	t1,s8
   11e30:	fb5ff06f          	j	11de4 <_vfprintf_r+0x172c>
   11e34:	000d0493          	mv	s1,s10
   11e38:	a05fe06f          	j	1083c <_vfprintf_r+0x184>
   11e3c:	11010613          	addi	a2,sp,272
   11e40:	000b0593          	mv	a1,s6
   11e44:	000b8513          	mv	a0,s7
   11e48:	08d090ef          	jal	ra,1b6d4 <__sprint_r>
   11e4c:	00050463          	beqz	a0,11e54 <_vfprintf_r+0x179c>
   11e50:	ad9fe06f          	j	10928 <_vfprintf_r+0x270>
   11e54:	12013c83          	ld	s9,288(sp)
   11e58:	11812783          	lw	a5,280(sp)
   11e5c:	000c0493          	mv	s1,s8
   11e60:	92dff06f          	j	1178c <_vfprintf_r+0x10d4>
   11e64:	11010613          	addi	a2,sp,272
   11e68:	000b0593          	mv	a1,s6
   11e6c:	000b8513          	mv	a0,s7
   11e70:	065090ef          	jal	ra,1b6d4 <__sprint_r>
   11e74:	00050463          	beqz	a0,11e7c <_vfprintf_r+0x17c4>
   11e78:	ab1fe06f          	j	10928 <_vfprintf_r+0x270>
   11e7c:	12013c83          	ld	s9,288(sp)
   11e80:	11812783          	lw	a5,280(sp)
   11e84:	000c0493          	mv	s1,s8
   11e88:	935ff06f          	j	117bc <_vfprintf_r+0x1104>
   11e8c:	11812683          	lw	a3,280(sp)
   11e90:	00010617          	auipc	a2,0x10
   11e94:	13860613          	addi	a2,a2,312 # 21fc8 <zeroes.4541+0x98>
   11e98:	00c33023          	sd	a2,0(t1)
   11e9c:	0016869b          	addiw	a3,a3,1
   11ea0:	00100613          	li	a2,1
   11ea4:	00178793          	addi	a5,a5,1
   11ea8:	00c33423          	sd	a2,8(t1)
   11eac:	10d12c23          	sw	a3,280(sp)
   11eb0:	0006861b          	sext.w	a2,a3
   11eb4:	12f13023          	sd	a5,288(sp)
   11eb8:	00700693          	li	a3,7
   11ebc:	01030313          	addi	t1,t1,16
   11ec0:	4ac6c663          	blt	a3,a2,1236c <_vfprintf_r+0x1cb4>
   11ec4:	b2059a63          	bnez	a1,111f8 <_vfprintf_r+0xb40>
   11ec8:	02813703          	ld	a4,40(sp)
   11ecc:	00147693          	andi	a3,s0,1
   11ed0:	00d766b3          	or	a3,a4,a3
   11ed4:	a6068e63          	beqz	a3,11150 <_vfprintf_r+0xa98>
   11ed8:	11812603          	lw	a2,280(sp)
   11edc:	07813703          	ld	a4,120(sp)
   11ee0:	08013683          	ld	a3,128(sp)
   11ee4:	00f707b3          	add	a5,a4,a5
   11ee8:	00d33023          	sd	a3,0(t1)
   11eec:	0016069b          	addiw	a3,a2,1
   11ef0:	00e33423          	sd	a4,8(t1)
   11ef4:	12f13023          	sd	a5,288(sp)
   11ef8:	10d12c23          	sw	a3,280(sp)
   11efc:	00700613          	li	a2,7
   11f00:	b2d64463          	blt	a2,a3,11228 <_vfprintf_r+0xb70>
   11f04:	01030313          	addi	t1,t1,16
   11f08:	b4cff06f          	j	11254 <_vfprintf_r+0xb9c>
   11f0c:	11010613          	addi	a2,sp,272
   11f10:	000b0593          	mv	a1,s6
   11f14:	000b8513          	mv	a0,s7
   11f18:	7bc090ef          	jal	ra,1b6d4 <__sprint_r>
   11f1c:	00050463          	beqz	a0,11f24 <_vfprintf_r+0x186c>
   11f20:	a09fe06f          	j	10928 <_vfprintf_r+0x270>
   11f24:	000c0313          	mv	t1,s8
   11f28:	df4ff06f          	j	1151c <_vfprintf_r+0xe64>
   11f2c:	40087413          	andi	s0,a6,1024
   11f30:	18c10c93          	addi	s9,sp,396
   11f34:	0004041b          	sext.w	s0,s0
   11f38:	02013423          	sd	zero,40(sp)
   11f3c:	000c8d13          	mv	s10,s9
   11f40:	00a00593          	li	a1,10
   11f44:	000a8513          	mv	a0,s5
   11f48:	02613c23          	sd	t1,56(sp)
   11f4c:	03d13023          	sd	t4,32(sp)
   11f50:	01013c23          	sd	a6,24(sp)
   11f54:	46d0f0ef          	jal	ra,21bc0 <__umoddi3>
   11f58:	02813783          	ld	a5,40(sp)
   11f5c:	0305051b          	addiw	a0,a0,48
   11f60:	fead0fa3          	sb	a0,-1(s10)
   11f64:	0017879b          	addiw	a5,a5,1
   11f68:	02f13423          	sd	a5,40(sp)
   11f6c:	fffd0d13          	addi	s10,s10,-1
   11f70:	01813803          	ld	a6,24(sp)
   11f74:	02013e83          	ld	t4,32(sp)
   11f78:	03813303          	ld	t1,56(sp)
   11f7c:	00040863          	beqz	s0,11f8c <_vfprintf_r+0x18d4>
   11f80:	07013703          	ld	a4,112(sp)
   11f84:	00074683          	lbu	a3,0(a4)
   11f88:	d0d78863          	beq	a5,a3,11498 <_vfprintf_r+0xde0>
   11f8c:	00a00593          	li	a1,10
   11f90:	000a8513          	mv	a0,s5
   11f94:	02613c23          	sd	t1,56(sp)
   11f98:	03d13023          	sd	t4,32(sp)
   11f9c:	01013c23          	sd	a6,24(sp)
   11fa0:	3d90f0ef          	jal	ra,21b78 <__udivdi3>
   11fa4:	00900793          	li	a5,9
   11fa8:	01813803          	ld	a6,24(sp)
   11fac:	02013e83          	ld	t4,32(sp)
   11fb0:	03813303          	ld	t1,56(sp)
   11fb4:	cf57fa63          	bgeu	a5,s5,114a8 <_vfprintf_r+0xdf0>
   11fb8:	00050a93          	mv	s5,a0
   11fbc:	f85ff06f          	j	11f40 <_vfprintf_r+0x1888>
   11fc0:	0017069b          	addiw	a3,a4,1
   11fc4:	01333023          	sd	s3,0(t1)
   11fc8:	00933423          	sd	s1,8(t1)
   11fcc:	009787b3          	add	a5,a5,s1
   11fd0:	12f13023          	sd	a5,288(sp)
   11fd4:	10d12c23          	sw	a3,280(sp)
   11fd8:	00700713          	li	a4,7
   11fdc:	96d75863          	bge	a4,a3,1114c <_vfprintf_r+0xa94>
   11fe0:	a98ff06f          	j	11278 <_vfprintf_r+0xbc0>
   11fe4:	10013503          	ld	a0,256(sp)
   11fe8:	10813583          	ld	a1,264(sp)
   11fec:	00000613          	li	a2,0
   11ff0:	00000693          	li	a3,0
   11ff4:	00613c23          	sd	t1,24(sp)
   11ff8:	1280e0ef          	jal	ra,20120 <__letf2>
   11ffc:	01813303          	ld	t1,24(sp)
   12000:	100546e3          	bltz	a0,1290c <_vfprintf_r+0x2254>
   12004:	0df14783          	lbu	a5,223(sp)
   12008:	04700693          	li	a3,71
   1200c:	00010d17          	auipc	s10,0x10
   12010:	f64d0d13          	addi	s10,s10,-156 # 21f70 <zeroes.4541+0x40>
   12014:	3896c063          	blt	a3,s1,12394 <_vfprintf_r+0x1cdc>
   12018:	f7f47413          	andi	s0,s0,-129
   1201c:	02013023          	sd	zero,32(sp)
   12020:	04013c23          	sd	zero,88(sp)
   12024:	06013423          	sd	zero,104(sp)
   12028:	06013023          	sd	zero,96(sp)
   1202c:	0004041b          	sext.w	s0,s0
   12030:	00300a93          	li	s5,3
   12034:	00300c93          	li	s9,3
   12038:	00000e93          	li	t4,0
   1203c:	00078463          	beqz	a5,12044 <_vfprintf_r+0x198c>
   12040:	9f5fe06f          	j	10a34 <_vfprintf_r+0x37c>
   12044:	834ff06f          	j	11078 <_vfprintf_r+0x9c0>
   12048:	000d0513          	mv	a0,s10
   1204c:	00613c23          	sd	t1,24(sp)
   12050:	00d13823          	sd	a3,16(sp)
   12054:	501060ef          	jal	ra,18d54 <strlen>
   12058:	00050c9b          	sext.w	s9,a0
   1205c:	fffcca93          	not	s5,s9
   12060:	0df14783          	lbu	a5,223(sp)
   12064:	43fada93          	srai	s5,s5,0x3f
   12068:	015cfab3          	and	s5,s9,s5
   1206c:	02013023          	sd	zero,32(sp)
   12070:	04013c23          	sd	zero,88(sp)
   12074:	06013423          	sd	zero,104(sp)
   12078:	06013023          	sd	zero,96(sp)
   1207c:	000a8a9b          	sext.w	s5,s5
   12080:	00000e93          	li	t4,0
   12084:	01813303          	ld	t1,24(sp)
   12088:	00078463          	beqz	a5,12090 <_vfprintf_r+0x19d8>
   1208c:	9a9fe06f          	j	10a34 <_vfprintf_r+0x37c>
   12090:	fe9fe06f          	j	11078 <_vfprintf_r+0x9c0>
   12094:	20047713          	andi	a4,s0,512
   12098:	0ff7fa93          	andi	s5,a5,255
   1209c:	00070463          	beqz	a4,120a4 <_vfprintf_r+0x19ec>
   120a0:	90dfe06f          	j	109ac <_vfprintf_r+0x2f4>
   120a4:	02079a93          	slli	s5,a5,0x20
   120a8:	020ada93          	srli	s5,s5,0x20
   120ac:	901fe06f          	j	109ac <_vfprintf_r+0x2f4>
   120b0:	20047713          	andi	a4,s0,512
   120b4:	3c070063          	beqz	a4,12474 <_vfprintf_r+0x1dbc>
   120b8:	0ff7fa93          	andi	s5,a5,255
   120bc:	00d13823          	sd	a3,16(sp)
   120c0:	00040813          	mv	a6,s0
   120c4:	00100713          	li	a4,1
   120c8:	915fe06f          	j	109dc <_vfprintf_r+0x324>
   120cc:	20047693          	andi	a3,s0,512
   120d0:	3a068e63          	beqz	a3,1248c <_vfprintf_r+0x1dd4>
   120d4:	0ff7fa93          	andi	s5,a5,255
   120d8:	00e13823          	sd	a4,16(sp)
   120dc:	dddfe06f          	j	10eb8 <_vfprintf_r+0x800>
   120e0:	20047793          	andi	a5,s0,512
   120e4:	36078463          	beqz	a5,1244c <_vfprintf_r+0x1d94>
   120e8:	01013783          	ld	a5,16(sp)
   120ec:	00040813          	mv	a6,s0
   120f0:	00d13823          	sd	a3,16(sp)
   120f4:	00078a83          	lb	s5,0(a5)
   120f8:	000a8713          	mv	a4,s5
   120fc:	e15fe06f          	j	10f10 <_vfprintf_r+0x858>
   12100:	10813783          	ld	a5,264(sp)
   12104:	3807dc63          	bgez	a5,1249c <_vfprintf_r+0x1de4>
   12108:	02d00793          	li	a5,45
   1210c:	0cf10fa3          	sb	a5,223(sp)
   12110:	04700693          	li	a3,71
   12114:	00010d17          	auipc	s10,0x10
   12118:	e6cd0d13          	addi	s10,s10,-404 # 21f80 <zeroes.4541+0x50>
   1211c:	ee96dee3          	bge	a3,s1,12018 <_vfprintf_r+0x1960>
   12120:	00010d17          	auipc	s10,0x10
   12124:	e68d0d13          	addi	s10,s10,-408 # 21f88 <zeroes.4541+0x58>
   12128:	ef1ff06f          	j	12018 <_vfprintf_r+0x1960>
   1212c:	0016861b          	addiw	a2,a3,1
   12130:	009787b3          	add	a5,a5,s1
   12134:	01333023          	sd	s3,0(t1)
   12138:	00933423          	sd	s1,8(t1)
   1213c:	12f13023          	sd	a5,288(sp)
   12140:	10c12c23          	sw	a2,280(sp)
   12144:	00700693          	li	a3,7
   12148:	01030313          	addi	t1,t1,16
   1214c:	9ac6d4e3          	bge	a3,a2,11af4 <_vfprintf_r+0x143c>
   12150:	11010613          	addi	a2,sp,272
   12154:	000b0593          	mv	a1,s6
   12158:	000b8513          	mv	a0,s7
   1215c:	578090ef          	jal	ra,1b6d4 <__sprint_r>
   12160:	00050463          	beqz	a0,12168 <_vfprintf_r+0x1ab0>
   12164:	fc4fe06f          	j	10928 <_vfprintf_r+0x270>
   12168:	12013783          	ld	a5,288(sp)
   1216c:	000c0313          	mv	t1,s8
   12170:	985ff06f          	j	11af4 <_vfprintf_r+0x143c>
   12174:	02813703          	ld	a4,40(sp)
   12178:	00700813          	li	a6,7
   1217c:	00ed0733          	add	a4,s10,a4
   12180:	00e13c23          	sd	a4,24(sp)
   12184:	06813703          	ld	a4,104(sp)
   12188:	0c070263          	beqz	a4,1224c <_vfprintf_r+0x1b94>
   1218c:	05813703          	ld	a4,88(sp)
   12190:	0c071263          	bnez	a4,12254 <_vfprintf_r+0x1b9c>
   12194:	07013703          	ld	a4,112(sp)
   12198:	fff70713          	addi	a4,a4,-1
   1219c:	06e13823          	sd	a4,112(sp)
   121a0:	06813703          	ld	a4,104(sp)
   121a4:	fff7071b          	addiw	a4,a4,-1
   121a8:	06e13423          	sd	a4,104(sp)
   121ac:	09813683          	ld	a3,152(sp)
   121b0:	08813703          	ld	a4,136(sp)
   121b4:	01030313          	addi	t1,t1,16
   121b8:	fed33823          	sd	a3,-16(t1)
   121bc:	11812683          	lw	a3,280(sp)
   121c0:	00e787b3          	add	a5,a5,a4
   121c4:	fee33c23          	sd	a4,-8(t1)
   121c8:	0016861b          	addiw	a2,a3,1
   121cc:	12f13023          	sd	a5,288(sp)
   121d0:	10c12c23          	sw	a2,280(sp)
   121d4:	12c84263          	blt	a6,a2,122f8 <_vfprintf_r+0x1c40>
   121d8:	07013703          	ld	a4,112(sp)
   121dc:	00074603          	lbu	a2,0(a4)
   121e0:	01813703          	ld	a4,24(sp)
   121e4:	00060c9b          	sext.w	s9,a2
   121e8:	409705bb          	subw	a1,a4,s1
   121ec:	000c869b          	sext.w	a3,s9
   121f0:	0195d463          	bge	a1,s9,121f8 <_vfprintf_r+0x1b40>
   121f4:	0005869b          	sext.w	a3,a1
   121f8:	02d05a63          	blez	a3,1222c <_vfprintf_r+0x1b74>
   121fc:	11812603          	lw	a2,280(sp)
   12200:	00d787b3          	add	a5,a5,a3
   12204:	00933023          	sd	s1,0(t1)
   12208:	0016059b          	addiw	a1,a2,1
   1220c:	00d33423          	sd	a3,8(t1)
   12210:	12f13023          	sd	a5,288(sp)
   12214:	10b12c23          	sw	a1,280(sp)
   12218:	10b84463          	blt	a6,a1,12320 <_vfprintf_r+0x1c68>
   1221c:	07013703          	ld	a4,112(sp)
   12220:	01030313          	addi	t1,t1,16
   12224:	00074603          	lbu	a2,0(a4)
   12228:	00060c9b          	sext.w	s9,a2
   1222c:	fff6c593          	not	a1,a3
   12230:	43f5d593          	srai	a1,a1,0x3f
   12234:	00b6f6b3          	and	a3,a3,a1
   12238:	40dc8cbb          	subw	s9,s9,a3
   1223c:	03904463          	bgtz	s9,12264 <_vfprintf_r+0x1bac>
   12240:	00c484b3          	add	s1,s1,a2
   12244:	06813703          	ld	a4,104(sp)
   12248:	f40712e3          	bnez	a4,1218c <_vfprintf_r+0x1ad4>
   1224c:	05813703          	ld	a4,88(sp)
   12250:	4c070c63          	beqz	a4,12728 <_vfprintf_r+0x2070>
   12254:	05813703          	ld	a4,88(sp)
   12258:	fff7071b          	addiw	a4,a4,-1
   1225c:	04e13c23          	sd	a4,88(sp)
   12260:	f4dff06f          	j	121ac <_vfprintf_r+0x1af4>
   12264:	11812683          	lw	a3,280(sp)
   12268:	019dc863          	blt	s11,s9,12278 <_vfprintf_r+0x1bc0>
   1226c:	05c0006f          	j	122c8 <_vfprintf_r+0x1c10>
   12270:	ff0c8c9b          	addiw	s9,s9,-16
   12274:	059dda63          	bge	s11,s9,122c8 <_vfprintf_r+0x1c10>
   12278:	0016869b          	addiw	a3,a3,1
   1227c:	01078793          	addi	a5,a5,16
   12280:	01333023          	sd	s3,0(t1)
   12284:	01b33423          	sd	s11,8(t1)
   12288:	12f13023          	sd	a5,288(sp)
   1228c:	10d12c23          	sw	a3,280(sp)
   12290:	01030313          	addi	t1,t1,16
   12294:	fcd85ee3          	bge	a6,a3,12270 <_vfprintf_r+0x1bb8>
   12298:	11010613          	addi	a2,sp,272
   1229c:	000b0593          	mv	a1,s6
   122a0:	000b8513          	mv	a0,s7
   122a4:	430090ef          	jal	ra,1b6d4 <__sprint_r>
   122a8:	00050463          	beqz	a0,122b0 <_vfprintf_r+0x1bf8>
   122ac:	e7cfe06f          	j	10928 <_vfprintf_r+0x270>
   122b0:	ff0c8c9b          	addiw	s9,s9,-16
   122b4:	12013783          	ld	a5,288(sp)
   122b8:	11812683          	lw	a3,280(sp)
   122bc:	000c0313          	mv	t1,s8
   122c0:	00700813          	li	a6,7
   122c4:	fb9dcae3          	blt	s11,s9,12278 <_vfprintf_r+0x1bc0>
   122c8:	0016861b          	addiw	a2,a3,1
   122cc:	019787b3          	add	a5,a5,s9
   122d0:	01333023          	sd	s3,0(t1)
   122d4:	01933423          	sd	s9,8(t1)
   122d8:	12f13023          	sd	a5,288(sp)
   122dc:	10c12c23          	sw	a2,280(sp)
   122e0:	5ac84c63          	blt	a6,a2,12898 <_vfprintf_r+0x21e0>
   122e4:	07013703          	ld	a4,112(sp)
   122e8:	01030313          	addi	t1,t1,16
   122ec:	00074603          	lbu	a2,0(a4)
   122f0:	00c484b3          	add	s1,s1,a2
   122f4:	f51ff06f          	j	12244 <_vfprintf_r+0x1b8c>
   122f8:	11010613          	addi	a2,sp,272
   122fc:	000b0593          	mv	a1,s6
   12300:	000b8513          	mv	a0,s7
   12304:	3d0090ef          	jal	ra,1b6d4 <__sprint_r>
   12308:	00050463          	beqz	a0,12310 <_vfprintf_r+0x1c58>
   1230c:	e1cfe06f          	j	10928 <_vfprintf_r+0x270>
   12310:	12013783          	ld	a5,288(sp)
   12314:	000c0313          	mv	t1,s8
   12318:	00700813          	li	a6,7
   1231c:	ebdff06f          	j	121d8 <_vfprintf_r+0x1b20>
   12320:	11010613          	addi	a2,sp,272
   12324:	000b0593          	mv	a1,s6
   12328:	000b8513          	mv	a0,s7
   1232c:	02d13c23          	sd	a3,56(sp)
   12330:	3a4090ef          	jal	ra,1b6d4 <__sprint_r>
   12334:	00050463          	beqz	a0,1233c <_vfprintf_r+0x1c84>
   12338:	df0fe06f          	j	10928 <_vfprintf_r+0x270>
   1233c:	07013783          	ld	a5,112(sp)
   12340:	000c0313          	mv	t1,s8
   12344:	00700813          	li	a6,7
   12348:	0007c603          	lbu	a2,0(a5)
   1234c:	03813683          	ld	a3,56(sp)
   12350:	12013783          	ld	a5,288(sp)
   12354:	00060c9b          	sext.w	s9,a2
   12358:	ed5ff06f          	j	1222c <_vfprintf_r+0x1b74>
   1235c:	001e8e9b          	addiw	t4,t4,1
   12360:	01078313          	addi	t1,a5,16
   12364:	00078493          	mv	s1,a5
   12368:	cd8ff06f          	j	11840 <_vfprintf_r+0x1188>
   1236c:	11010613          	addi	a2,sp,272
   12370:	000b0593          	mv	a1,s6
   12374:	000b8513          	mv	a0,s7
   12378:	35c090ef          	jal	ra,1b6d4 <__sprint_r>
   1237c:	00050463          	beqz	a0,12384 <_vfprintf_r+0x1ccc>
   12380:	da8fe06f          	j	10928 <_vfprintf_r+0x270>
   12384:	0e812583          	lw	a1,232(sp)
   12388:	12013783          	ld	a5,288(sp)
   1238c:	000c0313          	mv	t1,s8
   12390:	b35ff06f          	j	11ec4 <_vfprintf_r+0x180c>
   12394:	00010d17          	auipc	s10,0x10
   12398:	be4d0d13          	addi	s10,s10,-1052 # 21f78 <zeroes.4541+0x48>
   1239c:	c7dff06f          	j	12018 <_vfprintf_r+0x1960>
   123a0:	11010613          	addi	a2,sp,272
   123a4:	000b0593          	mv	a1,s6
   123a8:	000b8513          	mv	a0,s7
   123ac:	328090ef          	jal	ra,1b6d4 <__sprint_r>
   123b0:	00050463          	beqz	a0,123b8 <_vfprintf_r+0x1d00>
   123b4:	d74fe06f          	j	10928 <_vfprintf_r+0x270>
   123b8:	12013783          	ld	a5,288(sp)
   123bc:	000c0313          	mv	t1,s8
   123c0:	f1cff06f          	j	11adc <_vfprintf_r+0x1424>
   123c4:	08813783          	ld	a5,136(sp)
   123c8:	09813583          	ld	a1,152(sp)
   123cc:	02613c23          	sd	t1,56(sp)
   123d0:	40fd0d33          	sub	s10,s10,a5
   123d4:	00078613          	mv	a2,a5
   123d8:	000d0513          	mv	a0,s10
   123dc:	03d13023          	sd	t4,32(sp)
   123e0:	01013c23          	sd	a6,24(sp)
   123e4:	241060ef          	jal	ra,18e24 <strncpy>
   123e8:	07013703          	ld	a4,112(sp)
   123ec:	000a8513          	mv	a0,s5
   123f0:	00a00593          	li	a1,10
   123f4:	00174683          	lbu	a3,1(a4)
   123f8:	02013423          	sd	zero,40(sp)
   123fc:	00d037b3          	snez	a5,a3
   12400:	00f707b3          	add	a5,a4,a5
   12404:	06f13823          	sd	a5,112(sp)
   12408:	7700f0ef          	jal	ra,21b78 <__udivdi3>
   1240c:	01813803          	ld	a6,24(sp)
   12410:	02013e83          	ld	t4,32(sp)
   12414:	03813303          	ld	t1,56(sp)
   12418:	00050a93          	mv	s5,a0
   1241c:	b25ff06f          	j	11f40 <_vfprintf_r+0x1888>
   12420:	00600e93          	li	t4,6
   12424:	999ff06f          	j	11dbc <_vfprintf_r+0x1704>
   12428:	02813603          	ld	a2,40(sp)
   1242c:	00cd0733          	add	a4,s10,a2
   12430:	409708bb          	subw	a7,a4,s1
   12434:	40d6063b          	subw	a2,a2,a3
   12438:	00088493          	mv	s1,a7
   1243c:	01165463          	bge	a2,a7,12444 <_vfprintf_r+0x1d8c>
   12440:	00060493          	mv	s1,a2
   12444:	00048c9b          	sext.w	s9,s1
   12448:	f4cff06f          	j	11b94 <_vfprintf_r+0x14dc>
   1244c:	01013783          	ld	a5,16(sp)
   12450:	00040813          	mv	a6,s0
   12454:	00d13823          	sd	a3,16(sp)
   12458:	0007aa83          	lw	s5,0(a5)
   1245c:	000a8713          	mv	a4,s5
   12460:	ab1fe06f          	j	10f10 <_vfprintf_r+0x858>
   12464:	00813783          	ld	a5,8(sp)
   12468:	00090d13          	mv	s10,s2
   1246c:	00f71023          	sh	a5,0(a4)
   12470:	d2dfe06f          	j	1119c <_vfprintf_r+0xae4>
   12474:	02079a93          	slli	s5,a5,0x20
   12478:	020ada93          	srli	s5,s5,0x20
   1247c:	00d13823          	sd	a3,16(sp)
   12480:	00040813          	mv	a6,s0
   12484:	00100713          	li	a4,1
   12488:	d54fe06f          	j	109dc <_vfprintf_r+0x324>
   1248c:	02079a93          	slli	s5,a5,0x20
   12490:	020ada93          	srli	s5,s5,0x20
   12494:	00e13823          	sd	a4,16(sp)
   12498:	a21fe06f          	j	10eb8 <_vfprintf_r+0x800>
   1249c:	0df14783          	lbu	a5,223(sp)
   124a0:	c71ff06f          	j	12110 <_vfprintf_r+0x1a58>
   124a4:	03000793          	li	a5,48
   124a8:	0ef10023          	sb	a5,224(sp)
   124ac:	05800713          	li	a4,88
   124b0:	00246793          	ori	a5,s0,2
   124b4:	0007879b          	sext.w	a5,a5
   124b8:	0ee100a3          	sb	a4,225(sp)
   124bc:	06300693          	li	a3,99
   124c0:	0af13823          	sd	a5,176(sp)
   124c4:	02013023          	sd	zero,32(sp)
   124c8:	12810d13          	addi	s10,sp,296
   124cc:	67d6ca63          	blt	a3,t4,12b40 <_vfprintf_r+0x2488>
   124d0:	10813c83          	ld	s9,264(sp)
   124d4:	fdf4f793          	andi	a5,s1,-33
   124d8:	10246413          	ori	s0,s0,258
   124dc:	0af13423          	sd	a5,168(sp)
   124e0:	0c013423          	sd	zero,200(sp)
   124e4:	0004041b          	sext.w	s0,s0
   124e8:	10013f03          	ld	t5,256(sp)
   124ec:	380cca63          	bltz	s9,12880 <_vfprintf_r+0x21c8>
   124f0:	06100793          	li	a5,97
   124f4:	6ef48263          	beq	s1,a5,12bd8 <_vfprintf_r+0x2520>
   124f8:	04100793          	li	a5,65
   124fc:	00f48463          	beq	s1,a5,12504 <_vfprintf_r+0x1e4c>
   12500:	ed0fe06f          	j	10bd0 <_vfprintf_r+0x518>
   12504:	000f0513          	mv	a0,t5
   12508:	000c8593          	mv	a1,s9
   1250c:	02613c23          	sd	t1,56(sp)
   12510:	03d13423          	sd	t4,40(sp)
   12514:	3000f0ef          	jal	ra,21814 <__trunctfdf2>
   12518:	0e810593          	addi	a1,sp,232
   1251c:	320060ef          	jal	ra,1883c <frexp>
   12520:	1d40f0ef          	jal	ra,216f4 <__extenddftf2>
   12524:	00010797          	auipc	a5,0x10
   12528:	a3c78793          	addi	a5,a5,-1476 # 21f60 <zeroes.4541+0x30>
   1252c:	0087b683          	ld	a3,8(a5)
   12530:	00000613          	li	a2,0
   12534:	4d50d0ef          	jal	ra,20208 <__multf3>
   12538:	00000613          	li	a2,0
   1253c:	00000693          	li	a3,0
   12540:	00050c93          	mv	s9,a0
   12544:	00b13c23          	sd	a1,24(sp)
   12548:	2190d0ef          	jal	ra,1ff60 <__eqtf2>
   1254c:	01813f83          	ld	t6,24(sp)
   12550:	02813e83          	ld	t4,40(sp)
   12554:	03813303          	ld	t1,56(sp)
   12558:	00051663          	bnez	a0,12564 <_vfprintf_r+0x1eac>
   1255c:	00100793          	li	a5,1
   12560:	0ef12423          	sw	a5,232(sp)
   12564:	00010797          	auipc	a5,0x10
   12568:	a4478793          	addi	a5,a5,-1468 # 21fa8 <zeroes.4541+0x78>
   1256c:	06f13023          	sd	a5,96(sp)
   12570:	000e869b          	sext.w	a3,t4
   12574:	02069793          	slli	a5,a3,0x20
   12578:	0207d793          	srli	a5,a5,0x20
   1257c:	00178793          	addi	a5,a5,1
   12580:	00fd07b3          	add	a5,s10,a5
   12584:	0af13023          	sd	a5,160(sp)
   12588:	00dd07bb          	addw	a5,s10,a3
   1258c:	0af12e23          	sw	a5,188(sp)
   12590:	00010797          	auipc	a5,0x10
   12594:	9b078793          	addi	a5,a5,-1616 # 21f40 <zeroes.4541+0x10>
   12598:	0087b783          	ld	a5,8(a5)
   1259c:	01a13c23          	sd	s10,24(sp)
   125a0:	0cf13023          	sd	a5,192(sp)
   125a4:	0380006f          	j	125dc <_vfprintf_r+0x1f24>
   125a8:	00000613          	li	a2,0
   125ac:	00000693          	li	a3,0
   125b0:	04b13c23          	sd	a1,88(sp)
   125b4:	04a13823          	sd	a0,80(sp)
   125b8:	1a90d0ef          	jal	ra,1ff60 <__eqtf2>
   125bc:	03813e83          	ld	t4,56(sp)
   125c0:	04013303          	ld	t1,64(sp)
   125c4:	05013883          	ld	a7,80(sp)
   125c8:	05813803          	ld	a6,88(sp)
   125cc:	02813783          	ld	a5,40(sp)
   125d0:	04813f83          	ld	t6,72(sp)
   125d4:	0a050463          	beqz	a0,1267c <_vfprintf_r+0x1fc4>
   125d8:	00f13c23          	sd	a5,24(sp)
   125dc:	0c013683          	ld	a3,192(sp)
   125e0:	00000613          	li	a2,0
   125e4:	000f8593          	mv	a1,t6
   125e8:	000c8513          	mv	a0,s9
   125ec:	04613023          	sd	t1,64(sp)
   125f0:	03d13c23          	sd	t4,56(sp)
   125f4:	4150d0ef          	jal	ra,20208 <__multf3>
   125f8:	00058c93          	mv	s9,a1
   125fc:	02a13423          	sd	a0,40(sp)
   12600:	7910e0ef          	jal	ra,21590 <__fixtfsi>
   12604:	00050a9b          	sext.w	s5,a0
   12608:	000a8513          	mv	a0,s5
   1260c:	0580f0ef          	jal	ra,21664 <__floatsitf>
   12610:	02813803          	ld	a6,40(sp)
   12614:	00058693          	mv	a3,a1
   12618:	00050613          	mv	a2,a0
   1261c:	000c8593          	mv	a1,s9
   12620:	00080513          	mv	a0,a6
   12624:	4d40e0ef          	jal	ra,20af8 <__subtf3>
   12628:	06013783          	ld	a5,96(sp)
   1262c:	0bc12703          	lw	a4,188(sp)
   12630:	04b13423          	sd	a1,72(sp)
   12634:	015787b3          	add	a5,a5,s5
   12638:	0007c683          	lbu	a3,0(a5)
   1263c:	01813783          	ld	a5,24(sp)
   12640:	00050893          	mv	a7,a0
   12644:	00058813          	mv	a6,a1
   12648:	00d78023          	sb	a3,0(a5)
   1264c:	00178793          	addi	a5,a5,1
   12650:	40f7073b          	subw	a4,a4,a5
   12654:	06e13423          	sd	a4,104(sp)
   12658:	0a013703          	ld	a4,160(sp)
   1265c:	02f13423          	sd	a5,40(sp)
   12660:	00050c93          	mv	s9,a0
   12664:	03813e83          	ld	t4,56(sp)
   12668:	04013303          	ld	t1,64(sp)
   1266c:	f2e79ee3          	bne	a5,a4,125a8 <_vfprintf_r+0x1ef0>
   12670:	0a013783          	ld	a5,160(sp)
   12674:	fff00713          	li	a4,-1
   12678:	06e13423          	sd	a4,104(sp)
   1267c:	00010697          	auipc	a3,0x10
   12680:	8d468693          	addi	a3,a3,-1836 # 21f50 <zeroes.4541+0x20>
   12684:	04f13423          	sd	a5,72(sp)
   12688:	0086b783          	ld	a5,8(a3)
   1268c:	00000613          	li	a2,0
   12690:	00088513          	mv	a0,a7
   12694:	00078693          	mv	a3,a5
   12698:	00080593          	mv	a1,a6
   1269c:	04613023          	sd	t1,64(sp)
   126a0:	03d13c23          	sd	t4,56(sp)
   126a4:	02f13423          	sd	a5,40(sp)
   126a8:	05113c23          	sd	a7,88(sp)
   126ac:	05013823          	sd	a6,80(sp)
   126b0:	1890d0ef          	jal	ra,20038 <__getf2>
   126b4:	03813e83          	ld	t4,56(sp)
   126b8:	04013303          	ld	t1,64(sp)
   126bc:	04813783          	ld	a5,72(sp)
   126c0:	40a04863          	bgtz	a0,12ad0 <_vfprintf_r+0x2418>
   126c4:	05813883          	ld	a7,88(sp)
   126c8:	05013803          	ld	a6,80(sp)
   126cc:	02813683          	ld	a3,40(sp)
   126d0:	00000613          	li	a2,0
   126d4:	00088513          	mv	a0,a7
   126d8:	00080593          	mv	a1,a6
   126dc:	0850d0ef          	jal	ra,1ff60 <__eqtf2>
   126e0:	03813e83          	ld	t4,56(sp)
   126e4:	04013303          	ld	t1,64(sp)
   126e8:	04813783          	ld	a5,72(sp)
   126ec:	00051663          	bnez	a0,126f8 <_vfprintf_r+0x2040>
   126f0:	001afa93          	andi	s5,s5,1
   126f4:	3c0a9e63          	bnez	s5,12ad0 <_vfprintf_r+0x2418>
   126f8:	06813703          	ld	a4,104(sp)
   126fc:	03000613          	li	a2,48
   12700:	00170693          	addi	a3,a4,1
   12704:	00d786b3          	add	a3,a5,a3
   12708:	00075463          	bgez	a4,12710 <_vfprintf_r+0x2058>
   1270c:	d48fe06f          	j	10c54 <_vfprintf_r+0x59c>
   12710:	00178793          	addi	a5,a5,1
   12714:	fec78fa3          	sb	a2,-1(a5)
   12718:	fef69ce3          	bne	a3,a5,12710 <_vfprintf_r+0x2058>
   1271c:	d38fe06f          	j	10c54 <_vfprintf_r+0x59c>
   12720:	00040813          	mv	a6,s0
   12724:	d5dfe06f          	j	11480 <_vfprintf_r+0xdc8>
   12728:	02813703          	ld	a4,40(sp)
   1272c:	00ed06b3          	add	a3,s10,a4
   12730:	bc96fa63          	bgeu	a3,s1,11b04 <_vfprintf_r+0x144c>
   12734:	00068493          	mv	s1,a3
   12738:	bccff06f          	j	11b04 <_vfprintf_r+0x144c>
   1273c:	06013703          	ld	a4,96(sp)
   12740:	ffd00793          	li	a5,-3
   12744:	00f74463          	blt	a4,a5,1274c <_vfprintf_r+0x2094>
   12748:	0ceed263          	bge	t4,a4,1280c <_vfprintf_r+0x2154>
   1274c:	ffe4849b          	addiw	s1,s1,-2
   12750:	fdf4f793          	andi	a5,s1,-33
   12754:	0af13423          	sd	a5,168(sp)
   12758:	d2cfe06f          	j	10c84 <_vfprintf_r+0x5cc>
   1275c:	0e810793          	addi	a5,sp,232
   12760:	000e8713          	mv	a4,t4
   12764:	00300693          	li	a3,3
   12768:	000f0593          	mv	a1,t5
   1276c:	0f810893          	addi	a7,sp,248
   12770:	0ec10813          	addi	a6,sp,236
   12774:	000c8613          	mv	a2,s9
   12778:	000b8513          	mv	a0,s7
   1277c:	02613c23          	sd	t1,56(sp)
   12780:	03d13423          	sd	t4,40(sp)
   12784:	01e13c23          	sd	t5,24(sp)
   12788:	721020ef          	jal	ra,156a8 <_ldtoa_r>
   1278c:	00054683          	lbu	a3,0(a0)
   12790:	03000793          	li	a5,48
   12794:	00050d13          	mv	s10,a0
   12798:	01813f03          	ld	t5,24(sp)
   1279c:	02813e83          	ld	t4,40(sp)
   127a0:	03813303          	ld	t1,56(sp)
   127a4:	12f68463          	beq	a3,a5,128cc <_vfprintf_r+0x2214>
   127a8:	0e812783          	lw	a5,232(sp)
   127ac:	01d787b3          	add	a5,a5,t4
   127b0:	00fd0ab3          	add	s5,s10,a5
   127b4:	00000613          	li	a2,0
   127b8:	00000693          	li	a3,0
   127bc:	000f0513          	mv	a0,t5
   127c0:	000c8593          	mv	a1,s9
   127c4:	02613423          	sd	t1,40(sp)
   127c8:	01d13c23          	sd	t4,24(sp)
   127cc:	7940d0ef          	jal	ra,1ff60 <__eqtf2>
   127d0:	000a8793          	mv	a5,s5
   127d4:	01813e83          	ld	t4,24(sp)
   127d8:	02813303          	ld	t1,40(sp)
   127dc:	00051463          	bnez	a0,127e4 <_vfprintf_r+0x212c>
   127e0:	c74fe06f          	j	10c54 <_vfprintf_r+0x59c>
   127e4:	0f813783          	ld	a5,248(sp)
   127e8:	03000613          	li	a2,48
   127ec:	0157e463          	bltu	a5,s5,127f4 <_vfprintf_r+0x213c>
   127f0:	c64fe06f          	j	10c54 <_vfprintf_r+0x59c>
   127f4:	00178693          	addi	a3,a5,1
   127f8:	0ed13c23          	sd	a3,248(sp)
   127fc:	00c78023          	sb	a2,0(a5)
   12800:	0f813783          	ld	a5,248(sp)
   12804:	ff57e8e3          	bltu	a5,s5,127f4 <_vfprintf_r+0x213c>
   12808:	c4cfe06f          	j	10c54 <_vfprintf_r+0x59c>
   1280c:	02813783          	ld	a5,40(sp)
   12810:	06013703          	ld	a4,96(sp)
   12814:	1cf74663          	blt	a4,a5,129e0 <_vfprintf_r+0x2328>
   12818:	0b013783          	ld	a5,176(sp)
   1281c:	00070c93          	mv	s9,a4
   12820:	0017f793          	andi	a5,a5,1
   12824:	00078663          	beqz	a5,12830 <_vfprintf_r+0x2178>
   12828:	07813783          	ld	a5,120(sp)
   1282c:	00e78cbb          	addw	s9,a5,a4
   12830:	0b013783          	ld	a5,176(sp)
   12834:	4007f793          	andi	a5,a5,1024
   12838:	00078663          	beqz	a5,12844 <_vfprintf_r+0x218c>
   1283c:	06013783          	ld	a5,96(sp)
   12840:	42f04c63          	bgtz	a5,12c78 <_vfprintf_r+0x25c0>
   12844:	fffcca93          	not	s5,s9
   12848:	43fada93          	srai	s5,s5,0x3f
   1284c:	015cfab3          	and	s5,s9,s5
   12850:	000a8a9b          	sext.w	s5,s5
   12854:	06700493          	li	s1,103
   12858:	04013c23          	sd	zero,88(sp)
   1285c:	06013423          	sd	zero,104(sp)
   12860:	d68fe06f          	j	10dc8 <_vfprintf_r+0x710>
   12864:	0df14783          	lbu	a5,223(sp)
   12868:	00000e93          	li	t4,0
   1286c:	00078463          	beqz	a5,12874 <_vfprintf_r+0x21bc>
   12870:	9c4fe06f          	j	10a34 <_vfprintf_r+0x37c>
   12874:	805fe06f          	j	11078 <_vfprintf_r+0x9c0>
   12878:	02013023          	sd	zero,32(sp)
   1287c:	00078413          	mv	s0,a5
   12880:	fff00793          	li	a5,-1
   12884:	03f79793          	slli	a5,a5,0x3f
   12888:	00fcccb3          	xor	s9,s9,a5
   1288c:	02d00793          	li	a5,45
   12890:	0cf13423          	sd	a5,200(sp)
   12894:	c5dff06f          	j	124f0 <_vfprintf_r+0x1e38>
   12898:	11010613          	addi	a2,sp,272
   1289c:	000b0593          	mv	a1,s6
   128a0:	000b8513          	mv	a0,s7
   128a4:	631080ef          	jal	ra,1b6d4 <__sprint_r>
   128a8:	00050463          	beqz	a0,128b0 <_vfprintf_r+0x21f8>
   128ac:	87cfe06f          	j	10928 <_vfprintf_r+0x270>
   128b0:	07013783          	ld	a5,112(sp)
   128b4:	000c0313          	mv	t1,s8
   128b8:	00700813          	li	a6,7
   128bc:	0007c603          	lbu	a2,0(a5)
   128c0:	12013783          	ld	a5,288(sp)
   128c4:	00c484b3          	add	s1,s1,a2
   128c8:	97dff06f          	j	12244 <_vfprintf_r+0x1b8c>
   128cc:	000f0513          	mv	a0,t5
   128d0:	00000613          	li	a2,0
   128d4:	00000693          	li	a3,0
   128d8:	000c8593          	mv	a1,s9
   128dc:	02613c23          	sd	t1,56(sp)
   128e0:	03d13423          	sd	t4,40(sp)
   128e4:	01e13c23          	sd	t5,24(sp)
   128e8:	6780d0ef          	jal	ra,1ff60 <__eqtf2>
   128ec:	01813f03          	ld	t5,24(sp)
   128f0:	02813e83          	ld	t4,40(sp)
   128f4:	03813303          	ld	t1,56(sp)
   128f8:	ea0508e3          	beqz	a0,127a8 <_vfprintf_r+0x20f0>
   128fc:	00100693          	li	a3,1
   12900:	41d687bb          	subw	a5,a3,t4
   12904:	0ef12423          	sw	a5,232(sp)
   12908:	ea5ff06f          	j	127ac <_vfprintf_r+0x20f4>
   1290c:	02d00793          	li	a5,45
   12910:	0cf10fa3          	sb	a5,223(sp)
   12914:	ef4ff06f          	j	12008 <_vfprintf_r+0x1950>
   12918:	11010613          	addi	a2,sp,272
   1291c:	000b0593          	mv	a1,s6
   12920:	000b8513          	mv	a0,s7
   12924:	5b1080ef          	jal	ra,1b6d4 <__sprint_r>
   12928:	00050463          	beqz	a0,12930 <_vfprintf_r+0x2278>
   1292c:	ffdfd06f          	j	10928 <_vfprintf_r+0x270>
   12930:	0e812683          	lw	a3,232(sp)
   12934:	12013783          	ld	a5,288(sp)
   12938:	000c0313          	mv	t1,s8
   1293c:	a0cff06f          	j	11b48 <_vfprintf_r+0x1490>
   12940:	0df14783          	lbu	a5,223(sp)
   12944:	00d13823          	sd	a3,16(sp)
   12948:	04013c23          	sd	zero,88(sp)
   1294c:	06013423          	sd	zero,104(sp)
   12950:	06013023          	sd	zero,96(sp)
   12954:	000e8a93          	mv	s5,t4
   12958:	000e8c93          	mv	s9,t4
   1295c:	00000e93          	li	t4,0
   12960:	00078463          	beqz	a5,12968 <_vfprintf_r+0x22b0>
   12964:	8d0fe06f          	j	10a34 <_vfprintf_r+0x37c>
   12968:	f10fe06f          	j	11078 <_vfprintf_r+0x9c0>
   1296c:	11010613          	addi	a2,sp,272
   12970:	000b0593          	mv	a1,s6
   12974:	000b8513          	mv	a0,s7
   12978:	55d080ef          	jal	ra,1b6d4 <__sprint_r>
   1297c:	00050463          	beqz	a0,12984 <_vfprintf_r+0x22cc>
   12980:	fa9fd06f          	j	10928 <_vfprintf_r+0x270>
   12984:	0e812603          	lw	a2,232(sp)
   12988:	02813703          	ld	a4,40(sp)
   1298c:	12013783          	ld	a5,288(sp)
   12990:	000c0313          	mv	t1,s8
   12994:	40c7063b          	subw	a2,a4,a2
   12998:	9fcff06f          	j	11b94 <_vfprintf_r+0x14dc>
   1299c:	0b013783          	ld	a5,176(sp)
   129a0:	06013703          	ld	a4,96(sp)
   129a4:	0017f793          	andi	a5,a5,1
   129a8:	00fee7b3          	or	a5,t4,a5
   129ac:	0007879b          	sext.w	a5,a5
   129b0:	38e05863          	blez	a4,12d40 <_vfprintf_r+0x2688>
   129b4:	36079263          	bnez	a5,12d18 <_vfprintf_r+0x2660>
   129b8:	06013c83          	ld	s9,96(sp)
   129bc:	06600493          	li	s1,102
   129c0:	0b013783          	ld	a5,176(sp)
   129c4:	4007f793          	andi	a5,a5,1024
   129c8:	2a079a63          	bnez	a5,12c7c <_vfprintf_r+0x25c4>
   129cc:	fffcca93          	not	s5,s9
   129d0:	43fada93          	srai	s5,s5,0x3f
   129d4:	015cfab3          	and	s5,s9,s5
   129d8:	000a8a9b          	sext.w	s5,s5
   129dc:	e7dff06f          	j	12858 <_vfprintf_r+0x21a0>
   129e0:	02813703          	ld	a4,40(sp)
   129e4:	07813783          	ld	a5,120(sp)
   129e8:	06700493          	li	s1,103
   129ec:	00e78cbb          	addw	s9,a5,a4
   129f0:	06013703          	ld	a4,96(sp)
   129f4:	fce046e3          	bgtz	a4,129c0 <_vfprintf_r+0x2308>
   129f8:	40ec87bb          	subw	a5,s9,a4
   129fc:	0017879b          	addiw	a5,a5,1
   12a00:	00078c9b          	sext.w	s9,a5
   12a04:	fffcca93          	not	s5,s9
   12a08:	43fada93          	srai	s5,s5,0x3f
   12a0c:	0157f7b3          	and	a5,a5,s5
   12a10:	00078a9b          	sext.w	s5,a5
   12a14:	e45ff06f          	j	12858 <_vfprintf_r+0x21a0>
   12a18:	ff000613          	li	a2,-16
   12a1c:	40b004bb          	negw	s1,a1
   12a20:	06c5d463          	bge	a1,a2,12a88 <_vfprintf_r+0x23d0>
   12a24:	00700c93          	li	s9,7
   12a28:	00c0006f          	j	12a34 <_vfprintf_r+0x237c>
   12a2c:	ff04849b          	addiw	s1,s1,-16
   12a30:	049ddc63          	bge	s11,s1,12a88 <_vfprintf_r+0x23d0>
   12a34:	0016869b          	addiw	a3,a3,1
   12a38:	01078793          	addi	a5,a5,16
   12a3c:	01333023          	sd	s3,0(t1)
   12a40:	01b33423          	sd	s11,8(t1)
   12a44:	12f13023          	sd	a5,288(sp)
   12a48:	10d12c23          	sw	a3,280(sp)
   12a4c:	01030313          	addi	t1,t1,16
   12a50:	fcdcdee3          	bge	s9,a3,12a2c <_vfprintf_r+0x2374>
   12a54:	11010613          	addi	a2,sp,272
   12a58:	000b0593          	mv	a1,s6
   12a5c:	000b8513          	mv	a0,s7
   12a60:	475080ef          	jal	ra,1b6d4 <__sprint_r>
   12a64:	00050463          	beqz	a0,12a6c <_vfprintf_r+0x23b4>
   12a68:	ec1fd06f          	j	10928 <_vfprintf_r+0x270>
   12a6c:	12013783          	ld	a5,288(sp)
   12a70:	11812683          	lw	a3,280(sp)
   12a74:	000c0313          	mv	t1,s8
   12a78:	fb5ff06f          	j	12a2c <_vfprintf_r+0x2374>
   12a7c:	fff00793          	li	a5,-1
   12a80:	00f13423          	sd	a5,8(sp)
   12a84:	ec9fd06f          	j	1094c <_vfprintf_r+0x294>
   12a88:	0016869b          	addiw	a3,a3,1
   12a8c:	009787b3          	add	a5,a5,s1
   12a90:	01333023          	sd	s3,0(t1)
   12a94:	00933423          	sd	s1,8(t1)
   12a98:	12f13023          	sd	a5,288(sp)
   12a9c:	10d12c23          	sw	a3,280(sp)
   12aa0:	00700613          	li	a2,7
   12aa4:	c6d65063          	bge	a2,a3,11f04 <_vfprintf_r+0x184c>
   12aa8:	11010613          	addi	a2,sp,272
   12aac:	000b0593          	mv	a1,s6
   12ab0:	000b8513          	mv	a0,s7
   12ab4:	421080ef          	jal	ra,1b6d4 <__sprint_r>
   12ab8:	00050463          	beqz	a0,12ac0 <_vfprintf_r+0x2408>
   12abc:	e6dfd06f          	j	10928 <_vfprintf_r+0x270>
   12ac0:	12013783          	ld	a5,288(sp)
   12ac4:	11812683          	lw	a3,280(sp)
   12ac8:	000c0313          	mv	t1,s8
   12acc:	f88fe06f          	j	11254 <_vfprintf_r+0xb9c>
   12ad0:	01813703          	ld	a4,24(sp)
   12ad4:	00078693          	mv	a3,a5
   12ad8:	0ee13c23          	sd	a4,248(sp)
   12adc:	06013703          	ld	a4,96(sp)
   12ae0:	fff7c603          	lbu	a2,-1(a5)
   12ae4:	00f74583          	lbu	a1,15(a4)
   12ae8:	02c59063          	bne	a1,a2,12b08 <_vfprintf_r+0x2450>
   12aec:	03000513          	li	a0,48
   12af0:	fea68fa3          	sb	a0,-1(a3)
   12af4:	0f813683          	ld	a3,248(sp)
   12af8:	fff68613          	addi	a2,a3,-1
   12afc:	0ec13c23          	sd	a2,248(sp)
   12b00:	fff6c603          	lbu	a2,-1(a3)
   12b04:	fec586e3          	beq	a1,a2,12af0 <_vfprintf_r+0x2438>
   12b08:	0016059b          	addiw	a1,a2,1
   12b0c:	03900513          	li	a0,57
   12b10:	0ff5f593          	andi	a1,a1,255
   12b14:	00a60663          	beq	a2,a0,12b20 <_vfprintf_r+0x2468>
   12b18:	feb68fa3          	sb	a1,-1(a3)
   12b1c:	938fe06f          	j	10c54 <_vfprintf_r+0x59c>
   12b20:	06013703          	ld	a4,96(sp)
   12b24:	00a74583          	lbu	a1,10(a4)
   12b28:	feb68fa3          	sb	a1,-1(a3)
   12b2c:	928fe06f          	j	10c54 <_vfprintf_r+0x59c>
   12b30:	03000793          	li	a5,48
   12b34:	0ef10023          	sb	a5,224(sp)
   12b38:	07800713          	li	a4,120
   12b3c:	975ff06f          	j	124b0 <_vfprintf_r+0x1df8>
   12b40:	001e859b          	addiw	a1,t4,1
   12b44:	000b8513          	mv	a0,s7
   12b48:	02613023          	sd	t1,32(sp)
   12b4c:	01d13c23          	sd	t4,24(sp)
   12b50:	164040ef          	jal	ra,16cb4 <_malloc_r>
   12b54:	00050d13          	mv	s10,a0
   12b58:	01813e83          	ld	t4,24(sp)
   12b5c:	02013303          	ld	t1,32(sp)
   12b60:	26050063          	beqz	a0,12dc0 <_vfprintf_r+0x2708>
   12b64:	02a13023          	sd	a0,32(sp)
   12b68:	969ff06f          	j	124d0 <_vfprintf_r+0x1e18>
   12b6c:	001e8a9b          	addiw	s5,t4,1
   12b70:	000a8713          	mv	a4,s5
   12b74:	000f0593          	mv	a1,t5
   12b78:	0f810893          	addi	a7,sp,248
   12b7c:	0ec10813          	addi	a6,sp,236
   12b80:	0e810793          	addi	a5,sp,232
   12b84:	00200693          	li	a3,2
   12b88:	000c8613          	mv	a2,s9
   12b8c:	000b8513          	mv	a0,s7
   12b90:	03d13423          	sd	t4,40(sp)
   12b94:	01e13c23          	sd	t5,24(sp)
   12b98:	311020ef          	jal	ra,156a8 <_ldtoa_r>
   12b9c:	00050d13          	mv	s10,a0
   12ba0:	01813f03          	ld	t5,24(sp)
   12ba4:	02813e83          	ld	t4,40(sp)
   12ba8:	03813303          	ld	t1,56(sp)
   12bac:	015d0ab3          	add	s5,s10,s5
   12bb0:	c05ff06f          	j	127b4 <_vfprintf_r+0x20fc>
   12bb4:	00f72023          	sw	a5,0(a4)
   12bb8:	00090d13          	mv	s10,s2
   12bbc:	de0fe06f          	j	1119c <_vfprintf_r+0xae4>
   12bc0:	000e8463          	beqz	t4,12bc8 <_vfprintf_r+0x2510>
   12bc4:	fe5fd06f          	j	10ba8 <_vfprintf_r+0x4f0>
   12bc8:	00100e93          	li	t4,1
   12bcc:	fddfd06f          	j	10ba8 <_vfprintf_r+0x4f0>
   12bd0:	00600e93          	li	t4,6
   12bd4:	fd5fd06f          	j	10ba8 <_vfprintf_r+0x4f0>
   12bd8:	000f0513          	mv	a0,t5
   12bdc:	000c8593          	mv	a1,s9
   12be0:	02613c23          	sd	t1,56(sp)
   12be4:	03d13423          	sd	t4,40(sp)
   12be8:	42d0e0ef          	jal	ra,21814 <__trunctfdf2>
   12bec:	0e810593          	addi	a1,sp,232
   12bf0:	44d050ef          	jal	ra,1883c <frexp>
   12bf4:	3010e0ef          	jal	ra,216f4 <__extenddftf2>
   12bf8:	0000f797          	auipc	a5,0xf
   12bfc:	36878793          	addi	a5,a5,872 # 21f60 <zeroes.4541+0x30>
   12c00:	0087b683          	ld	a3,8(a5)
   12c04:	00000613          	li	a2,0
   12c08:	6000d0ef          	jal	ra,20208 <__multf3>
   12c0c:	00000613          	li	a2,0
   12c10:	00000693          	li	a3,0
   12c14:	00050c93          	mv	s9,a0
   12c18:	00b13c23          	sd	a1,24(sp)
   12c1c:	3440d0ef          	jal	ra,1ff60 <__eqtf2>
   12c20:	01813f83          	ld	t6,24(sp)
   12c24:	02813e83          	ld	t4,40(sp)
   12c28:	03813303          	ld	t1,56(sp)
   12c2c:	00051663          	bnez	a0,12c38 <_vfprintf_r+0x2580>
   12c30:	00100793          	li	a5,1
   12c34:	0ef12423          	sw	a5,232(sp)
   12c38:	0000f797          	auipc	a5,0xf
   12c3c:	35878793          	addi	a5,a5,856 # 21f90 <zeroes.4541+0x60>
   12c40:	06f13023          	sd	a5,96(sp)
   12c44:	92dff06f          	j	12570 <_vfprintf_r+0x1eb8>
   12c48:	0f210693          	addi	a3,sp,242
   12c4c:	00061863          	bnez	a2,12c5c <_vfprintf_r+0x25a4>
   12c50:	03000793          	li	a5,48
   12c54:	0ef10923          	sb	a5,242(sp)
   12c58:	0f310693          	addi	a3,sp,243
   12c5c:	21010713          	addi	a4,sp,528
   12c60:	030a879b          	addiw	a5,s5,48
   12c64:	40e68633          	sub	a2,a3,a4
   12c68:	00f68023          	sb	a5,0(a3)
   12c6c:	1216079b          	addiw	a5,a2,289
   12c70:	08f13823          	sd	a5,144(sp)
   12c74:	904fe06f          	j	10d78 <_vfprintf_r+0x6c0>
   12c78:	06700493          	li	s1,103
   12c7c:	07013783          	ld	a5,112(sp)
   12c80:	04013c23          	sd	zero,88(sp)
   12c84:	06013423          	sd	zero,104(sp)
   12c88:	0007c783          	lbu	a5,0(a5)
   12c8c:	0ff00593          	li	a1,255
   12c90:	04b78863          	beq	a5,a1,12ce0 <_vfprintf_r+0x2628>
   12c94:	06013703          	ld	a4,96(sp)
   12c98:	0007869b          	sext.w	a3,a5
   12c9c:	04e6d263          	bge	a3,a4,12ce0 <_vfprintf_r+0x2628>
   12ca0:	07013503          	ld	a0,112(sp)
   12ca4:	40d7073b          	subw	a4,a4,a3
   12ca8:	06e13023          	sd	a4,96(sp)
   12cac:	00154603          	lbu	a2,1(a0)
   12cb0:	02060063          	beqz	a2,12cd0 <_vfprintf_r+0x2618>
   12cb4:	06813783          	ld	a5,104(sp)
   12cb8:	0017879b          	addiw	a5,a5,1
   12cbc:	06f13423          	sd	a5,104(sp)
   12cc0:	00150793          	addi	a5,a0,1
   12cc4:	06f13823          	sd	a5,112(sp)
   12cc8:	00060793          	mv	a5,a2
   12ccc:	fc5ff06f          	j	12c90 <_vfprintf_r+0x25d8>
   12cd0:	05813703          	ld	a4,88(sp)
   12cd4:	0017071b          	addiw	a4,a4,1
   12cd8:	04e13c23          	sd	a4,88(sp)
   12cdc:	fb5ff06f          	j	12c90 <_vfprintf_r+0x25d8>
   12ce0:	06813783          	ld	a5,104(sp)
   12ce4:	05813703          	ld	a4,88(sp)
   12ce8:	08813583          	ld	a1,136(sp)
   12cec:	00613c23          	sd	t1,24(sp)
   12cf0:	00e7853b          	addw	a0,a5,a4
   12cf4:	6190e0ef          	jal	ra,21b0c <__muldi3>
   12cf8:	0195053b          	addw	a0,a0,s9
   12cfc:	00050c9b          	sext.w	s9,a0
   12d00:	fffcca93          	not	s5,s9
   12d04:	43fada93          	srai	s5,s5,0x3f
   12d08:	01557533          	and	a0,a0,s5
   12d0c:	00050a9b          	sext.w	s5,a0
   12d10:	01813303          	ld	t1,24(sp)
   12d14:	8b4fe06f          	j	10dc8 <_vfprintf_r+0x710>
   12d18:	07813783          	ld	a5,120(sp)
   12d1c:	06600493          	li	s1,102
   12d20:	00e78cbb          	addw	s9,a5,a4
   12d24:	01dc8cbb          	addw	s9,s9,t4
   12d28:	c99ff06f          	j	129c0 <_vfprintf_r+0x2308>
   12d2c:	0b013703          	ld	a4,176(sp)
   12d30:	00177693          	andi	a3,a4,1
   12d34:	00069463          	bnez	a3,12d3c <_vfprintf_r+0x2684>
   12d38:	864fe06f          	j	10d9c <_vfprintf_r+0x6e4>
   12d3c:	858fe06f          	j	10d94 <_vfprintf_r+0x6dc>
   12d40:	00079a63          	bnez	a5,12d54 <_vfprintf_r+0x269c>
   12d44:	00100a93          	li	s5,1
   12d48:	06600493          	li	s1,102
   12d4c:	00100c93          	li	s9,1
   12d50:	b09ff06f          	j	12858 <_vfprintf_r+0x21a0>
   12d54:	07813783          	ld	a5,120(sp)
   12d58:	06600493          	li	s1,102
   12d5c:	0017879b          	addiw	a5,a5,1
   12d60:	01d78ebb          	addw	t4,a5,t4
   12d64:	000e8c9b          	sext.w	s9,t4
   12d68:	fffcca93          	not	s5,s9
   12d6c:	43fada93          	srai	s5,s5,0x3f
   12d70:	015efeb3          	and	t4,t4,s5
   12d74:	000e8a9b          	sext.w	s5,t4
   12d78:	ae1ff06f          	j	12858 <_vfprintf_r+0x21a0>
   12d7c:	00030793          	mv	a5,t1
   12d80:	f99fe06f          	j	11d18 <_vfprintf_r+0x1660>
   12d84:	01013703          	ld	a4,16(sp)
   12d88:	00072e83          	lw	t4,0(a4)
   12d8c:	00870693          	addi	a3,a4,8
   12d90:	000ed463          	bgez	t4,12d98 <_vfprintf_r+0x26e0>
   12d94:	fff00e93          	li	t4,-1
   12d98:	00194483          	lbu	s1,1(s2)
   12d9c:	00d13823          	sd	a3,16(sp)
   12da0:	00078913          	mv	s2,a5
   12da4:	ab9fd06f          	j	1085c <_vfprintf_r+0x1a4>
   12da8:	000e8a93          	mv	s5,t4
   12dac:	015d0ab3          	add	s5,s10,s5
   12db0:	a05ff06f          	j	127b4 <_vfprintf_r+0x20fc>
   12db4:	00200793          	li	a5,2
   12db8:	08f13823          	sd	a5,144(sp)
   12dbc:	fbdfd06f          	j	10d78 <_vfprintf_r+0x6c0>
   12dc0:	010b5783          	lhu	a5,16(s6)
   12dc4:	0407e793          	ori	a5,a5,64
   12dc8:	00fb1823          	sh	a5,16(s6)
   12dcc:	b71fd06f          	j	1093c <_vfprintf_r+0x284>

0000000000012dd0 <vfprintf>:
   12dd0:	75818793          	addi	a5,gp,1880 # 24b78 <_impure_ptr>
   12dd4:	00060693          	mv	a3,a2
   12dd8:	00058613          	mv	a2,a1
   12ddc:	00050593          	mv	a1,a0
   12de0:	0007b503          	ld	a0,0(a5)
   12de4:	8d5fd06f          	j	106b8 <_vfprintf_r>

0000000000012de8 <__sbprintf>:
   12de8:	0105d783          	lhu	a5,16(a1)
   12dec:	0ac5ae03          	lw	t3,172(a1)
   12df0:	0125d303          	lhu	t1,18(a1)
   12df4:	0305b883          	ld	a7,48(a1)
   12df8:	0405b803          	ld	a6,64(a1)
   12dfc:	b3010113          	addi	sp,sp,-1232
   12e00:	ffd7f793          	andi	a5,a5,-3
   12e04:	40000713          	li	a4,1024
   12e08:	4c813023          	sd	s0,1216(sp)
   12e0c:	00f11823          	sh	a5,16(sp)
   12e10:	00058413          	mv	s0,a1
   12e14:	0b010793          	addi	a5,sp,176
   12e18:	00010593          	mv	a1,sp
   12e1c:	4a913c23          	sd	s1,1208(sp)
   12e20:	4b213823          	sd	s2,1200(sp)
   12e24:	4c113423          	sd	ra,1224(sp)
   12e28:	00050913          	mv	s2,a0
   12e2c:	0bc12623          	sw	t3,172(sp)
   12e30:	00611923          	sh	t1,18(sp)
   12e34:	03113823          	sd	a7,48(sp)
   12e38:	05013023          	sd	a6,64(sp)
   12e3c:	00f13023          	sd	a5,0(sp)
   12e40:	00f13c23          	sd	a5,24(sp)
   12e44:	00e12623          	sw	a4,12(sp)
   12e48:	02e12023          	sw	a4,32(sp)
   12e4c:	02012423          	sw	zero,40(sp)
   12e50:	869fd0ef          	jal	ra,106b8 <_vfprintf_r>
   12e54:	00050493          	mv	s1,a0
   12e58:	02055c63          	bgez	a0,12e90 <__sbprintf+0xa8>
   12e5c:	01015783          	lhu	a5,16(sp)
   12e60:	0407f793          	andi	a5,a5,64
   12e64:	00078863          	beqz	a5,12e74 <__sbprintf+0x8c>
   12e68:	01045783          	lhu	a5,16(s0)
   12e6c:	0407e793          	ori	a5,a5,64
   12e70:	00f41823          	sh	a5,16(s0)
   12e74:	4c813083          	ld	ra,1224(sp)
   12e78:	4c013403          	ld	s0,1216(sp)
   12e7c:	00048513          	mv	a0,s1
   12e80:	4b013903          	ld	s2,1200(sp)
   12e84:	4b813483          	ld	s1,1208(sp)
   12e88:	4d010113          	addi	sp,sp,1232
   12e8c:	00008067          	ret
   12e90:	00010593          	mv	a1,sp
   12e94:	00090513          	mv	a0,s2
   12e98:	5a4000ef          	jal	ra,1343c <_fflush_r>
   12e9c:	fc0500e3          	beqz	a0,12e5c <__sbprintf+0x74>
   12ea0:	fff00493          	li	s1,-1
   12ea4:	fb9ff06f          	j	12e5c <__sbprintf+0x74>

0000000000012ea8 <__swsetup_r>:
   12ea8:	75818793          	addi	a5,gp,1880 # 24b78 <_impure_ptr>
   12eac:	0007b783          	ld	a5,0(a5)
   12eb0:	fe010113          	addi	sp,sp,-32
   12eb4:	00813823          	sd	s0,16(sp)
   12eb8:	00913423          	sd	s1,8(sp)
   12ebc:	00113c23          	sd	ra,24(sp)
   12ec0:	00050493          	mv	s1,a0
   12ec4:	00058413          	mv	s0,a1
   12ec8:	00078663          	beqz	a5,12ed4 <__swsetup_r+0x2c>
   12ecc:	0507a703          	lw	a4,80(a5)
   12ed0:	08070663          	beqz	a4,12f5c <__swsetup_r+0xb4>
   12ed4:	01041703          	lh	a4,16(s0)
   12ed8:	03071793          	slli	a5,a4,0x30
   12edc:	0307d793          	srli	a5,a5,0x30
   12ee0:	0087f693          	andi	a3,a5,8
   12ee4:	08068a63          	beqz	a3,12f78 <__swsetup_r+0xd0>
   12ee8:	01843683          	ld	a3,24(s0)
   12eec:	0a068a63          	beqz	a3,12fa0 <__swsetup_r+0xf8>
   12ef0:	0017f713          	andi	a4,a5,1
   12ef4:	02070863          	beqz	a4,12f24 <__swsetup_r+0x7c>
   12ef8:	02042783          	lw	a5,32(s0)
   12efc:	00042623          	sw	zero,12(s0)
   12f00:	00000513          	li	a0,0
   12f04:	40f007bb          	negw	a5,a5
   12f08:	02f42423          	sw	a5,40(s0)
   12f0c:	02068a63          	beqz	a3,12f40 <__swsetup_r+0x98>
   12f10:	01813083          	ld	ra,24(sp)
   12f14:	01013403          	ld	s0,16(sp)
   12f18:	00813483          	ld	s1,8(sp)
   12f1c:	02010113          	addi	sp,sp,32
   12f20:	00008067          	ret
   12f24:	0027f793          	andi	a5,a5,2
   12f28:	00000713          	li	a4,0
   12f2c:	00079463          	bnez	a5,12f34 <__swsetup_r+0x8c>
   12f30:	02042703          	lw	a4,32(s0)
   12f34:	00e42623          	sw	a4,12(s0)
   12f38:	00000513          	li	a0,0
   12f3c:	fc069ae3          	bnez	a3,12f10 <__swsetup_r+0x68>
   12f40:	01041783          	lh	a5,16(s0)
   12f44:	0807f713          	andi	a4,a5,128
   12f48:	fc0704e3          	beqz	a4,12f10 <__swsetup_r+0x68>
   12f4c:	0407e793          	ori	a5,a5,64
   12f50:	00f41823          	sh	a5,16(s0)
   12f54:	fff00513          	li	a0,-1
   12f58:	fb9ff06f          	j	12f10 <__swsetup_r+0x68>
   12f5c:	00078513          	mv	a0,a5
   12f60:	085000ef          	jal	ra,137e4 <__sinit>
   12f64:	01041703          	lh	a4,16(s0)
   12f68:	03071793          	slli	a5,a4,0x30
   12f6c:	0307d793          	srli	a5,a5,0x30
   12f70:	0087f693          	andi	a3,a5,8
   12f74:	f6069ae3          	bnez	a3,12ee8 <__swsetup_r+0x40>
   12f78:	0107f693          	andi	a3,a5,16
   12f7c:	06068e63          	beqz	a3,12ff8 <__swsetup_r+0x150>
   12f80:	0047f793          	andi	a5,a5,4
   12f84:	04079063          	bnez	a5,12fc4 <__swsetup_r+0x11c>
   12f88:	01843683          	ld	a3,24(s0)
   12f8c:	00876793          	ori	a5,a4,8
   12f90:	00f41823          	sh	a5,16(s0)
   12f94:	03079793          	slli	a5,a5,0x30
   12f98:	0307d793          	srli	a5,a5,0x30
   12f9c:	f4069ae3          	bnez	a3,12ef0 <__swsetup_r+0x48>
   12fa0:	2807f713          	andi	a4,a5,640
   12fa4:	20000613          	li	a2,512
   12fa8:	f4c704e3          	beq	a4,a2,12ef0 <__swsetup_r+0x48>
   12fac:	00040593          	mv	a1,s0
   12fb0:	00048513          	mv	a0,s1
   12fb4:	3e1030ef          	jal	ra,16b94 <__smakebuf_r>
   12fb8:	01045783          	lhu	a5,16(s0)
   12fbc:	01843683          	ld	a3,24(s0)
   12fc0:	f31ff06f          	j	12ef0 <__swsetup_r+0x48>
   12fc4:	05843583          	ld	a1,88(s0)
   12fc8:	00058e63          	beqz	a1,12fe4 <__swsetup_r+0x13c>
   12fcc:	07440793          	addi	a5,s0,116
   12fd0:	00f58863          	beq	a1,a5,12fe0 <__swsetup_r+0x138>
   12fd4:	00048513          	mv	a0,s1
   12fd8:	18d000ef          	jal	ra,13964 <_free_r>
   12fdc:	01041703          	lh	a4,16(s0)
   12fe0:	04043c23          	sd	zero,88(s0)
   12fe4:	01843683          	ld	a3,24(s0)
   12fe8:	fdb77713          	andi	a4,a4,-37
   12fec:	00042423          	sw	zero,8(s0)
   12ff0:	00d43023          	sd	a3,0(s0)
   12ff4:	f99ff06f          	j	12f8c <__swsetup_r+0xe4>
   12ff8:	00900793          	li	a5,9
   12ffc:	00f4a023          	sw	a5,0(s1)
   13000:	04076713          	ori	a4,a4,64
   13004:	00e41823          	sh	a4,16(s0)
   13008:	fff00513          	li	a0,-1
   1300c:	f05ff06f          	j	12f10 <__swsetup_r+0x68>

0000000000013010 <__register_exitproc>:
   13010:	74818793          	addi	a5,gp,1864 # 24b68 <_global_impure_ptr>
   13014:	0007b703          	ld	a4,0(a5)
   13018:	1f873783          	ld	a5,504(a4)
   1301c:	06078063          	beqz	a5,1307c <__register_exitproc+0x6c>
   13020:	0087a703          	lw	a4,8(a5)
   13024:	01f00813          	li	a6,31
   13028:	08e84663          	blt	a6,a4,130b4 <__register_exitproc+0xa4>
   1302c:	02050863          	beqz	a0,1305c <__register_exitproc+0x4c>
   13030:	00371813          	slli	a6,a4,0x3
   13034:	01078833          	add	a6,a5,a6
   13038:	10c83823          	sd	a2,272(a6)
   1303c:	3107a883          	lw	a7,784(a5)
   13040:	00100613          	li	a2,1
   13044:	00e6163b          	sllw	a2,a2,a4
   13048:	00c8e8b3          	or	a7,a7,a2
   1304c:	3117a823          	sw	a7,784(a5)
   13050:	20d83823          	sd	a3,528(a6)
   13054:	00200693          	li	a3,2
   13058:	02d50863          	beq	a0,a3,13088 <__register_exitproc+0x78>
   1305c:	00270693          	addi	a3,a4,2
   13060:	00369693          	slli	a3,a3,0x3
   13064:	0017071b          	addiw	a4,a4,1
   13068:	00e7a423          	sw	a4,8(a5)
   1306c:	00d787b3          	add	a5,a5,a3
   13070:	00b7b023          	sd	a1,0(a5)
   13074:	00000513          	li	a0,0
   13078:	00008067          	ret
   1307c:	20070793          	addi	a5,a4,512
   13080:	1ef73c23          	sd	a5,504(a4)
   13084:	f9dff06f          	j	13020 <__register_exitproc+0x10>
   13088:	3147a683          	lw	a3,788(a5)
   1308c:	00000513          	li	a0,0
   13090:	00c6e633          	or	a2,a3,a2
   13094:	00270693          	addi	a3,a4,2
   13098:	00369693          	slli	a3,a3,0x3
   1309c:	0017071b          	addiw	a4,a4,1
   130a0:	30c7aa23          	sw	a2,788(a5)
   130a4:	00e7a423          	sw	a4,8(a5)
   130a8:	00d787b3          	add	a5,a5,a3
   130ac:	00b7b023          	sd	a1,0(a5)
   130b0:	00008067          	ret
   130b4:	fff00513          	li	a0,-1
   130b8:	00008067          	ret

00000000000130bc <__call_exitprocs>:
   130bc:	fb010113          	addi	sp,sp,-80
   130c0:	74818793          	addi	a5,gp,1864 # 24b68 <_global_impure_ptr>
   130c4:	01813023          	sd	s8,0(sp)
   130c8:	0007bc03          	ld	s8,0(a5)
   130cc:	03313423          	sd	s3,40(sp)
   130d0:	03413023          	sd	s4,32(sp)
   130d4:	01513c23          	sd	s5,24(sp)
   130d8:	01613823          	sd	s6,16(sp)
   130dc:	04113423          	sd	ra,72(sp)
   130e0:	04813023          	sd	s0,64(sp)
   130e4:	02913c23          	sd	s1,56(sp)
   130e8:	03213823          	sd	s2,48(sp)
   130ec:	01713423          	sd	s7,8(sp)
   130f0:	00050a93          	mv	s5,a0
   130f4:	00058b13          	mv	s6,a1
   130f8:	00100a13          	li	s4,1
   130fc:	fff00993          	li	s3,-1
   13100:	1f8c3903          	ld	s2,504(s8)
   13104:	02090863          	beqz	s2,13134 <__call_exitprocs+0x78>
   13108:	00892483          	lw	s1,8(s2)
   1310c:	fff4841b          	addiw	s0,s1,-1
   13110:	02044263          	bltz	s0,13134 <__call_exitprocs+0x78>
   13114:	00349493          	slli	s1,s1,0x3
   13118:	009904b3          	add	s1,s2,s1
   1311c:	040b0463          	beqz	s6,13164 <__call_exitprocs+0xa8>
   13120:	2084b783          	ld	a5,520(s1)
   13124:	05678063          	beq	a5,s6,13164 <__call_exitprocs+0xa8>
   13128:	fff4041b          	addiw	s0,s0,-1
   1312c:	ff848493          	addi	s1,s1,-8
   13130:	ff3416e3          	bne	s0,s3,1311c <__call_exitprocs+0x60>
   13134:	04813083          	ld	ra,72(sp)
   13138:	04013403          	ld	s0,64(sp)
   1313c:	03813483          	ld	s1,56(sp)
   13140:	03013903          	ld	s2,48(sp)
   13144:	02813983          	ld	s3,40(sp)
   13148:	02013a03          	ld	s4,32(sp)
   1314c:	01813a83          	ld	s5,24(sp)
   13150:	01013b03          	ld	s6,16(sp)
   13154:	00813b83          	ld	s7,8(sp)
   13158:	00013c03          	ld	s8,0(sp)
   1315c:	05010113          	addi	sp,sp,80
   13160:	00008067          	ret
   13164:	00892783          	lw	a5,8(s2)
   13168:	0084b703          	ld	a4,8(s1)
   1316c:	fff7879b          	addiw	a5,a5,-1
   13170:	04878e63          	beq	a5,s0,131cc <__call_exitprocs+0x110>
   13174:	0004b423          	sd	zero,8(s1)
   13178:	fa0708e3          	beqz	a4,13128 <__call_exitprocs+0x6c>
   1317c:	31092783          	lw	a5,784(s2)
   13180:	008a16bb          	sllw	a3,s4,s0
   13184:	00892b83          	lw	s7,8(s2)
   13188:	00d7f7b3          	and	a5,a5,a3
   1318c:	0007879b          	sext.w	a5,a5
   13190:	00079e63          	bnez	a5,131ac <__call_exitprocs+0xf0>
   13194:	000700e7          	jalr	a4
   13198:	00892783          	lw	a5,8(s2)
   1319c:	f77792e3          	bne	a5,s7,13100 <__call_exitprocs+0x44>
   131a0:	1f8c3783          	ld	a5,504(s8)
   131a4:	f92782e3          	beq	a5,s2,13128 <__call_exitprocs+0x6c>
   131a8:	f59ff06f          	j	13100 <__call_exitprocs+0x44>
   131ac:	31492783          	lw	a5,788(s2)
   131b0:	1084b583          	ld	a1,264(s1)
   131b4:	00d7f7b3          	and	a5,a5,a3
   131b8:	0007879b          	sext.w	a5,a5
   131bc:	00079c63          	bnez	a5,131d4 <__call_exitprocs+0x118>
   131c0:	000a8513          	mv	a0,s5
   131c4:	000700e7          	jalr	a4
   131c8:	fd1ff06f          	j	13198 <__call_exitprocs+0xdc>
   131cc:	00892423          	sw	s0,8(s2)
   131d0:	fa9ff06f          	j	13178 <__call_exitprocs+0xbc>
   131d4:	00058513          	mv	a0,a1
   131d8:	000700e7          	jalr	a4
   131dc:	fbdff06f          	j	13198 <__call_exitprocs+0xdc>

00000000000131e0 <__sflush_r>:
   131e0:	01059783          	lh	a5,16(a1)
   131e4:	fd010113          	addi	sp,sp,-48
   131e8:	02813023          	sd	s0,32(sp)
   131ec:	03079713          	slli	a4,a5,0x30
   131f0:	03075713          	srli	a4,a4,0x30
   131f4:	01313423          	sd	s3,8(sp)
   131f8:	02113423          	sd	ra,40(sp)
   131fc:	00913c23          	sd	s1,24(sp)
   13200:	01213823          	sd	s2,16(sp)
   13204:	00877693          	andi	a3,a4,8
   13208:	00058413          	mv	s0,a1
   1320c:	00050993          	mv	s3,a0
   13210:	10069a63          	bnez	a3,13324 <__sflush_r+0x144>
   13214:	00001737          	lui	a4,0x1
   13218:	80070713          	addi	a4,a4,-2048 # 800 <main-0xf8b0>
   1321c:	0085a683          	lw	a3,8(a1)
   13220:	00e7e7b3          	or	a5,a5,a4
   13224:	00f59823          	sh	a5,16(a1)
   13228:	18d05063          	blez	a3,133a8 <__sflush_r+0x1c8>
   1322c:	04843703          	ld	a4,72(s0)
   13230:	0c070a63          	beqz	a4,13304 <__sflush_r+0x124>
   13234:	03079793          	slli	a5,a5,0x30
   13238:	0307d793          	srli	a5,a5,0x30
   1323c:	0009a483          	lw	s1,0(s3)
   13240:	03379693          	slli	a3,a5,0x33
   13244:	0009a023          	sw	zero,0(s3)
   13248:	03043583          	ld	a1,48(s0)
   1324c:	1606c463          	bltz	a3,133b4 <__sflush_r+0x1d4>
   13250:	00000613          	li	a2,0
   13254:	00100693          	li	a3,1
   13258:	00098513          	mv	a0,s3
   1325c:	000700e7          	jalr	a4
   13260:	fff00793          	li	a5,-1
   13264:	00050613          	mv	a2,a0
   13268:	18f50663          	beq	a0,a5,133f4 <__sflush_r+0x214>
   1326c:	01045783          	lhu	a5,16(s0)
   13270:	04843703          	ld	a4,72(s0)
   13274:	03043583          	ld	a1,48(s0)
   13278:	0047f793          	andi	a5,a5,4
   1327c:	00078e63          	beqz	a5,13298 <__sflush_r+0xb8>
   13280:	00842683          	lw	a3,8(s0)
   13284:	05843783          	ld	a5,88(s0)
   13288:	40d60633          	sub	a2,a2,a3
   1328c:	00078663          	beqz	a5,13298 <__sflush_r+0xb8>
   13290:	07042783          	lw	a5,112(s0)
   13294:	40f60633          	sub	a2,a2,a5
   13298:	00000693          	li	a3,0
   1329c:	00098513          	mv	a0,s3
   132a0:	000700e7          	jalr	a4
   132a4:	fff00793          	li	a5,-1
   132a8:	10f51a63          	bne	a0,a5,133bc <__sflush_r+0x1dc>
   132ac:	0009a703          	lw	a4,0(s3)
   132b0:	01041783          	lh	a5,16(s0)
   132b4:	16070263          	beqz	a4,13418 <__sflush_r+0x238>
   132b8:	01d00693          	li	a3,29
   132bc:	00d70663          	beq	a4,a3,132c8 <__sflush_r+0xe8>
   132c0:	01600693          	li	a3,22
   132c4:	16d71463          	bne	a4,a3,1342c <__sflush_r+0x24c>
   132c8:	01843683          	ld	a3,24(s0)
   132cc:	fffff737          	lui	a4,0xfffff
   132d0:	7ff70713          	addi	a4,a4,2047 # fffffffffffff7ff <__BSS_END__+0xfffffffffffdabdf>
   132d4:	00e7f7b3          	and	a5,a5,a4
   132d8:	00f41823          	sh	a5,16(s0)
   132dc:	00042423          	sw	zero,8(s0)
   132e0:	00d43023          	sd	a3,0(s0)
   132e4:	05843583          	ld	a1,88(s0)
   132e8:	0099a023          	sw	s1,0(s3)
   132ec:	00058c63          	beqz	a1,13304 <__sflush_r+0x124>
   132f0:	07440793          	addi	a5,s0,116
   132f4:	00f58663          	beq	a1,a5,13300 <__sflush_r+0x120>
   132f8:	00098513          	mv	a0,s3
   132fc:	668000ef          	jal	ra,13964 <_free_r>
   13300:	04043c23          	sd	zero,88(s0)
   13304:	00000513          	li	a0,0
   13308:	02813083          	ld	ra,40(sp)
   1330c:	02013403          	ld	s0,32(sp)
   13310:	01813483          	ld	s1,24(sp)
   13314:	01013903          	ld	s2,16(sp)
   13318:	00813983          	ld	s3,8(sp)
   1331c:	03010113          	addi	sp,sp,48
   13320:	00008067          	ret
   13324:	0185b903          	ld	s2,24(a1)
   13328:	fc090ee3          	beqz	s2,13304 <__sflush_r+0x124>
   1332c:	0005b483          	ld	s1,0(a1)
   13330:	00377713          	andi	a4,a4,3
   13334:	0125b023          	sd	s2,0(a1)
   13338:	412484bb          	subw	s1,s1,s2
   1333c:	00000793          	li	a5,0
   13340:	00071463          	bnez	a4,13348 <__sflush_r+0x168>
   13344:	0205a783          	lw	a5,32(a1)
   13348:	00f42623          	sw	a5,12(s0)
   1334c:	00904863          	bgtz	s1,1335c <__sflush_r+0x17c>
   13350:	fb5ff06f          	j	13304 <__sflush_r+0x124>
   13354:	00a90933          	add	s2,s2,a0
   13358:	fa9056e3          	blez	s1,13304 <__sflush_r+0x124>
   1335c:	04043783          	ld	a5,64(s0)
   13360:	03043583          	ld	a1,48(s0)
   13364:	00048693          	mv	a3,s1
   13368:	00090613          	mv	a2,s2
   1336c:	00098513          	mv	a0,s3
   13370:	000780e7          	jalr	a5
   13374:	40a484bb          	subw	s1,s1,a0
   13378:	fca04ee3          	bgtz	a0,13354 <__sflush_r+0x174>
   1337c:	01045783          	lhu	a5,16(s0)
   13380:	02813083          	ld	ra,40(sp)
   13384:	01813483          	ld	s1,24(sp)
   13388:	0407e793          	ori	a5,a5,64
   1338c:	00f41823          	sh	a5,16(s0)
   13390:	02013403          	ld	s0,32(sp)
   13394:	01013903          	ld	s2,16(sp)
   13398:	00813983          	ld	s3,8(sp)
   1339c:	fff00513          	li	a0,-1
   133a0:	03010113          	addi	sp,sp,48
   133a4:	00008067          	ret
   133a8:	0705a703          	lw	a4,112(a1)
   133ac:	e8e040e3          	bgtz	a4,1322c <__sflush_r+0x4c>
   133b0:	f55ff06f          	j	13304 <__sflush_r+0x124>
   133b4:	09043603          	ld	a2,144(s0)
   133b8:	ec1ff06f          	j	13278 <__sflush_r+0x98>
   133bc:	01045783          	lhu	a5,16(s0)
   133c0:	fffff737          	lui	a4,0xfffff
   133c4:	7ff70713          	addi	a4,a4,2047 # fffffffffffff7ff <__BSS_END__+0xfffffffffffdabdf>
   133c8:	00e7f7b3          	and	a5,a5,a4
   133cc:	01843683          	ld	a3,24(s0)
   133d0:	0107979b          	slliw	a5,a5,0x10
   133d4:	4107d79b          	sraiw	a5,a5,0x10
   133d8:	00f41823          	sh	a5,16(s0)
   133dc:	00042423          	sw	zero,8(s0)
   133e0:	00d43023          	sd	a3,0(s0)
   133e4:	03379713          	slli	a4,a5,0x33
   133e8:	ee075ee3          	bgez	a4,132e4 <__sflush_r+0x104>
   133ec:	08a43823          	sd	a0,144(s0)
   133f0:	ef5ff06f          	j	132e4 <__sflush_r+0x104>
   133f4:	0009a783          	lw	a5,0(s3)
   133f8:	e6078ae3          	beqz	a5,1326c <__sflush_r+0x8c>
   133fc:	01d00713          	li	a4,29
   13400:	00e78663          	beq	a5,a4,1340c <__sflush_r+0x22c>
   13404:	01600713          	li	a4,22
   13408:	f6e79ae3          	bne	a5,a4,1337c <__sflush_r+0x19c>
   1340c:	0099a023          	sw	s1,0(s3)
   13410:	00000513          	li	a0,0
   13414:	ef5ff06f          	j	13308 <__sflush_r+0x128>
   13418:	fffff737          	lui	a4,0xfffff
   1341c:	7ff70713          	addi	a4,a4,2047 # fffffffffffff7ff <__BSS_END__+0xfffffffffffdabdf>
   13420:	01843683          	ld	a3,24(s0)
   13424:	00e7f7b3          	and	a5,a5,a4
   13428:	fb1ff06f          	j	133d8 <__sflush_r+0x1f8>
   1342c:	0407e793          	ori	a5,a5,64
   13430:	00f41823          	sh	a5,16(s0)
   13434:	fff00513          	li	a0,-1
   13438:	ed1ff06f          	j	13308 <__sflush_r+0x128>

000000000001343c <_fflush_r>:
   1343c:	fe010113          	addi	sp,sp,-32
   13440:	00813823          	sd	s0,16(sp)
   13444:	00113c23          	sd	ra,24(sp)
   13448:	00050413          	mv	s0,a0
   1344c:	00050663          	beqz	a0,13458 <_fflush_r+0x1c>
   13450:	05052783          	lw	a5,80(a0)
   13454:	02078063          	beqz	a5,13474 <_fflush_r+0x38>
   13458:	01059783          	lh	a5,16(a1)
   1345c:	02079663          	bnez	a5,13488 <_fflush_r+0x4c>
   13460:	01813083          	ld	ra,24(sp)
   13464:	01013403          	ld	s0,16(sp)
   13468:	00000513          	li	a0,0
   1346c:	02010113          	addi	sp,sp,32
   13470:	00008067          	ret
   13474:	00b13423          	sd	a1,8(sp)
   13478:	36c000ef          	jal	ra,137e4 <__sinit>
   1347c:	00813583          	ld	a1,8(sp)
   13480:	01059783          	lh	a5,16(a1)
   13484:	fc078ee3          	beqz	a5,13460 <_fflush_r+0x24>
   13488:	00040513          	mv	a0,s0
   1348c:	01013403          	ld	s0,16(sp)
   13490:	01813083          	ld	ra,24(sp)
   13494:	02010113          	addi	sp,sp,32
   13498:	d49ff06f          	j	131e0 <__sflush_r>

000000000001349c <fflush>:
   1349c:	00050593          	mv	a1,a0
   134a0:	00050863          	beqz	a0,134b0 <fflush+0x14>
   134a4:	75818793          	addi	a5,gp,1880 # 24b78 <_impure_ptr>
   134a8:	0007b503          	ld	a0,0(a5)
   134ac:	f91ff06f          	j	1343c <_fflush_r>
   134b0:	74818793          	addi	a5,gp,1864 # 24b68 <_global_impure_ptr>
   134b4:	0007b503          	ld	a0,0(a5)
   134b8:	00000597          	auipc	a1,0x0
   134bc:	f8458593          	addi	a1,a1,-124 # 1343c <_fflush_r>
   134c0:	0c10006f          	j	13d80 <_fwalk_reent>

00000000000134c4 <__fp_lock>:
   134c4:	00000513          	li	a0,0
   134c8:	00008067          	ret

00000000000134cc <_cleanup_r>:
   134cc:	00009597          	auipc	a1,0x9
   134d0:	63858593          	addi	a1,a1,1592 # 1cb04 <_fclose_r>
   134d4:	0ad0006f          	j	13d80 <_fwalk_reent>

00000000000134d8 <__sinit.part.0>:
   134d8:	fc010113          	addi	sp,sp,-64
   134dc:	02113c23          	sd	ra,56(sp)
   134e0:	02813823          	sd	s0,48(sp)
   134e4:	02913423          	sd	s1,40(sp)
   134e8:	03213023          	sd	s2,32(sp)
   134ec:	01313c23          	sd	s3,24(sp)
   134f0:	01413823          	sd	s4,16(sp)
   134f4:	01513423          	sd	s5,8(sp)
   134f8:	01613023          	sd	s6,0(sp)
   134fc:	00853403          	ld	s0,8(a0)
   13500:	00000717          	auipc	a4,0x0
   13504:	fcc70713          	addi	a4,a4,-52 # 134cc <_cleanup_r>
   13508:	04e53c23          	sd	a4,88(a0)
   1350c:	53850793          	addi	a5,a0,1336
   13510:	00300713          	li	a4,3
   13514:	52e52423          	sw	a4,1320(a0)
   13518:	52f53823          	sd	a5,1328(a0)
   1351c:	52053023          	sd	zero,1312(a0)
   13520:	00400793          	li	a5,4
   13524:	00050913          	mv	s2,a0
   13528:	00f42823          	sw	a5,16(s0)
   1352c:	00800613          	li	a2,8
   13530:	00000593          	li	a1,0
   13534:	0a042623          	sw	zero,172(s0)
   13538:	00043023          	sd	zero,0(s0)
   1353c:	00043423          	sd	zero,8(s0)
   13540:	00043c23          	sd	zero,24(s0)
   13544:	02042023          	sw	zero,32(s0)
   13548:	02042423          	sw	zero,40(s0)
   1354c:	0a440513          	addi	a0,s0,164
   13550:	ff5fc0ef          	jal	ra,10544 <memset>
   13554:	01093483          	ld	s1,16(s2)
   13558:	00005b17          	auipc	s6,0x5
   1355c:	490b0b13          	addi	s6,s6,1168 # 189e8 <__sread>
   13560:	00005a97          	auipc	s5,0x5
   13564:	4eca8a93          	addi	s5,s5,1260 # 18a4c <__swrite>
   13568:	00005a17          	auipc	s4,0x5
   1356c:	56ca0a13          	addi	s4,s4,1388 # 18ad4 <__sseek>
   13570:	00005997          	auipc	s3,0x5
   13574:	5cc98993          	addi	s3,s3,1484 # 18b3c <__sclose>
   13578:	000107b7          	lui	a5,0x10
   1357c:	03643c23          	sd	s6,56(s0)
   13580:	05543023          	sd	s5,64(s0)
   13584:	05443423          	sd	s4,72(s0)
   13588:	05343823          	sd	s3,80(s0)
   1358c:	02843823          	sd	s0,48(s0)
   13590:	00978793          	addi	a5,a5,9 # 10009 <main-0xa7>
   13594:	00f4a823          	sw	a5,16(s1)
   13598:	00800613          	li	a2,8
   1359c:	00000593          	li	a1,0
   135a0:	0a04a623          	sw	zero,172(s1)
   135a4:	0004b023          	sd	zero,0(s1)
   135a8:	0004b423          	sd	zero,8(s1)
   135ac:	0004bc23          	sd	zero,24(s1)
   135b0:	0204a023          	sw	zero,32(s1)
   135b4:	0204a423          	sw	zero,40(s1)
   135b8:	0a448513          	addi	a0,s1,164
   135bc:	f89fc0ef          	jal	ra,10544 <memset>
   135c0:	01893403          	ld	s0,24(s2)
   135c4:	000207b7          	lui	a5,0x20
   135c8:	0364bc23          	sd	s6,56(s1)
   135cc:	0554b023          	sd	s5,64(s1)
   135d0:	0544b423          	sd	s4,72(s1)
   135d4:	0534b823          	sd	s3,80(s1)
   135d8:	0294b823          	sd	s1,48(s1)
   135dc:	01278793          	addi	a5,a5,18 # 20012 <__eqtf2+0xb2>
   135e0:	00f42823          	sw	a5,16(s0)
   135e4:	0a042623          	sw	zero,172(s0)
   135e8:	00043023          	sd	zero,0(s0)
   135ec:	00043423          	sd	zero,8(s0)
   135f0:	00043c23          	sd	zero,24(s0)
   135f4:	02042023          	sw	zero,32(s0)
   135f8:	02042423          	sw	zero,40(s0)
   135fc:	0a440513          	addi	a0,s0,164
   13600:	00800613          	li	a2,8
   13604:	00000593          	li	a1,0
   13608:	f3dfc0ef          	jal	ra,10544 <memset>
   1360c:	03813083          	ld	ra,56(sp)
   13610:	03643c23          	sd	s6,56(s0)
   13614:	05543023          	sd	s5,64(s0)
   13618:	05443423          	sd	s4,72(s0)
   1361c:	05343823          	sd	s3,80(s0)
   13620:	02843823          	sd	s0,48(s0)
   13624:	03013403          	ld	s0,48(sp)
   13628:	00100793          	li	a5,1
   1362c:	04f92823          	sw	a5,80(s2)
   13630:	02813483          	ld	s1,40(sp)
   13634:	02013903          	ld	s2,32(sp)
   13638:	01813983          	ld	s3,24(sp)
   1363c:	01013a03          	ld	s4,16(sp)
   13640:	00813a83          	ld	s5,8(sp)
   13644:	00013b03          	ld	s6,0(sp)
   13648:	04010113          	addi	sp,sp,64
   1364c:	00008067          	ret

0000000000013650 <__fp_unlock>:
   13650:	00000513          	li	a0,0
   13654:	00008067          	ret

0000000000013658 <__sfmoreglue>:
   13658:	fe010113          	addi	sp,sp,-32
   1365c:	fff5861b          	addiw	a2,a1,-1
   13660:	00813823          	sd	s0,16(sp)
   13664:	00161413          	slli	s0,a2,0x1
   13668:	00c40433          	add	s0,s0,a2
   1366c:	00241413          	slli	s0,s0,0x2
   13670:	40c40433          	sub	s0,s0,a2
   13674:	00441413          	slli	s0,s0,0x4
   13678:	01213023          	sd	s2,0(sp)
   1367c:	00058913          	mv	s2,a1
   13680:	0c840593          	addi	a1,s0,200
   13684:	00913423          	sd	s1,8(sp)
   13688:	00113c23          	sd	ra,24(sp)
   1368c:	628030ef          	jal	ra,16cb4 <_malloc_r>
   13690:	00050493          	mv	s1,a0
   13694:	02050063          	beqz	a0,136b4 <__sfmoreglue+0x5c>
   13698:	01850513          	addi	a0,a0,24
   1369c:	0004b023          	sd	zero,0(s1)
   136a0:	0124a423          	sw	s2,8(s1)
   136a4:	00a4b823          	sd	a0,16(s1)
   136a8:	0b040613          	addi	a2,s0,176
   136ac:	00000593          	li	a1,0
   136b0:	e95fc0ef          	jal	ra,10544 <memset>
   136b4:	01813083          	ld	ra,24(sp)
   136b8:	01013403          	ld	s0,16(sp)
   136bc:	00048513          	mv	a0,s1
   136c0:	00013903          	ld	s2,0(sp)
   136c4:	00813483          	ld	s1,8(sp)
   136c8:	02010113          	addi	sp,sp,32
   136cc:	00008067          	ret

00000000000136d0 <__sfp>:
   136d0:	fd010113          	addi	sp,sp,-48
   136d4:	74818793          	addi	a5,gp,1864 # 24b68 <_global_impure_ptr>
   136d8:	01213823          	sd	s2,16(sp)
   136dc:	0007b903          	ld	s2,0(a5)
   136e0:	01313423          	sd	s3,8(sp)
   136e4:	02113423          	sd	ra,40(sp)
   136e8:	05092783          	lw	a5,80(s2)
   136ec:	02813023          	sd	s0,32(sp)
   136f0:	00913c23          	sd	s1,24(sp)
   136f4:	00050993          	mv	s3,a0
   136f8:	0a078463          	beqz	a5,137a0 <__sfp+0xd0>
   136fc:	52090913          	addi	s2,s2,1312
   13700:	fff00493          	li	s1,-1
   13704:	00892783          	lw	a5,8(s2)
   13708:	01093403          	ld	s0,16(s2)
   1370c:	fff7879b          	addiw	a5,a5,-1
   13710:	0007da63          	bgez	a5,13724 <__sfp+0x54>
   13714:	07c0006f          	j	13790 <__sfp+0xc0>
   13718:	fff7879b          	addiw	a5,a5,-1
   1371c:	0b040413          	addi	s0,s0,176
   13720:	06978863          	beq	a5,s1,13790 <__sfp+0xc0>
   13724:	01041703          	lh	a4,16(s0)
   13728:	fe0718e3          	bnez	a4,13718 <__sfp+0x48>
   1372c:	ffff07b7          	lui	a5,0xffff0
   13730:	00178793          	addi	a5,a5,1 # ffffffffffff0001 <__BSS_END__+0xfffffffffffcb3e1>
   13734:	0a042623          	sw	zero,172(s0)
   13738:	00043023          	sd	zero,0(s0)
   1373c:	00043423          	sd	zero,8(s0)
   13740:	00f42823          	sw	a5,16(s0)
   13744:	00043c23          	sd	zero,24(s0)
   13748:	02042023          	sw	zero,32(s0)
   1374c:	02042423          	sw	zero,40(s0)
   13750:	00800613          	li	a2,8
   13754:	00000593          	li	a1,0
   13758:	0a440513          	addi	a0,s0,164
   1375c:	de9fc0ef          	jal	ra,10544 <memset>
   13760:	04043c23          	sd	zero,88(s0)
   13764:	06042023          	sw	zero,96(s0)
   13768:	06043c23          	sd	zero,120(s0)
   1376c:	08042023          	sw	zero,128(s0)
   13770:	00040513          	mv	a0,s0
   13774:	02813083          	ld	ra,40(sp)
   13778:	02013403          	ld	s0,32(sp)
   1377c:	01813483          	ld	s1,24(sp)
   13780:	01013903          	ld	s2,16(sp)
   13784:	00813983          	ld	s3,8(sp)
   13788:	03010113          	addi	sp,sp,48
   1378c:	00008067          	ret
   13790:	00093403          	ld	s0,0(s2)
   13794:	00040c63          	beqz	s0,137ac <__sfp+0xdc>
   13798:	00040913          	mv	s2,s0
   1379c:	f69ff06f          	j	13704 <__sfp+0x34>
   137a0:	00090513          	mv	a0,s2
   137a4:	d35ff0ef          	jal	ra,134d8 <__sinit.part.0>
   137a8:	f55ff06f          	j	136fc <__sfp+0x2c>
   137ac:	00400593          	li	a1,4
   137b0:	00098513          	mv	a0,s3
   137b4:	ea5ff0ef          	jal	ra,13658 <__sfmoreglue>
   137b8:	00a93023          	sd	a0,0(s2)
   137bc:	00050413          	mv	s0,a0
   137c0:	fc051ce3          	bnez	a0,13798 <__sfp+0xc8>
   137c4:	00c00793          	li	a5,12
   137c8:	00f9a023          	sw	a5,0(s3)
   137cc:	fa5ff06f          	j	13770 <__sfp+0xa0>

00000000000137d0 <_cleanup>:
   137d0:	74818793          	addi	a5,gp,1864 # 24b68 <_global_impure_ptr>
   137d4:	0007b503          	ld	a0,0(a5)
   137d8:	00009597          	auipc	a1,0x9
   137dc:	32c58593          	addi	a1,a1,812 # 1cb04 <_fclose_r>
   137e0:	5a00006f          	j	13d80 <_fwalk_reent>

00000000000137e4 <__sinit>:
   137e4:	05052783          	lw	a5,80(a0)
   137e8:	00078463          	beqz	a5,137f0 <__sinit+0xc>
   137ec:	00008067          	ret
   137f0:	ce9ff06f          	j	134d8 <__sinit.part.0>

00000000000137f4 <__sfp_lock_acquire>:
   137f4:	00008067          	ret

00000000000137f8 <__sfp_lock_release>:
   137f8:	00008067          	ret

00000000000137fc <__sinit_lock_acquire>:
   137fc:	00008067          	ret

0000000000013800 <__sinit_lock_release>:
   13800:	00008067          	ret

0000000000013804 <__fp_lock_all>:
   13804:	75818793          	addi	a5,gp,1880 # 24b78 <_impure_ptr>
   13808:	0007b503          	ld	a0,0(a5)
   1380c:	00000597          	auipc	a1,0x0
   13810:	cb858593          	addi	a1,a1,-840 # 134c4 <__fp_lock>
   13814:	4980006f          	j	13cac <_fwalk>

0000000000013818 <__fp_unlock_all>:
   13818:	75818793          	addi	a5,gp,1880 # 24b78 <_impure_ptr>
   1381c:	0007b503          	ld	a0,0(a5)
   13820:	00000597          	auipc	a1,0x0
   13824:	e3058593          	addi	a1,a1,-464 # 13650 <__fp_unlock>
   13828:	4840006f          	j	13cac <_fwalk>

000000000001382c <_malloc_trim_r>:
   1382c:	fd010113          	addi	sp,sp,-48
   13830:	02813023          	sd	s0,32(sp)
   13834:	00913c23          	sd	s1,24(sp)
   13838:	01213823          	sd	s2,16(sp)
   1383c:	01313423          	sd	s3,8(sp)
   13840:	00058413          	mv	s0,a1
   13844:	02113423          	sd	ra,40(sp)
   13848:	00011997          	auipc	s3,0x11
   1384c:	ae098993          	addi	s3,s3,-1312 # 24328 <__malloc_av_>
   13850:	00050913          	mv	s2,a0
   13854:	61d030ef          	jal	ra,17670 <__malloc_lock>
   13858:	0109b683          	ld	a3,16(s3)
   1385c:	00001737          	lui	a4,0x1
   13860:	fdf70793          	addi	a5,a4,-33 # fdf <main-0xf0d1>
   13864:	0086b483          	ld	s1,8(a3)
   13868:	40878433          	sub	s0,a5,s0
   1386c:	ffc4f493          	andi	s1,s1,-4
   13870:	00940433          	add	s0,s0,s1
   13874:	00c45413          	srli	s0,s0,0xc
   13878:	fff40413          	addi	s0,s0,-1
   1387c:	00c41413          	slli	s0,s0,0xc
   13880:	00e44e63          	blt	s0,a4,1389c <_malloc_trim_r+0x70>
   13884:	00000593          	li	a1,0
   13888:	00090513          	mv	a0,s2
   1388c:	755040ef          	jal	ra,187e0 <_sbrk_r>
   13890:	0109b783          	ld	a5,16(s3)
   13894:	009787b3          	add	a5,a5,s1
   13898:	02f50663          	beq	a0,a5,138c4 <_malloc_trim_r+0x98>
   1389c:	00090513          	mv	a0,s2
   138a0:	5d5030ef          	jal	ra,17674 <__malloc_unlock>
   138a4:	02813083          	ld	ra,40(sp)
   138a8:	02013403          	ld	s0,32(sp)
   138ac:	01813483          	ld	s1,24(sp)
   138b0:	01013903          	ld	s2,16(sp)
   138b4:	00813983          	ld	s3,8(sp)
   138b8:	00000513          	li	a0,0
   138bc:	03010113          	addi	sp,sp,48
   138c0:	00008067          	ret
   138c4:	408005b3          	neg	a1,s0
   138c8:	00090513          	mv	a0,s2
   138cc:	715040ef          	jal	ra,187e0 <_sbrk_r>
   138d0:	fff00793          	li	a5,-1
   138d4:	04f50a63          	beq	a0,a5,13928 <_malloc_trim_r+0xfc>
   138d8:	00011797          	auipc	a5,0x11
   138dc:	31878793          	addi	a5,a5,792 # 24bf0 <__malloc_current_mallinfo>
   138e0:	0007a783          	lw	a5,0(a5)
   138e4:	0109b703          	ld	a4,16(s3)
   138e8:	408484b3          	sub	s1,s1,s0
   138ec:	0014e493          	ori	s1,s1,1
   138f0:	4087843b          	subw	s0,a5,s0
   138f4:	00090513          	mv	a0,s2
   138f8:	00973423          	sd	s1,8(a4)
   138fc:	00011797          	auipc	a5,0x11
   13900:	2e87aa23          	sw	s0,756(a5) # 24bf0 <__malloc_current_mallinfo>
   13904:	571030ef          	jal	ra,17674 <__malloc_unlock>
   13908:	02813083          	ld	ra,40(sp)
   1390c:	02013403          	ld	s0,32(sp)
   13910:	01813483          	ld	s1,24(sp)
   13914:	01013903          	ld	s2,16(sp)
   13918:	00813983          	ld	s3,8(sp)
   1391c:	00100513          	li	a0,1
   13920:	03010113          	addi	sp,sp,48
   13924:	00008067          	ret
   13928:	00000593          	li	a1,0
   1392c:	00090513          	mv	a0,s2
   13930:	6b1040ef          	jal	ra,187e0 <_sbrk_r>
   13934:	0109b703          	ld	a4,16(s3)
   13938:	01f00693          	li	a3,31
   1393c:	40e507b3          	sub	a5,a0,a4
   13940:	f4f6dee3          	bge	a3,a5,1389c <_malloc_trim_r+0x70>
   13944:	76018693          	addi	a3,gp,1888 # 24b80 <__malloc_sbrk_base>
   13948:	0006b683          	ld	a3,0(a3)
   1394c:	0017e793          	ori	a5,a5,1
   13950:	00f73423          	sd	a5,8(a4)
   13954:	40d50533          	sub	a0,a0,a3
   13958:	00011797          	auipc	a5,0x11
   1395c:	28a7ac23          	sw	a0,664(a5) # 24bf0 <__malloc_current_mallinfo>
   13960:	f3dff06f          	j	1389c <_malloc_trim_r+0x70>

0000000000013964 <_free_r>:
   13964:	14058263          	beqz	a1,13aa8 <_free_r+0x144>
   13968:	fe010113          	addi	sp,sp,-32
   1396c:	00813823          	sd	s0,16(sp)
   13970:	00913423          	sd	s1,8(sp)
   13974:	00058413          	mv	s0,a1
   13978:	00050493          	mv	s1,a0
   1397c:	00113c23          	sd	ra,24(sp)
   13980:	4f1030ef          	jal	ra,17670 <__malloc_lock>
   13984:	ff843583          	ld	a1,-8(s0)
   13988:	ff040713          	addi	a4,s0,-16
   1398c:	00011517          	auipc	a0,0x11
   13990:	99c50513          	addi	a0,a0,-1636 # 24328 <__malloc_av_>
   13994:	ffe5f793          	andi	a5,a1,-2
   13998:	00f70633          	add	a2,a4,a5
   1399c:	00863683          	ld	a3,8(a2)
   139a0:	01053803          	ld	a6,16(a0)
   139a4:	ffc6f693          	andi	a3,a3,-4
   139a8:	1ac80c63          	beq	a6,a2,13b60 <_free_r+0x1fc>
   139ac:	00d63423          	sd	a3,8(a2)
   139b0:	0015f593          	andi	a1,a1,1
   139b4:	00d60833          	add	a6,a2,a3
   139b8:	0a059863          	bnez	a1,13a68 <_free_r+0x104>
   139bc:	ff043303          	ld	t1,-16(s0)
   139c0:	00883583          	ld	a1,8(a6)
   139c4:	00011897          	auipc	a7,0x11
   139c8:	97488893          	addi	a7,a7,-1676 # 24338 <__malloc_av_+0x10>
   139cc:	40670733          	sub	a4,a4,t1
   139d0:	01073803          	ld	a6,16(a4)
   139d4:	006787b3          	add	a5,a5,t1
   139d8:	0015f593          	andi	a1,a1,1
   139dc:	15180c63          	beq	a6,a7,13b34 <_free_r+0x1d0>
   139e0:	01873303          	ld	t1,24(a4)
   139e4:	00683c23          	sd	t1,24(a6)
   139e8:	01033823          	sd	a6,16(t1)
   139ec:	1e058c63          	beqz	a1,13be4 <_free_r+0x280>
   139f0:	0017e693          	ori	a3,a5,1
   139f4:	00d73423          	sd	a3,8(a4)
   139f8:	00f63023          	sd	a5,0(a2)
   139fc:	1ff00693          	li	a3,511
   13a00:	0cf6e063          	bltu	a3,a5,13ac0 <_free_r+0x15c>
   13a04:	0037d793          	srli	a5,a5,0x3
   13a08:	0007879b          	sext.w	a5,a5
   13a0c:	0017869b          	addiw	a3,a5,1
   13a10:	0016969b          	slliw	a3,a3,0x1
   13a14:	00369693          	slli	a3,a3,0x3
   13a18:	00853583          	ld	a1,8(a0)
   13a1c:	00d50533          	add	a0,a0,a3
   13a20:	00053603          	ld	a2,0(a0)
   13a24:	00100693          	li	a3,1
   13a28:	4027d79b          	sraiw	a5,a5,0x2
   13a2c:	00f697b3          	sll	a5,a3,a5
   13a30:	00b7e7b3          	or	a5,a5,a1
   13a34:	ff050693          	addi	a3,a0,-16
   13a38:	00d73c23          	sd	a3,24(a4)
   13a3c:	00c73823          	sd	a2,16(a4)
   13a40:	00011697          	auipc	a3,0x11
   13a44:	8ef6b823          	sd	a5,-1808(a3) # 24330 <__malloc_av_+0x8>
   13a48:	00e53023          	sd	a4,0(a0)
   13a4c:	00e63c23          	sd	a4,24(a2)
   13a50:	01013403          	ld	s0,16(sp)
   13a54:	01813083          	ld	ra,24(sp)
   13a58:	00048513          	mv	a0,s1
   13a5c:	00813483          	ld	s1,8(sp)
   13a60:	02010113          	addi	sp,sp,32
   13a64:	4110306f          	j	17674 <__malloc_unlock>
   13a68:	00883583          	ld	a1,8(a6)
   13a6c:	0015f593          	andi	a1,a1,1
   13a70:	02059e63          	bnez	a1,13aac <_free_r+0x148>
   13a74:	00d787b3          	add	a5,a5,a3
   13a78:	00011897          	auipc	a7,0x11
   13a7c:	8c088893          	addi	a7,a7,-1856 # 24338 <__malloc_av_+0x10>
   13a80:	01063683          	ld	a3,16(a2)
   13a84:	0017e813          	ori	a6,a5,1
   13a88:	00f705b3          	add	a1,a4,a5
   13a8c:	17168c63          	beq	a3,a7,13c04 <_free_r+0x2a0>
   13a90:	01863603          	ld	a2,24(a2)
   13a94:	00c6bc23          	sd	a2,24(a3)
   13a98:	00d63823          	sd	a3,16(a2)
   13a9c:	01073423          	sd	a6,8(a4)
   13aa0:	00f5b023          	sd	a5,0(a1)
   13aa4:	f59ff06f          	j	139fc <_free_r+0x98>
   13aa8:	00008067          	ret
   13aac:	0017e693          	ori	a3,a5,1
   13ab0:	fed43c23          	sd	a3,-8(s0)
   13ab4:	00f63023          	sd	a5,0(a2)
   13ab8:	1ff00693          	li	a3,511
   13abc:	f4f6f4e3          	bgeu	a3,a5,13a04 <_free_r+0xa0>
   13ac0:	0097d693          	srli	a3,a5,0x9
   13ac4:	00400613          	li	a2,4
   13ac8:	0ed66863          	bltu	a2,a3,13bb8 <_free_r+0x254>
   13acc:	0067d693          	srli	a3,a5,0x6
   13ad0:	0006869b          	sext.w	a3,a3
   13ad4:	0396859b          	addiw	a1,a3,57
   13ad8:	0015959b          	slliw	a1,a1,0x1
   13adc:	0386861b          	addiw	a2,a3,56
   13ae0:	00359593          	slli	a1,a1,0x3
   13ae4:	00b505b3          	add	a1,a0,a1
   13ae8:	0005b683          	ld	a3,0(a1)
   13aec:	ff058593          	addi	a1,a1,-16
   13af0:	12d58c63          	beq	a1,a3,13c28 <_free_r+0x2c4>
   13af4:	0086b603          	ld	a2,8(a3)
   13af8:	ffc67613          	andi	a2,a2,-4
   13afc:	00c7f663          	bgeu	a5,a2,13b08 <_free_r+0x1a4>
   13b00:	0106b683          	ld	a3,16(a3)
   13b04:	fed598e3          	bne	a1,a3,13af4 <_free_r+0x190>
   13b08:	0186b583          	ld	a1,24(a3)
   13b0c:	00b73c23          	sd	a1,24(a4)
   13b10:	00d73823          	sd	a3,16(a4)
   13b14:	01013403          	ld	s0,16(sp)
   13b18:	00e5b823          	sd	a4,16(a1)
   13b1c:	01813083          	ld	ra,24(sp)
   13b20:	00048513          	mv	a0,s1
   13b24:	00813483          	ld	s1,8(sp)
   13b28:	00e6bc23          	sd	a4,24(a3)
   13b2c:	02010113          	addi	sp,sp,32
   13b30:	3450306f          	j	17674 <__malloc_unlock>
   13b34:	16059463          	bnez	a1,13c9c <_free_r+0x338>
   13b38:	01063583          	ld	a1,16(a2)
   13b3c:	01863603          	ld	a2,24(a2)
   13b40:	00f687b3          	add	a5,a3,a5
   13b44:	0017e693          	ori	a3,a5,1
   13b48:	00c5bc23          	sd	a2,24(a1)
   13b4c:	00b63823          	sd	a1,16(a2)
   13b50:	00d73423          	sd	a3,8(a4)
   13b54:	00f70733          	add	a4,a4,a5
   13b58:	00f73023          	sd	a5,0(a4)
   13b5c:	ef5ff06f          	j	13a50 <_free_r+0xec>
   13b60:	0015f593          	andi	a1,a1,1
   13b64:	00d787b3          	add	a5,a5,a3
   13b68:	02059063          	bnez	a1,13b88 <_free_r+0x224>
   13b6c:	ff043583          	ld	a1,-16(s0)
   13b70:	40b70733          	sub	a4,a4,a1
   13b74:	01873683          	ld	a3,24(a4)
   13b78:	01073603          	ld	a2,16(a4)
   13b7c:	00b787b3          	add	a5,a5,a1
   13b80:	00d63c23          	sd	a3,24(a2)
   13b84:	00c6b823          	sd	a2,16(a3)
   13b88:	76818693          	addi	a3,gp,1896 # 24b88 <__malloc_trim_threshold>
   13b8c:	0017e613          	ori	a2,a5,1
   13b90:	0006b683          	ld	a3,0(a3)
   13b94:	00c73423          	sd	a2,8(a4)
   13b98:	00010617          	auipc	a2,0x10
   13b9c:	7ae63023          	sd	a4,1952(a2) # 24338 <__malloc_av_+0x10>
   13ba0:	ead7e8e3          	bltu	a5,a3,13a50 <_free_r+0xec>
   13ba4:	78818793          	addi	a5,gp,1928 # 24ba8 <__malloc_top_pad>
   13ba8:	0007b583          	ld	a1,0(a5)
   13bac:	00048513          	mv	a0,s1
   13bb0:	c7dff0ef          	jal	ra,1382c <_malloc_trim_r>
   13bb4:	e9dff06f          	j	13a50 <_free_r+0xec>
   13bb8:	01400613          	li	a2,20
   13bbc:	02d67863          	bgeu	a2,a3,13bec <_free_r+0x288>
   13bc0:	05400613          	li	a2,84
   13bc4:	08d66263          	bltu	a2,a3,13c48 <_free_r+0x2e4>
   13bc8:	00c7d693          	srli	a3,a5,0xc
   13bcc:	0006869b          	sext.w	a3,a3
   13bd0:	06f6859b          	addiw	a1,a3,111
   13bd4:	0015959b          	slliw	a1,a1,0x1
   13bd8:	06e6861b          	addiw	a2,a3,110
   13bdc:	00359593          	slli	a1,a1,0x3
   13be0:	f05ff06f          	j	13ae4 <_free_r+0x180>
   13be4:	00d787b3          	add	a5,a5,a3
   13be8:	e99ff06f          	j	13a80 <_free_r+0x11c>
   13bec:	0006869b          	sext.w	a3,a3
   13bf0:	05c6859b          	addiw	a1,a3,92
   13bf4:	0015959b          	slliw	a1,a1,0x1
   13bf8:	05b6861b          	addiw	a2,a3,91
   13bfc:	00359593          	slli	a1,a1,0x3
   13c00:	ee5ff06f          	j	13ae4 <_free_r+0x180>
   13c04:	00010697          	auipc	a3,0x10
   13c08:	74e6b623          	sd	a4,1868(a3) # 24350 <__malloc_av_+0x28>
   13c0c:	00010697          	auipc	a3,0x10
   13c10:	72e6be23          	sd	a4,1852(a3) # 24348 <__malloc_av_+0x20>
   13c14:	01173c23          	sd	a7,24(a4)
   13c18:	01173823          	sd	a7,16(a4)
   13c1c:	01073423          	sd	a6,8(a4)
   13c20:	00f5b023          	sd	a5,0(a1)
   13c24:	e2dff06f          	j	13a50 <_free_r+0xec>
   13c28:	00853503          	ld	a0,8(a0)
   13c2c:	00100793          	li	a5,1
   13c30:	4026561b          	sraiw	a2,a2,0x2
   13c34:	00c79633          	sll	a2,a5,a2
   13c38:	00a66633          	or	a2,a2,a0
   13c3c:	00010797          	auipc	a5,0x10
   13c40:	6ec7ba23          	sd	a2,1780(a5) # 24330 <__malloc_av_+0x8>
   13c44:	ec9ff06f          	j	13b0c <_free_r+0x1a8>
   13c48:	15400613          	li	a2,340
   13c4c:	02d66063          	bltu	a2,a3,13c6c <_free_r+0x308>
   13c50:	00f7d693          	srli	a3,a5,0xf
   13c54:	0006869b          	sext.w	a3,a3
   13c58:	0786859b          	addiw	a1,a3,120
   13c5c:	0015959b          	slliw	a1,a1,0x1
   13c60:	0776861b          	addiw	a2,a3,119
   13c64:	00359593          	slli	a1,a1,0x3
   13c68:	e7dff06f          	j	13ae4 <_free_r+0x180>
   13c6c:	55400613          	li	a2,1364
   13c70:	02d66063          	bltu	a2,a3,13c90 <_free_r+0x32c>
   13c74:	0127d693          	srli	a3,a5,0x12
   13c78:	0006869b          	sext.w	a3,a3
   13c7c:	07d6859b          	addiw	a1,a3,125
   13c80:	0015959b          	slliw	a1,a1,0x1
   13c84:	07c6861b          	addiw	a2,a3,124
   13c88:	00359593          	slli	a1,a1,0x3
   13c8c:	e59ff06f          	j	13ae4 <_free_r+0x180>
   13c90:	7f000593          	li	a1,2032
   13c94:	07e00613          	li	a2,126
   13c98:	e4dff06f          	j	13ae4 <_free_r+0x180>
   13c9c:	0017e693          	ori	a3,a5,1
   13ca0:	00d73423          	sd	a3,8(a4)
   13ca4:	00f63023          	sd	a5,0(a2)
   13ca8:	da9ff06f          	j	13a50 <_free_r+0xec>

0000000000013cac <_fwalk>:
   13cac:	fc010113          	addi	sp,sp,-64
   13cb0:	01313c23          	sd	s3,24(sp)
   13cb4:	02113c23          	sd	ra,56(sp)
   13cb8:	02813823          	sd	s0,48(sp)
   13cbc:	02913423          	sd	s1,40(sp)
   13cc0:	03213023          	sd	s2,32(sp)
   13cc4:	01413823          	sd	s4,16(sp)
   13cc8:	01513423          	sd	s5,8(sp)
   13ccc:	01613023          	sd	s6,0(sp)
   13cd0:	52050993          	addi	s3,a0,1312
   13cd4:	0a098263          	beqz	s3,13d78 <_fwalk+0xcc>
   13cd8:	00058a93          	mv	s5,a1
   13cdc:	00000913          	li	s2,0
   13ce0:	00100b13          	li	s6,1
   13ce4:	fff00a13          	li	s4,-1
   13ce8:	0089a783          	lw	a5,8(s3)
   13cec:	0109b403          	ld	s0,16(s3)
   13cf0:	04f05a63          	blez	a5,13d44 <_fwalk+0x98>
   13cf4:	fff7879b          	addiw	a5,a5,-1
   13cf8:	02079493          	slli	s1,a5,0x20
   13cfc:	0204d493          	srli	s1,s1,0x20
   13d00:	00148793          	addi	a5,s1,1
   13d04:	00179493          	slli	s1,a5,0x1
   13d08:	00f484b3          	add	s1,s1,a5
   13d0c:	00249493          	slli	s1,s1,0x2
   13d10:	40f484b3          	sub	s1,s1,a5
   13d14:	00449493          	slli	s1,s1,0x4
   13d18:	009404b3          	add	s1,s0,s1
   13d1c:	01045783          	lhu	a5,16(s0)
   13d20:	00fb7e63          	bgeu	s6,a5,13d3c <_fwalk+0x90>
   13d24:	01241783          	lh	a5,18(s0)
   13d28:	00040513          	mv	a0,s0
   13d2c:	01478863          	beq	a5,s4,13d3c <_fwalk+0x90>
   13d30:	000a80e7          	jalr	s5
   13d34:	01256933          	or	s2,a0,s2
   13d38:	0009091b          	sext.w	s2,s2
   13d3c:	0b040413          	addi	s0,s0,176
   13d40:	fc941ee3          	bne	s0,s1,13d1c <_fwalk+0x70>
   13d44:	0009b983          	ld	s3,0(s3)
   13d48:	fa0990e3          	bnez	s3,13ce8 <_fwalk+0x3c>
   13d4c:	03813083          	ld	ra,56(sp)
   13d50:	03013403          	ld	s0,48(sp)
   13d54:	00090513          	mv	a0,s2
   13d58:	02813483          	ld	s1,40(sp)
   13d5c:	02013903          	ld	s2,32(sp)
   13d60:	01813983          	ld	s3,24(sp)
   13d64:	01013a03          	ld	s4,16(sp)
   13d68:	00813a83          	ld	s5,8(sp)
   13d6c:	00013b03          	ld	s6,0(sp)
   13d70:	04010113          	addi	sp,sp,64
   13d74:	00008067          	ret
   13d78:	00000913          	li	s2,0
   13d7c:	fd1ff06f          	j	13d4c <_fwalk+0xa0>

0000000000013d80 <_fwalk_reent>:
   13d80:	fb010113          	addi	sp,sp,-80
   13d84:	03213823          	sd	s2,48(sp)
   13d88:	04113423          	sd	ra,72(sp)
   13d8c:	04813023          	sd	s0,64(sp)
   13d90:	02913c23          	sd	s1,56(sp)
   13d94:	03313423          	sd	s3,40(sp)
   13d98:	03413023          	sd	s4,32(sp)
   13d9c:	01513c23          	sd	s5,24(sp)
   13da0:	01613823          	sd	s6,16(sp)
   13da4:	01713423          	sd	s7,8(sp)
   13da8:	52050913          	addi	s2,a0,1312
   13dac:	0a090863          	beqz	s2,13e5c <_fwalk_reent+0xdc>
   13db0:	00058a93          	mv	s5,a1
   13db4:	00050993          	mv	s3,a0
   13db8:	00000b13          	li	s6,0
   13dbc:	00100b93          	li	s7,1
   13dc0:	fff00a13          	li	s4,-1
   13dc4:	00892783          	lw	a5,8(s2)
   13dc8:	01093403          	ld	s0,16(s2)
   13dcc:	04f05c63          	blez	a5,13e24 <_fwalk_reent+0xa4>
   13dd0:	fff7879b          	addiw	a5,a5,-1
   13dd4:	02079493          	slli	s1,a5,0x20
   13dd8:	0204d493          	srli	s1,s1,0x20
   13ddc:	00148793          	addi	a5,s1,1
   13de0:	00179493          	slli	s1,a5,0x1
   13de4:	00f484b3          	add	s1,s1,a5
   13de8:	00249493          	slli	s1,s1,0x2
   13dec:	40f484b3          	sub	s1,s1,a5
   13df0:	00449493          	slli	s1,s1,0x4
   13df4:	009404b3          	add	s1,s0,s1
   13df8:	01045783          	lhu	a5,16(s0)
   13dfc:	02fbf063          	bgeu	s7,a5,13e1c <_fwalk_reent+0x9c>
   13e00:	01241783          	lh	a5,18(s0)
   13e04:	00040593          	mv	a1,s0
   13e08:	00098513          	mv	a0,s3
   13e0c:	01478863          	beq	a5,s4,13e1c <_fwalk_reent+0x9c>
   13e10:	000a80e7          	jalr	s5
   13e14:	01656b33          	or	s6,a0,s6
   13e18:	000b0b1b          	sext.w	s6,s6
   13e1c:	0b040413          	addi	s0,s0,176
   13e20:	fc941ce3          	bne	s0,s1,13df8 <_fwalk_reent+0x78>
   13e24:	00093903          	ld	s2,0(s2)
   13e28:	f8091ee3          	bnez	s2,13dc4 <_fwalk_reent+0x44>
   13e2c:	04813083          	ld	ra,72(sp)
   13e30:	04013403          	ld	s0,64(sp)
   13e34:	000b0513          	mv	a0,s6
   13e38:	03813483          	ld	s1,56(sp)
   13e3c:	03013903          	ld	s2,48(sp)
   13e40:	02813983          	ld	s3,40(sp)
   13e44:	02013a03          	ld	s4,32(sp)
   13e48:	01813a83          	ld	s5,24(sp)
   13e4c:	01013b03          	ld	s6,16(sp)
   13e50:	00813b83          	ld	s7,8(sp)
   13e54:	05010113          	addi	sp,sp,80
   13e58:	00008067          	ret
   13e5c:	00000b13          	li	s6,0
   13e60:	fcdff06f          	j	13e2c <_fwalk_reent+0xac>

0000000000013e64 <eshdn1>:
   13e64:	00450693          	addi	a3,a0,4
   13e68:	00000793          	li	a5,0
   13e6c:	01a50513          	addi	a0,a0,26
   13e70:	ffff8837          	lui	a6,0xffff8
   13e74:	01c0006f          	j	13e90 <eshdn1+0x2c>
   13e78:	0017979b          	slliw	a5,a5,0x1
   13e7c:	00e69023          	sh	a4,0(a3)
   13e80:	03079793          	slli	a5,a5,0x30
   13e84:	00268693          	addi	a3,a3,2
   13e88:	0307d793          	srli	a5,a5,0x30
   13e8c:	02d50e63          	beq	a0,a3,13ec8 <eshdn1+0x64>
   13e90:	0006d703          	lhu	a4,0(a3)
   13e94:	00177613          	andi	a2,a4,1
   13e98:	00060463          	beqz	a2,13ea0 <eshdn1+0x3c>
   13e9c:	0017e793          	ori	a5,a5,1
   13ea0:	00175713          	srli	a4,a4,0x1
   13ea4:	0027f613          	andi	a2,a5,2
   13ea8:	010765b3          	or	a1,a4,a6
   13eac:	fc0606e3          	beqz	a2,13e78 <eshdn1+0x14>
   13eb0:	0017979b          	slliw	a5,a5,0x1
   13eb4:	00b69023          	sh	a1,0(a3)
   13eb8:	03079793          	slli	a5,a5,0x30
   13ebc:	00268693          	addi	a3,a3,2
   13ec0:	0307d793          	srli	a5,a5,0x30
   13ec4:	fcd516e3          	bne	a0,a3,13e90 <eshdn1+0x2c>
   13ec8:	00008067          	ret

0000000000013ecc <eshup1>:
   13ecc:	01850693          	addi	a3,a0,24
   13ed0:	00000713          	li	a4,0
   13ed4:	00250513          	addi	a0,a0,2
   13ed8:	01c0006f          	j	13ef4 <eshup1+0x28>
   13edc:	0017171b          	slliw	a4,a4,0x1
   13ee0:	00f69023          	sh	a5,0(a3)
   13ee4:	03071713          	slli	a4,a4,0x30
   13ee8:	ffe68693          	addi	a3,a3,-2
   13eec:	03075713          	srli	a4,a4,0x30
   13ef0:	04d50663          	beq	a0,a3,13f3c <eshup1+0x70>
   13ef4:	0006d783          	lhu	a5,0(a3)
   13ef8:	0107961b          	slliw	a2,a5,0x10
   13efc:	4106561b          	sraiw	a2,a2,0x10
   13f00:	02061593          	slli	a1,a2,0x20
   13f04:	0017979b          	slliw	a5,a5,0x1
   13f08:	0005d463          	bgez	a1,13f10 <eshup1+0x44>
   13f0c:	00176713          	ori	a4,a4,1
   13f10:	03079793          	slli	a5,a5,0x30
   13f14:	0307d793          	srli	a5,a5,0x30
   13f18:	00277613          	andi	a2,a4,2
   13f1c:	0017e593          	ori	a1,a5,1
   13f20:	fa060ee3          	beqz	a2,13edc <eshup1+0x10>
   13f24:	0017171b          	slliw	a4,a4,0x1
   13f28:	00b69023          	sh	a1,0(a3)
   13f2c:	03071713          	slli	a4,a4,0x30
   13f30:	ffe68693          	addi	a3,a3,-2
   13f34:	03075713          	srli	a4,a4,0x30
   13f38:	fad51ee3          	bne	a0,a3,13ef4 <eshup1+0x28>
   13f3c:	00008067          	ret

0000000000013f40 <m16m>:
   13f40:	fa010113          	addi	sp,sp,-96
   13f44:	03413823          	sd	s4,48(sp)
   13f48:	00010a37          	lui	s4,0x10
   13f4c:	04813823          	sd	s0,80(sp)
   13f50:	04913423          	sd	s1,72(sp)
   13f54:	05213023          	sd	s2,64(sp)
   13f58:	03313c23          	sd	s3,56(sp)
   13f5c:	03513423          	sd	s5,40(sp)
   13f60:	04113c23          	sd	ra,88(sp)
   13f64:	00050a93          	mv	s5,a0
   13f68:	00060493          	mv	s1,a2
   13f6c:	00011b23          	sh	zero,22(sp)
   13f70:	00011c23          	sh	zero,24(sp)
   13f74:	01858913          	addi	s2,a1,24
   13f78:	01810413          	addi	s0,sp,24
   13f7c:	00410993          	addi	s3,sp,4
   13f80:	fffa0a13          	addi	s4,s4,-1 # ffff <main-0xb1>
   13f84:	00095783          	lhu	a5,0(s2)
   13f88:	000a8593          	mv	a1,s5
   13f8c:	ffe40413          	addi	s0,s0,-2
   13f90:	ffe90913          	addi	s2,s2,-2
   13f94:	00078513          	mv	a0,a5
   13f98:	04079663          	bnez	a5,13fe4 <m16m+0xa4>
   13f9c:	fe041f23          	sh	zero,-2(s0)
   13fa0:	ff3412e3          	bne	s0,s3,13f84 <m16m+0x44>
   13fa4:	00448613          	addi	a2,s1,4
   13fa8:	01a10713          	addi	a4,sp,26
   13fac:	00045783          	lhu	a5,0(s0)
   13fb0:	00260613          	addi	a2,a2,2
   13fb4:	00240413          	addi	s0,s0,2
   13fb8:	fef61f23          	sh	a5,-2(a2)
   13fbc:	fee418e3          	bne	s0,a4,13fac <m16m+0x6c>
   13fc0:	05813083          	ld	ra,88(sp)
   13fc4:	05013403          	ld	s0,80(sp)
   13fc8:	04813483          	ld	s1,72(sp)
   13fcc:	04013903          	ld	s2,64(sp)
   13fd0:	03813983          	ld	s3,56(sp)
   13fd4:	03013a03          	ld	s4,48(sp)
   13fd8:	02813a83          	ld	s5,40(sp)
   13fdc:	06010113          	addi	sp,sp,96
   13fe0:	00008067          	ret
   13fe4:	3290d0ef          	jal	ra,21b0c <__muldi3>
   13fe8:	00245703          	lhu	a4,2(s0)
   13fec:	00045683          	lhu	a3,0(s0)
   13ff0:	014577b3          	and	a5,a0,s4
   13ff4:	00e787b3          	add	a5,a5,a4
   13ff8:	01055513          	srli	a0,a0,0x10
   13ffc:	0107d713          	srli	a4,a5,0x10
   14000:	00d50533          	add	a0,a0,a3
   14004:	00e50533          	add	a0,a0,a4
   14008:	01055713          	srli	a4,a0,0x10
   1400c:	00f41123          	sh	a5,2(s0)
   14010:	00a41023          	sh	a0,0(s0)
   14014:	fee41f23          	sh	a4,-2(s0)
   14018:	f73416e3          	bne	s0,s3,13f84 <m16m+0x44>
   1401c:	f89ff06f          	j	13fa4 <m16m+0x64>

0000000000014020 <eisnan.part.0>:
   14020:	01250713          	addi	a4,a0,18
   14024:	00250513          	addi	a0,a0,2
   14028:	ffe55783          	lhu	a5,-2(a0)
   1402c:	00079863          	bnez	a5,1403c <eisnan.part.0+0x1c>
   14030:	fea71ae3          	bne	a4,a0,14024 <eisnan.part.0+0x4>
   14034:	00000513          	li	a0,0
   14038:	00008067          	ret
   1403c:	00100513          	li	a0,1
   14040:	00008067          	ret

0000000000014044 <eneg>:
   14044:	fe010113          	addi	sp,sp,-32
   14048:	00813823          	sd	s0,16(sp)
   1404c:	01255403          	lhu	s0,18(a0)
   14050:	00913423          	sd	s1,8(sp)
   14054:	00113c23          	sd	ra,24(sp)
   14058:	fff44793          	not	a5,s0
   1405c:	03179713          	slli	a4,a5,0x31
   14060:	00050493          	mv	s1,a0
   14064:	00071663          	bnez	a4,14070 <eneg+0x2c>
   14068:	fb9ff0ef          	jal	ra,14020 <eisnan.part.0>
   1406c:	00051863          	bnez	a0,1407c <eneg+0x38>
   14070:	ffff87b7          	lui	a5,0xffff8
   14074:	00f44433          	xor	s0,s0,a5
   14078:	00849923          	sh	s0,18(s1)
   1407c:	01813083          	ld	ra,24(sp)
   14080:	01013403          	ld	s0,16(sp)
   14084:	00813483          	ld	s1,8(sp)
   14088:	02010113          	addi	sp,sp,32
   1408c:	00008067          	ret

0000000000014090 <eisneg>:
   14090:	ff010113          	addi	sp,sp,-16
   14094:	00813023          	sd	s0,0(sp)
   14098:	01255403          	lhu	s0,18(a0)
   1409c:	00113423          	sd	ra,8(sp)
   140a0:	fff44793          	not	a5,s0
   140a4:	03179713          	slli	a4,a5,0x31
   140a8:	00071863          	bnez	a4,140b8 <eisneg+0x28>
   140ac:	f75ff0ef          	jal	ra,14020 <eisnan.part.0>
   140b0:	00000793          	li	a5,0
   140b4:	00051463          	bnez	a0,140bc <eisneg+0x2c>
   140b8:	00f45793          	srli	a5,s0,0xf
   140bc:	00813083          	ld	ra,8(sp)
   140c0:	00013403          	ld	s0,0(sp)
   140c4:	00078513          	mv	a0,a5
   140c8:	01010113          	addi	sp,sp,16
   140cc:	00008067          	ret

00000000000140d0 <emovi>:
   140d0:	01255783          	lhu	a5,18(a0)
   140d4:	fe010113          	addi	sp,sp,-32
   140d8:	00813823          	sd	s0,16(sp)
   140dc:	00f7d79b          	srliw	a5,a5,0xf
   140e0:	00913423          	sd	s1,8(sp)
   140e4:	00113c23          	sd	ra,24(sp)
   140e8:	01213023          	sd	s2,0(sp)
   140ec:	40f007bb          	negw	a5,a5
   140f0:	00f59023          	sh	a5,0(a1)
   140f4:	01255783          	lhu	a5,18(a0)
   140f8:	000086b7          	lui	a3,0x8
   140fc:	fff68693          	addi	a3,a3,-1 # 7fff <main-0x80b1>
   14100:	00f6f7b3          	and	a5,a3,a5
   14104:	00f59123          	sh	a5,2(a1)
   14108:	0007879b          	sext.w	a5,a5
   1410c:	00050493          	mv	s1,a0
   14110:	01050413          	addi	s0,a0,16
   14114:	04d78063          	beq	a5,a3,14154 <emovi+0x84>
   14118:	00658793          	addi	a5,a1,6
   1411c:	00059223          	sh	zero,4(a1)
   14120:	ffe50513          	addi	a0,a0,-2
   14124:	ffe40413          	addi	s0,s0,-2
   14128:	00245703          	lhu	a4,2(s0)
   1412c:	00278793          	addi	a5,a5,2 # ffffffffffff8002 <__BSS_END__+0xfffffffffffd33e2>
   14130:	fee79f23          	sh	a4,-2(a5)
   14134:	fea418e3          	bne	s0,a0,14124 <emovi+0x54>
   14138:	00059c23          	sh	zero,24(a1)
   1413c:	01813083          	ld	ra,24(sp)
   14140:	01013403          	ld	s0,16(sp)
   14144:	00813483          	ld	s1,8(sp)
   14148:	00013903          	ld	s2,0(sp)
   1414c:	02010113          	addi	sp,sp,32
   14150:	00008067          	ret
   14154:	01255703          	lhu	a4,18(a0)
   14158:	00058913          	mv	s2,a1
   1415c:	00e7f733          	and	a4,a5,a4
   14160:	02f71863          	bne	a4,a5,14190 <emovi+0xc0>
   14164:	ebdff0ef          	jal	ra,14020 <eisnan.part.0>
   14168:	02050463          	beqz	a0,14190 <emovi+0xc0>
   1416c:	00690713          	addi	a4,s2,6
   14170:	00091223          	sh	zero,4(s2)
   14174:	ffc48793          	addi	a5,s1,-4
   14178:	ffe40413          	addi	s0,s0,-2
   1417c:	00245683          	lhu	a3,2(s0)
   14180:	00270713          	addi	a4,a4,2
   14184:	fed71f23          	sh	a3,-2(a4)
   14188:	fe8798e3          	bne	a5,s0,14178 <emovi+0xa8>
   1418c:	fb1ff06f          	j	1413c <emovi+0x6c>
   14190:	00490793          	addi	a5,s2,4
   14194:	01a90593          	addi	a1,s2,26
   14198:	00278793          	addi	a5,a5,2
   1419c:	fe079f23          	sh	zero,-2(a5)
   141a0:	fef59ce3          	bne	a1,a5,14198 <emovi+0xc8>
   141a4:	01813083          	ld	ra,24(sp)
   141a8:	01013403          	ld	s0,16(sp)
   141ac:	00813483          	ld	s1,8(sp)
   141b0:	00013903          	ld	s2,0(sp)
   141b4:	02010113          	addi	sp,sp,32
   141b8:	00008067          	ret

00000000000141bc <ecmp>:
   141bc:	01255783          	lhu	a5,18(a0)
   141c0:	fa010113          	addi	sp,sp,-96
   141c4:	04813823          	sd	s0,80(sp)
   141c8:	fff7c793          	not	a5,a5
   141cc:	04913423          	sd	s1,72(sp)
   141d0:	04113c23          	sd	ra,88(sp)
   141d4:	03179713          	slli	a4,a5,0x31
   141d8:	00050493          	mv	s1,a0
   141dc:	00058413          	mv	s0,a1
   141e0:	00071663          	bnez	a4,141ec <ecmp+0x30>
   141e4:	e3dff0ef          	jal	ra,14020 <eisnan.part.0>
   141e8:	08051263          	bnez	a0,1426c <ecmp+0xb0>
   141ec:	01245783          	lhu	a5,18(s0)
   141f0:	fff7c793          	not	a5,a5
   141f4:	03179713          	slli	a4,a5,0x31
   141f8:	06070463          	beqz	a4,14260 <ecmp+0xa4>
   141fc:	00010593          	mv	a1,sp
   14200:	00048513          	mv	a0,s1
   14204:	ecdff0ef          	jal	ra,140d0 <emovi>
   14208:	02010593          	addi	a1,sp,32
   1420c:	00040513          	mv	a0,s0
   14210:	ec1ff0ef          	jal	ra,140d0 <emovi>
   14214:	00015583          	lhu	a1,0(sp)
   14218:	02015783          	lhu	a5,32(sp)
   1421c:	04b78c63          	beq	a5,a1,14274 <ecmp+0xb8>
   14220:	00210793          	addi	a5,sp,2
   14224:	02210713          	addi	a4,sp,34
   14228:	01810613          	addi	a2,sp,24
   1422c:	0007d683          	lhu	a3,0(a5)
   14230:	00278793          	addi	a5,a5,2
   14234:	08069663          	bnez	a3,142c0 <ecmp+0x104>
   14238:	00075683          	lhu	a3,0(a4)
   1423c:	00270713          	addi	a4,a4,2
   14240:	08069063          	bnez	a3,142c0 <ecmp+0x104>
   14244:	fec794e3          	bne	a5,a2,1422c <ecmp+0x70>
   14248:	00000513          	li	a0,0
   1424c:	05813083          	ld	ra,88(sp)
   14250:	05013403          	ld	s0,80(sp)
   14254:	04813483          	ld	s1,72(sp)
   14258:	06010113          	addi	sp,sp,96
   1425c:	00008067          	ret
   14260:	00040513          	mv	a0,s0
   14264:	dbdff0ef          	jal	ra,14020 <eisnan.part.0>
   14268:	f8050ae3          	beqz	a0,141fc <ecmp+0x40>
   1426c:	ffe00513          	li	a0,-2
   14270:	fddff06f          	j	1424c <ecmp+0x90>
   14274:	00100513          	li	a0,1
   14278:	04059c63          	bnez	a1,142d0 <ecmp+0x114>
   1427c:	00210713          	addi	a4,sp,2
   14280:	02210793          	addi	a5,sp,34
   14284:	00278793          	addi	a5,a5,2
   14288:	00270713          	addi	a4,a4,2
   1428c:	ffe75603          	lhu	a2,-2(a4)
   14290:	ffe7d683          	lhu	a3,-2(a5)
   14294:	03810593          	addi	a1,sp,56
   14298:	00d61e63          	bne	a2,a3,142b4 <ecmp+0xf8>
   1429c:	fab786e3          	beq	a5,a1,14248 <ecmp+0x8c>
   142a0:	00278793          	addi	a5,a5,2
   142a4:	00270713          	addi	a4,a4,2
   142a8:	ffe75603          	lhu	a2,-2(a4)
   142ac:	ffe7d683          	lhu	a3,-2(a5)
   142b0:	fed606e3          	beq	a2,a3,1429c <ecmp+0xe0>
   142b4:	f8c6ece3          	bltu	a3,a2,1424c <ecmp+0x90>
   142b8:	40a0053b          	negw	a0,a0
   142bc:	f91ff06f          	j	1424c <ecmp+0x90>
   142c0:	00100513          	li	a0,1
   142c4:	f80584e3          	beqz	a1,1424c <ecmp+0x90>
   142c8:	fff00513          	li	a0,-1
   142cc:	f81ff06f          	j	1424c <ecmp+0x90>
   142d0:	fff00513          	li	a0,-1
   142d4:	fa9ff06f          	j	1427c <ecmp+0xc0>

00000000000142d8 <eisinf.part.1>:
   142d8:	ff010113          	addi	sp,sp,-16
   142dc:	00113423          	sd	ra,8(sp)
   142e0:	d41ff0ef          	jal	ra,14020 <eisnan.part.0>
   142e4:	00813083          	ld	ra,8(sp)
   142e8:	00153513          	seqz	a0,a0
   142ec:	01010113          	addi	sp,sp,16
   142f0:	00008067          	ret

00000000000142f4 <eshift.part.3>:
   142f4:	fe010113          	addi	sp,sp,-32
   142f8:	00813823          	sd	s0,16(sp)
   142fc:	01213023          	sd	s2,0(sp)
   14300:	00113c23          	sd	ra,24(sp)
   14304:	00913423          	sd	s1,8(sp)
   14308:	00058913          	mv	s2,a1
   1430c:	00050413          	mv	s0,a0
   14310:	0a05c263          	bltz	a1,143b4 <eshift.part.3+0xc0>
   14314:	00f00793          	li	a5,15
   14318:	00058613          	mv	a2,a1
   1431c:	00450513          	addi	a0,a0,4
   14320:	01840693          	addi	a3,s0,24
   14324:	00f00593          	li	a1,15
   14328:	0327d463          	bge	a5,s2,14350 <eshift.part.3+0x5c>
   1432c:	00050793          	mv	a5,a0
   14330:	00278793          	addi	a5,a5,2
   14334:	0007d703          	lhu	a4,0(a5)
   14338:	fee79f23          	sh	a4,-2(a5)
   1433c:	fed79ae3          	bne	a5,a3,14330 <eshift.part.3+0x3c>
   14340:	00041c23          	sh	zero,24(s0)
   14344:	ff06061b          	addiw	a2,a2,-16
   14348:	fec5c2e3          	blt	a1,a2,1432c <eshift.part.3+0x38>
   1434c:	00f97913          	andi	s2,s2,15
   14350:	00700793          	li	a5,7
   14354:	0327d863          	bge	a5,s2,14384 <eshift.part.3+0x90>
   14358:	01840793          	addi	a5,s0,24
   1435c:	00240593          	addi	a1,s0,2
   14360:	00000713          	li	a4,0
   14364:	0007d683          	lhu	a3,0(a5)
   14368:	ffe78793          	addi	a5,a5,-2
   1436c:	00869613          	slli	a2,a3,0x8
   14370:	00c76733          	or	a4,a4,a2
   14374:	00e79123          	sh	a4,2(a5)
   14378:	0086d713          	srli	a4,a3,0x8
   1437c:	feb794e3          	bne	a5,a1,14364 <eshift.part.3+0x70>
   14380:	ff89091b          	addiw	s2,s2,-8
   14384:	00090a63          	beqz	s2,14398 <eshift.part.3+0xa4>
   14388:	fff9091b          	addiw	s2,s2,-1
   1438c:	00040513          	mv	a0,s0
   14390:	b3dff0ef          	jal	ra,13ecc <eshup1>
   14394:	fe091ae3          	bnez	s2,14388 <eshift.part.3+0x94>
   14398:	01813083          	ld	ra,24(sp)
   1439c:	01013403          	ld	s0,16(sp)
   143a0:	00813483          	ld	s1,8(sp)
   143a4:	00013903          	ld	s2,0(sp)
   143a8:	00000513          	li	a0,0
   143ac:	02010113          	addi	sp,sp,32
   143b0:	00008067          	ret
   143b4:	ff100793          	li	a5,-15
   143b8:	40b004bb          	negw	s1,a1
   143bc:	0cf5d463          	bge	a1,a5,14484 <eshift.part.3+0x190>
   143c0:	01850593          	addi	a1,a0,24
   143c4:	00000913          	li	s2,0
   143c8:	00450693          	addi	a3,a0,4
   143cc:	00f00613          	li	a2,15
   143d0:	01845703          	lhu	a4,24(s0)
   143d4:	00058793          	mv	a5,a1
   143d8:	00e96933          	or	s2,s2,a4
   143dc:	ffe78793          	addi	a5,a5,-2
   143e0:	0007d703          	lhu	a4,0(a5)
   143e4:	00e79123          	sh	a4,2(a5)
   143e8:	fed79ae3          	bne	a5,a3,143dc <eshift.part.3+0xe8>
   143ec:	00041223          	sh	zero,4(s0)
   143f0:	ff04849b          	addiw	s1,s1,-16
   143f4:	fc964ee3          	blt	a2,s1,143d0 <eshift.part.3+0xdc>
   143f8:	00700793          	li	a5,7
   143fc:	0497d663          	bge	a5,s1,14448 <eshift.part.3+0x154>
   14400:	0109191b          	slliw	s2,s2,0x10
   14404:	4109591b          	sraiw	s2,s2,0x10
   14408:	01844783          	lbu	a5,24(s0)
   1440c:	01a40593          	addi	a1,s0,26
   14410:	00000713          	li	a4,0
   14414:	00f96933          	or	s2,s2,a5
   14418:	03091913          	slli	s2,s2,0x30
   1441c:	03095913          	srli	s2,s2,0x30
   14420:	0006d783          	lhu	a5,0(a3)
   14424:	00268693          	addi	a3,a3,2
   14428:	0087d61b          	srliw	a2,a5,0x8
   1442c:	00c76733          	or	a4,a4,a2
   14430:	0087979b          	slliw	a5,a5,0x8
   14434:	fee69f23          	sh	a4,-2(a3)
   14438:	03079713          	slli	a4,a5,0x30
   1443c:	03075713          	srli	a4,a4,0x30
   14440:	feb690e3          	bne	a3,a1,14420 <eshift.part.3+0x12c>
   14444:	ff84849b          	addiw	s1,s1,-8
   14448:	02048063          	beqz	s1,14468 <eshift.part.3+0x174>
   1444c:	01845783          	lhu	a5,24(s0)
   14450:	fff4849b          	addiw	s1,s1,-1
   14454:	00040513          	mv	a0,s0
   14458:	0017f793          	andi	a5,a5,1
   1445c:	0127e933          	or	s2,a5,s2
   14460:	a05ff0ef          	jal	ra,13e64 <eshdn1>
   14464:	fe0494e3          	bnez	s1,1444c <eshift.part.3+0x158>
   14468:	01813083          	ld	ra,24(sp)
   1446c:	01013403          	ld	s0,16(sp)
   14470:	01203533          	snez	a0,s2
   14474:	00813483          	ld	s1,8(sp)
   14478:	00013903          	ld	s2,0(sp)
   1447c:	02010113          	addi	sp,sp,32
   14480:	00008067          	ret
   14484:	ff900793          	li	a5,-7
   14488:	00f5c663          	blt	a1,a5,14494 <eshift.part.3+0x1a0>
   1448c:	00000913          	li	s2,0
   14490:	fbdff06f          	j	1444c <eshift.part.3+0x158>
   14494:	00000913          	li	s2,0
   14498:	00440693          	addi	a3,s0,4
   1449c:	f6dff06f          	j	14408 <eshift.part.3+0x114>

00000000000144a0 <enormlz>:
   144a0:	00455783          	lhu	a5,4(a0)
   144a4:	fe010113          	addi	sp,sp,-32
   144a8:	00913423          	sd	s1,8(sp)
   144ac:	00113c23          	sd	ra,24(sp)
   144b0:	00813823          	sd	s0,16(sp)
   144b4:	01213023          	sd	s2,0(sp)
   144b8:	00050493          	mv	s1,a0
   144bc:	0e079063          	bnez	a5,1459c <enormlz+0xfc>
   144c0:	00655703          	lhu	a4,6(a0)
   144c4:	00000413          	li	s0,0
   144c8:	0107179b          	slliw	a5,a4,0x10
   144cc:	4107d79b          	sraiw	a5,a5,0x10
   144d0:	02079693          	slli	a3,a5,0x20
   144d4:	0a06c663          	bltz	a3,14580 <enormlz+0xe0>
   144d8:	01a50693          	addi	a3,a0,26
   144dc:	0a000613          	li	a2,160
   144e0:	02071863          	bnez	a4,14510 <enormlz+0x70>
   144e4:	00648793          	addi	a5,s1,6
   144e8:	0080006f          	j	144f0 <enormlz+0x50>
   144ec:	0007d703          	lhu	a4,0(a5)
   144f0:	00278793          	addi	a5,a5,2
   144f4:	fee79e23          	sh	a4,-4(a5)
   144f8:	fef69ae3          	bne	a3,a5,144ec <enormlz+0x4c>
   144fc:	00049c23          	sh	zero,24(s1)
   14500:	0104041b          	addiw	s0,s0,16
   14504:	06c40e63          	beq	s0,a2,14580 <enormlz+0xe0>
   14508:	0064d703          	lhu	a4,6(s1)
   1450c:	fc070ce3          	beqz	a4,144e4 <enormlz+0x44>
   14510:	f0077793          	andi	a5,a4,-256
   14514:	04079063          	bnez	a5,14554 <enormlz+0xb4>
   14518:	01848513          	addi	a0,s1,24
   1451c:	00248593          	addi	a1,s1,2
   14520:	00000713          	li	a4,0
   14524:	00050793          	mv	a5,a0
   14528:	0007d683          	lhu	a3,0(a5)
   1452c:	ffe78793          	addi	a5,a5,-2
   14530:	00869613          	slli	a2,a3,0x8
   14534:	00c76733          	or	a4,a4,a2
   14538:	00e79123          	sh	a4,2(a5)
   1453c:	0086d713          	srli	a4,a3,0x8
   14540:	fef594e3          	bne	a1,a5,14528 <enormlz+0x88>
   14544:	0064d703          	lhu	a4,6(s1)
   14548:	0084041b          	addiw	s0,s0,8
   1454c:	f0077793          	andi	a5,a4,-256
   14550:	fc0788e3          	beqz	a5,14520 <enormlz+0x80>
   14554:	0a000913          	li	s2,160
   14558:	0140006f          	j	1456c <enormlz+0xcc>
   1455c:	0014041b          	addiw	s0,s0,1
   14560:	96dff0ef          	jal	ra,13ecc <eshup1>
   14564:	00894e63          	blt	s2,s0,14580 <enormlz+0xe0>
   14568:	0064d703          	lhu	a4,6(s1)
   1456c:	0107171b          	slliw	a4,a4,0x10
   14570:	4107571b          	sraiw	a4,a4,0x10
   14574:	02071793          	slli	a5,a4,0x20
   14578:	00048513          	mv	a0,s1
   1457c:	fe07d0e3          	bgez	a5,1455c <enormlz+0xbc>
   14580:	00040513          	mv	a0,s0
   14584:	01813083          	ld	ra,24(sp)
   14588:	01013403          	ld	s0,16(sp)
   1458c:	00813483          	ld	s1,8(sp)
   14590:	00013903          	ld	s2,0(sp)
   14594:	02010113          	addi	sp,sp,32
   14598:	00008067          	ret
   1459c:	f007f713          	andi	a4,a5,-256
   145a0:	00000413          	li	s0,0
   145a4:	04071063          	bnez	a4,145e4 <enormlz+0x144>
   145a8:	f6f00913          	li	s2,-145
   145ac:	0140006f          	j	145c0 <enormlz+0x120>
   145b0:	fff4041b          	addiw	s0,s0,-1
   145b4:	8b1ff0ef          	jal	ra,13e64 <eshdn1>
   145b8:	fd2404e3          	beq	s0,s2,14580 <enormlz+0xe0>
   145bc:	0044d783          	lhu	a5,4(s1)
   145c0:	00048513          	mv	a0,s1
   145c4:	fe0796e3          	bnez	a5,145b0 <enormlz+0x110>
   145c8:	00040513          	mv	a0,s0
   145cc:	01813083          	ld	ra,24(sp)
   145d0:	01013403          	ld	s0,16(sp)
   145d4:	00813483          	ld	s1,8(sp)
   145d8:	00013903          	ld	s2,0(sp)
   145dc:	02010113          	addi	sp,sp,32
   145e0:	00008067          	ret
   145e4:	00450693          	addi	a3,a0,4
   145e8:	01a50593          	addi	a1,a0,26
   145ec:	00000713          	li	a4,0
   145f0:	0080006f          	j	145f8 <enormlz+0x158>
   145f4:	0006d783          	lhu	a5,0(a3)
   145f8:	0087d61b          	srliw	a2,a5,0x8
   145fc:	00c76733          	or	a4,a4,a2
   14600:	0087979b          	slliw	a5,a5,0x8
   14604:	00e69023          	sh	a4,0(a3)
   14608:	03079713          	slli	a4,a5,0x30
   1460c:	00268693          	addi	a3,a3,2
   14610:	03075713          	srli	a4,a4,0x30
   14614:	feb690e3          	bne	a3,a1,145f4 <enormlz+0x154>
   14618:	0044d783          	lhu	a5,4(s1)
   1461c:	ff800413          	li	s0,-8
   14620:	f89ff06f          	j	145a8 <enormlz+0x108>

0000000000014624 <emdnorm>:
   14624:	fc010113          	addi	sp,sp,-64
   14628:	02813823          	sd	s0,48(sp)
   1462c:	02913423          	sd	s1,40(sp)
   14630:	03213023          	sd	s2,32(sp)
   14634:	01313c23          	sd	s3,24(sp)
   14638:	01413823          	sd	s4,16(sp)
   1463c:	01513423          	sd	s5,8(sp)
   14640:	00068913          	mv	s2,a3
   14644:	00078493          	mv	s1,a5
   14648:	02113c23          	sd	ra,56(sp)
   1464c:	00050413          	mv	s0,a0
   14650:	00058993          	mv	s3,a1
   14654:	00060a13          	mv	s4,a2
   14658:	00070a93          	mv	s5,a4
   1465c:	e45ff0ef          	jal	ra,144a0 <enormlz>
   14660:	09000793          	li	a5,144
   14664:	40a90933          	sub	s2,s2,a0
   14668:	08a7d063          	bge	a5,a0,146e8 <emdnorm+0xc4>
   1466c:	000087b7          	lui	a5,0x8
   14670:	ffe78793          	addi	a5,a5,-2 # 7ffe <main-0x80b2>
   14674:	2327dc63          	bge	a5,s2,148ac <emdnorm+0x288>
   14678:	200a8663          	beqz	s5,14884 <emdnorm+0x260>
   1467c:	0044a503          	lw	a0,4(s1)
   14680:	0004a783          	lw	a5,0(s1)
   14684:	0ea78e63          	beq	a5,a0,14780 <emdnorm+0x15c>
   14688:	01a48713          	addi	a4,s1,26
   1468c:	03448793          	addi	a5,s1,52
   14690:	00270713          	addi	a4,a4,2
   14694:	fe071f23          	sh	zero,-2(a4)
   14698:	fef71ce3          	bne	a4,a5,14690 <emdnorm+0x6c>
   1469c:	03800793          	li	a5,56
   146a0:	38f50263          	beq	a0,a5,14a24 <emdnorm+0x400>
   146a4:	06a7d463          	bge	a5,a0,1470c <emdnorm+0xe8>
   146a8:	04000793          	li	a5,64
   146ac:	30f50c63          	beq	a0,a5,149c4 <emdnorm+0x3a0>
   146b0:	07100793          	li	a5,113
   146b4:	32f51e63          	bne	a0,a5,149f0 <emdnorm+0x3cc>
   146b8:	00a00793          	li	a5,10
   146bc:	40008737          	lui	a4,0x40008
   146c0:	fff70713          	addi	a4,a4,-1 # 40007fff <__BSS_END__+0x3ffe33df>
   146c4:	02079793          	slli	a5,a5,0x20
   146c8:	00a78793          	addi	a5,a5,10
   146cc:	00e4aa23          	sw	a4,20(s1)
   146d0:	ffff8737          	lui	a4,0xffff8
   146d4:	00e49c23          	sh	a4,24(s1)
   146d8:	00f4b423          	sd	a5,8(s1)
   146dc:	00008737          	lui	a4,0x8
   146e0:	00a00793          	li	a5,10
   146e4:	0640006f          	j	14748 <emdnorm+0x124>
   146e8:	20095263          	bgez	s2,148ec <emdnorm+0x2c8>
   146ec:	f7000793          	li	a5,-144
   146f0:	1cf95a63          	bge	s2,a5,148c4 <emdnorm+0x2a0>
   146f4:	00240793          	addi	a5,s0,2
   146f8:	01a40413          	addi	s0,s0,26
   146fc:	00278793          	addi	a5,a5,2
   14700:	fe079f23          	sh	zero,-2(a5)
   14704:	fe879ce3          	bne	a5,s0,146fc <emdnorm+0xd8>
   14708:	1580006f          	j	14860 <emdnorm+0x23c>
   1470c:	01800793          	li	a5,24
   14710:	28f50463          	beq	a0,a5,14998 <emdnorm+0x374>
   14714:	03500793          	li	a5,53
   14718:	2cf51c63          	bne	a0,a5,149f0 <emdnorm+0x3cc>
   1471c:	040006b7          	lui	a3,0x4000
   14720:	00001737          	lui	a4,0x1
   14724:	7ff68693          	addi	a3,a3,2047 # 40007ff <__BSS_END__+0x3fdbbdf>
   14728:	00600793          	li	a5,6
   1472c:	80070713          	addi	a4,a4,-2048 # 800 <main-0xf8b0>
   14730:	00d4aa23          	sw	a3,20(s1)
   14734:	02079793          	slli	a5,a5,0x20
   14738:	00678793          	addi	a5,a5,6
   1473c:	00f4b423          	sd	a5,8(s1)
   14740:	00e49c23          	sh	a4,24(s1)
   14744:	00600793          	li	a5,6
   14748:	00878793          	addi	a5,a5,8
   1474c:	00179793          	slli	a5,a5,0x1
   14750:	00f487b3          	add	a5,s1,a5
   14754:	00e79523          	sh	a4,10(a5)
   14758:	00a4a023          	sw	a0,0(s1)
   1475c:	03204263          	bgtz	s2,14780 <emdnorm+0x15c>
   14760:	09000793          	li	a5,144
   14764:	20f50663          	beq	a0,a5,14970 <emdnorm+0x34c>
   14768:	01845783          	lhu	a5,24(s0)
   1476c:	00040513          	mv	a0,s0
   14770:	0017f793          	andi	a5,a5,1
   14774:	00f9e9b3          	or	s3,s3,a5
   14778:	eecff0ef          	jal	ra,13e64 <eshdn1>
   1477c:	0044a503          	lw	a0,4(s1)
   14780:	0084a683          	lw	a3,8(s1)
   14784:	0144d603          	lhu	a2,20(s1)
   14788:	08f00793          	li	a5,143
   1478c:	00169713          	slli	a4,a3,0x1
   14790:	00e40833          	add	a6,s0,a4
   14794:	00085883          	lhu	a7,0(a6) # ffffffffffff8000 <__BSS_END__+0xfffffffffffd33e0>
   14798:	00c8f5b3          	and	a1,a7,a2
   1479c:	04a7c863          	blt	a5,a0,147ec <emdnorm+0x1c8>
   147a0:	00b00793          	li	a5,11
   147a4:	04d7c463          	blt	a5,a3,147ec <emdnorm+0x1c8>
   147a8:	40d787bb          	subw	a5,a5,a3
   147ac:	02079793          	slli	a5,a5,0x20
   147b0:	0207d793          	srli	a5,a5,0x20
   147b4:	00d787b3          	add	a5,a5,a3
   147b8:	00179693          	slli	a3,a5,0x1
   147bc:	00270713          	addi	a4,a4,2
   147c0:	00440793          	addi	a5,s0,4
   147c4:	00e40733          	add	a4,s0,a4
   147c8:	00f687b3          	add	a5,a3,a5
   147cc:	00075683          	lhu	a3,0(a4)
   147d0:	00068463          	beqz	a3,147d8 <emdnorm+0x1b4>
   147d4:	0015e593          	ori	a1,a1,1
   147d8:	00071023          	sh	zero,0(a4)
   147dc:	00270713          	addi	a4,a4,2
   147e0:	fee796e3          	bne	a5,a4,147cc <emdnorm+0x1a8>
   147e4:	00085883          	lhu	a7,0(a6)
   147e8:	0144d603          	lhu	a2,20(s1)
   147ec:	fff64613          	not	a2,a2
   147f0:	01167633          	and	a2,a2,a7
   147f4:	00c81023          	sh	a2,0(a6)
   147f8:	0164d783          	lhu	a5,22(s1)
   147fc:	00b7f733          	and	a4,a5,a1
   14800:	04070063          	beqz	a4,14840 <emdnorm+0x21c>
   14804:	12b78263          	beq	a5,a1,14928 <emdnorm+0x304>
   14808:	03248613          	addi	a2,s1,50
   1480c:	01840713          	addi	a4,s0,24
   14810:	01c48493          	addi	s1,s1,28
   14814:	00000693          	li	a3,0
   14818:	00065783          	lhu	a5,0(a2)
   1481c:	00075583          	lhu	a1,0(a4)
   14820:	ffe70713          	addi	a4,a4,-2
   14824:	ffe60613          	addi	a2,a2,-2
   14828:	00b787b3          	add	a5,a5,a1
   1482c:	00d787b3          	add	a5,a5,a3
   14830:	00f71123          	sh	a5,2(a4)
   14834:	0107d793          	srli	a5,a5,0x10
   14838:	0017f693          	andi	a3,a5,1
   1483c:	fc961ee3          	bne	a2,s1,14818 <emdnorm+0x1f4>
   14840:	11205663          	blez	s2,1494c <emdnorm+0x328>
   14844:	00445783          	lhu	a5,4(s0)
   14848:	0a079c63          	bnez	a5,14900 <emdnorm+0x2dc>
   1484c:	000087b7          	lui	a5,0x8
   14850:	00041c23          	sh	zero,24(s0)
   14854:	ffe78793          	addi	a5,a5,-2 # 7ffe <main-0x80b2>
   14858:	0327c863          	blt	a5,s2,14888 <emdnorm+0x264>
   1485c:	01241123          	sh	s2,2(s0)
   14860:	03813083          	ld	ra,56(sp)
   14864:	03013403          	ld	s0,48(sp)
   14868:	02813483          	ld	s1,40(sp)
   1486c:	02013903          	ld	s2,32(sp)
   14870:	01813983          	ld	s3,24(sp)
   14874:	01013a03          	ld	s4,16(sp)
   14878:	00813a83          	ld	s5,8(sp)
   1487c:	04010113          	addi	sp,sp,64
   14880:	00008067          	ret
   14884:	00041c23          	sh	zero,24(s0)
   14888:	ffff87b7          	lui	a5,0xffff8
   1488c:	fff7c793          	not	a5,a5
   14890:	00f41123          	sh	a5,2(s0)
   14894:	00440793          	addi	a5,s0,4
   14898:	01840413          	addi	s0,s0,24
   1489c:	00079023          	sh	zero,0(a5) # ffffffffffff8000 <__BSS_END__+0xfffffffffffd33e0>
   148a0:	00278793          	addi	a5,a5,2
   148a4:	fef41ce3          	bne	s0,a5,1489c <emdnorm+0x278>
   148a8:	fb9ff06f          	j	14860 <emdnorm+0x23c>
   148ac:	00240793          	addi	a5,s0,2
   148b0:	01a40413          	addi	s0,s0,26
   148b4:	00278793          	addi	a5,a5,2
   148b8:	fe079f23          	sh	zero,-2(a5)
   148bc:	fe879ce3          	bne	a5,s0,148b4 <emdnorm+0x290>
   148c0:	fa1ff06f          	j	14860 <emdnorm+0x23c>
   148c4:	0009059b          	sext.w	a1,s2
   148c8:	00040513          	mv	a0,s0
   148cc:	a29ff0ef          	jal	ra,142f4 <eshift.part.3>
   148d0:	00050463          	beqz	a0,148d8 <emdnorm+0x2b4>
   148d4:	00100993          	li	s3,1
   148d8:	0a0a8a63          	beqz	s5,1498c <emdnorm+0x368>
   148dc:	0044a503          	lw	a0,4(s1)
   148e0:	0004a783          	lw	a5,0(s1)
   148e4:	daa792e3          	bne	a5,a0,14688 <emdnorm+0x64>
   148e8:	e79ff06f          	j	14760 <emdnorm+0x13c>
   148ec:	f60a80e3          	beqz	s5,1484c <emdnorm+0x228>
   148f0:	0044a503          	lw	a0,4(s1)
   148f4:	0004a783          	lw	a5,0(s1)
   148f8:	d8a798e3          	bne	a5,a0,14688 <emdnorm+0x64>
   148fc:	e61ff06f          	j	1475c <emdnorm+0x138>
   14900:	00040513          	mv	a0,s0
   14904:	d60ff0ef          	jal	ra,13e64 <eshdn1>
   14908:	000087b7          	lui	a5,0x8
   1490c:	00190913          	addi	s2,s2,1
   14910:	00041c23          	sh	zero,24(s0)
   14914:	ffe78793          	addi	a5,a5,-2 # 7ffe <main-0x80b2>
   14918:	f727c8e3          	blt	a5,s2,14888 <emdnorm+0x264>
   1491c:	f40950e3          	bgez	s2,1485c <emdnorm+0x238>
   14920:	00041123          	sh	zero,2(s0)
   14924:	f3dff06f          	j	14860 <emdnorm+0x23c>
   14928:	0e099a63          	bnez	s3,14a1c <emdnorm+0x3f8>
   1492c:	00c4a783          	lw	a5,12(s1)
   14930:	0184d703          	lhu	a4,24(s1)
   14934:	00179793          	slli	a5,a5,0x1
   14938:	00f407b3          	add	a5,s0,a5
   1493c:	0007d783          	lhu	a5,0(a5)
   14940:	00e7f7b3          	and	a5,a5,a4
   14944:	ec0792e3          	bnez	a5,14808 <emdnorm+0x1e4>
   14948:	ef204ee3          	bgtz	s2,14844 <emdnorm+0x220>
   1494c:	09000793          	li	a5,144
   14950:	00f50663          	beq	a0,a5,1495c <emdnorm+0x338>
   14954:	00040513          	mv	a0,s0
   14958:	d74ff0ef          	jal	ra,13ecc <eshup1>
   1495c:	00445783          	lhu	a5,4(s0)
   14960:	fa0790e3          	bnez	a5,14900 <emdnorm+0x2dc>
   14964:	00041c23          	sh	zero,24(s0)
   14968:	fa094ce3          	bltz	s2,14920 <emdnorm+0x2fc>
   1496c:	ef1ff06f          	j	1485c <emdnorm+0x238>
   14970:	0084a803          	lw	a6,8(s1)
   14974:	0144d603          	lhu	a2,20(s1)
   14978:	00181813          	slli	a6,a6,0x1
   1497c:	01040833          	add	a6,s0,a6
   14980:	00085883          	lhu	a7,0(a6)
   14984:	011675b3          	and	a1,a2,a7
   14988:	e65ff06f          	j	147ec <emdnorm+0x1c8>
   1498c:	00041c23          	sh	zero,24(s0)
   14990:	00041123          	sh	zero,2(s0)
   14994:	ecdff06f          	j	14860 <emdnorm+0x23c>
   14998:	00400793          	li	a5,4
   1499c:	00800737          	lui	a4,0x800
   149a0:	0ff70713          	addi	a4,a4,255 # 8000ff <__BSS_END__+0x7db4df>
   149a4:	02079793          	slli	a5,a5,0x20
   149a8:	00478793          	addi	a5,a5,4
   149ac:	00e4aa23          	sw	a4,20(s1)
   149b0:	10000713          	li	a4,256
   149b4:	00f4b423          	sd	a5,8(s1)
   149b8:	00e49c23          	sh	a4,24(s1)
   149bc:	00400793          	li	a5,4
   149c0:	d89ff06f          	j	14748 <emdnorm+0x124>
   149c4:	00300793          	li	a5,3
   149c8:	80010737          	lui	a4,0x80010
   149cc:	fff70713          	addi	a4,a4,-1 # ffffffff8000ffff <__BSS_END__+0xffffffff7ffeb3df>
   149d0:	02179793          	slli	a5,a5,0x21
   149d4:	00778793          	addi	a5,a5,7
   149d8:	00e4aa23          	sw	a4,20(s1)
   149dc:	00100713          	li	a4,1
   149e0:	00f4b423          	sd	a5,8(s1)
   149e4:	00e49c23          	sh	a4,24(s1)
   149e8:	00600793          	li	a5,6
   149ec:	d5dff06f          	j	14748 <emdnorm+0x124>
   149f0:	00b00793          	li	a5,11
   149f4:	80010737          	lui	a4,0x80010
   149f8:	fff70713          	addi	a4,a4,-1 # ffffffff8000ffff <__BSS_END__+0xffffffff7ffeb3df>
   149fc:	02079793          	slli	a5,a5,0x20
   14a00:	00c78793          	addi	a5,a5,12
   14a04:	00e4aa23          	sw	a4,20(s1)
   14a08:	00100713          	li	a4,1
   14a0c:	00f4b423          	sd	a5,8(s1)
   14a10:	00e49c23          	sh	a4,24(s1)
   14a14:	00b00793          	li	a5,11
   14a18:	d31ff06f          	j	14748 <emdnorm+0x124>
   14a1c:	de0a06e3          	beqz	s4,14808 <emdnorm+0x1e4>
   14a20:	e21ff06f          	j	14840 <emdnorm+0x21c>
   14a24:	00800737          	lui	a4,0x800
   14a28:	0ff70713          	addi	a4,a4,255 # 8000ff <__BSS_END__+0x7db4df>
   14a2c:	00e4aa23          	sw	a4,20(s1)
   14a30:	00600793          	li	a5,6
   14a34:	10000713          	li	a4,256
   14a38:	cfdff06f          	j	14734 <emdnorm+0x110>

0000000000014a3c <eiremain>:
   14a3c:	fa010113          	addi	sp,sp,-96
   14a40:	03313c23          	sd	s3,56(sp)
   14a44:	00255983          	lhu	s3,2(a0)
   14a48:	04913423          	sd	s1,72(sp)
   14a4c:	00058493          	mv	s1,a1
   14a50:	04113c23          	sd	ra,88(sp)
   14a54:	04813823          	sd	s0,80(sp)
   14a58:	05213023          	sd	s2,64(sp)
   14a5c:	03413823          	sd	s4,48(sp)
   14a60:	00060913          	mv	s2,a2
   14a64:	03513423          	sd	s5,40(sp)
   14a68:	03613023          	sd	s6,32(sp)
   14a6c:	01713c23          	sd	s7,24(sp)
   14a70:	01813823          	sd	s8,16(sp)
   14a74:	01913423          	sd	s9,8(sp)
   14a78:	01a13023          	sd	s10,0(sp)
   14a7c:	00050a13          	mv	s4,a0
   14a80:	a21ff0ef          	jal	ra,144a0 <enormlz>
   14a84:	0024d403          	lhu	s0,2(s1)
   14a88:	40a989b3          	sub	s3,s3,a0
   14a8c:	00048513          	mv	a0,s1
   14a90:	a11ff0ef          	jal	ra,144a0 <enormlz>
   14a94:	03490a93          	addi	s5,s2,52
   14a98:	40a40433          	sub	s0,s0,a0
   14a9c:	04e90713          	addi	a4,s2,78
   14aa0:	000a8793          	mv	a5,s5
   14aa4:	00278793          	addi	a5,a5,2
   14aa8:	fe079f23          	sh	zero,-2(a5)
   14aac:	fee79ce3          	bne	a5,a4,14aa4 <eiremain+0x68>
   14ab0:	09344a63          	blt	s0,s3,14b44 <eiremain+0x108>
   14ab4:	004a0b93          	addi	s7,s4,4
   14ab8:	00448b13          	addi	s6,s1,4
   14abc:	fff98993          	addi	s3,s3,-1
   14ac0:	01aa0c93          	addi	s9,s4,26
   14ac4:	00248c13          	addi	s8,s1,2
   14ac8:	000b0713          	mv	a4,s6
   14acc:	000b8793          	mv	a5,s7
   14ad0:	00278793          	addi	a5,a5,2
   14ad4:	00270713          	addi	a4,a4,2
   14ad8:	ffe7d603          	lhu	a2,-2(a5)
   14adc:	ffe75683          	lhu	a3,-2(a4)
   14ae0:	0ad61a63          	bne	a2,a3,14b94 <eiremain+0x158>
   14ae4:	fefc96e3          	bne	s9,a5,14ad0 <eiremain+0x94>
   14ae8:	018a0693          	addi	a3,s4,24
   14aec:	01848713          	addi	a4,s1,24
   14af0:	00000613          	li	a2,0
   14af4:	00075783          	lhu	a5,0(a4)
   14af8:	0006d583          	lhu	a1,0(a3)
   14afc:	ffe70713          	addi	a4,a4,-2
   14b00:	40c787b3          	sub	a5,a5,a2
   14b04:	40b787b3          	sub	a5,a5,a1
   14b08:	00f71123          	sh	a5,2(a4)
   14b0c:	0107d793          	srli	a5,a5,0x10
   14b10:	ffe68693          	addi	a3,a3,-2
   14b14:	0017f613          	andi	a2,a5,1
   14b18:	fcec1ee3          	bne	s8,a4,14af4 <eiremain+0xb8>
   14b1c:	00100d13          	li	s10,1
   14b20:	000a8513          	mv	a0,s5
   14b24:	ba8ff0ef          	jal	ra,13ecc <eshup1>
   14b28:	04c95783          	lhu	a5,76(s2)
   14b2c:	fff40413          	addi	s0,s0,-1
   14b30:	00048513          	mv	a0,s1
   14b34:	00fd6d33          	or	s10,s10,a5
   14b38:	05a91623          	sh	s10,76(s2)
   14b3c:	b90ff0ef          	jal	ra,13ecc <eshup1>
   14b40:	f93414e3          	bne	s0,s3,14ac8 <eiremain+0x8c>
   14b44:	00040693          	mv	a3,s0
   14b48:	05013403          	ld	s0,80(sp)
   14b4c:	05813083          	ld	ra,88(sp)
   14b50:	03813983          	ld	s3,56(sp)
   14b54:	03013a03          	ld	s4,48(sp)
   14b58:	02813a83          	ld	s5,40(sp)
   14b5c:	02013b03          	ld	s6,32(sp)
   14b60:	01813b83          	ld	s7,24(sp)
   14b64:	01013c03          	ld	s8,16(sp)
   14b68:	00813c83          	ld	s9,8(sp)
   14b6c:	00013d03          	ld	s10,0(sp)
   14b70:	00090793          	mv	a5,s2
   14b74:	00048513          	mv	a0,s1
   14b78:	04013903          	ld	s2,64(sp)
   14b7c:	04813483          	ld	s1,72(sp)
   14b80:	00000713          	li	a4,0
   14b84:	00000613          	li	a2,0
   14b88:	00000593          	li	a1,0
   14b8c:	06010113          	addi	sp,sp,96
   14b90:	a95ff06f          	j	14624 <emdnorm>
   14b94:	00000d13          	li	s10,0
   14b98:	f8c6e4e3          	bltu	a3,a2,14b20 <eiremain+0xe4>
   14b9c:	f4dff06f          	j	14ae8 <eiremain+0xac>

0000000000014ba0 <emovo.isra.6>:
   14ba0:	00055703          	lhu	a4,0(a0)
   14ba4:	00255783          	lhu	a5,2(a0)
   14ba8:	00070663          	beqz	a4,14bb4 <emovo.isra.6+0x14>
   14bac:	00008737          	lui	a4,0x8
   14bb0:	00e7e7b3          	or	a5,a5,a4
   14bb4:	00f59923          	sh	a5,18(a1)
   14bb8:	00255703          	lhu	a4,2(a0)
   14bbc:	000087b7          	lui	a5,0x8
   14bc0:	fff78793          	addi	a5,a5,-1 # 7fff <main-0x80b1>
   14bc4:	02f70463          	beq	a4,a5,14bec <emovo.isra.6+0x4c>
   14bc8:	00650793          	addi	a5,a0,6
   14bcc:	01058593          	addi	a1,a1,16
   14bd0:	01850513          	addi	a0,a0,24
   14bd4:	00278793          	addi	a5,a5,2
   14bd8:	ffe7d703          	lhu	a4,-2(a5)
   14bdc:	ffe58593          	addi	a1,a1,-2
   14be0:	00e59123          	sh	a4,2(a1)
   14be4:	fea798e3          	bne	a5,a0,14bd4 <emovo.isra.6+0x34>
   14be8:	00008067          	ret
   14bec:	00650793          	addi	a5,a0,6
   14bf0:	01a50513          	addi	a0,a0,26
   14bf4:	0007d703          	lhu	a4,0(a5)
   14bf8:	00278793          	addi	a5,a5,2
   14bfc:	02071a63          	bnez	a4,14c30 <emovo.isra.6+0x90>
   14c00:	fea79ae3          	bne	a5,a0,14bf4 <emovo.isra.6+0x54>
   14c04:	01258713          	addi	a4,a1,18
   14c08:	00058793          	mv	a5,a1
   14c0c:	00278793          	addi	a5,a5,2
   14c10:	fe079f23          	sh	zero,-2(a5)
   14c14:	fef71ce3          	bne	a4,a5,14c0c <emovo.isra.6+0x6c>
   14c18:	0125d783          	lhu	a5,18(a1)
   14c1c:	00008737          	lui	a4,0x8
   14c20:	fff70713          	addi	a4,a4,-1 # 7fff <main-0x80b1>
   14c24:	00e7e7b3          	or	a5,a5,a4
   14c28:	00f59923          	sh	a5,18(a1)
   14c2c:	00008067          	ret
   14c30:	01058713          	addi	a4,a1,16
   14c34:	00058793          	mv	a5,a1
   14c38:	00278793          	addi	a5,a5,2
   14c3c:	fe079f23          	sh	zero,-2(a5)
   14c40:	fef71ce3          	bne	a4,a5,14c38 <emovo.isra.6+0x98>
   14c44:	7fffc7b7          	lui	a5,0x7fffc
   14c48:	00f5a823          	sw	a5,16(a1)
   14c4c:	00008067          	ret

0000000000014c50 <emul>:
   14c50:	f4010113          	addi	sp,sp,-192
   14c54:	09513423          	sd	s5,136(sp)
   14c58:	01255a83          	lhu	s5,18(a0)
   14c5c:	000087b7          	lui	a5,0x8
   14c60:	fff78793          	addi	a5,a5,-1 # 7fff <main-0x80b1>
   14c64:	0a813823          	sd	s0,176(sp)
   14c68:	0a913423          	sd	s1,168(sp)
   14c6c:	0b213023          	sd	s2,160(sp)
   14c70:	09313c23          	sd	s3,152(sp)
   14c74:	09613023          	sd	s6,128(sp)
   14c78:	0a113c23          	sd	ra,184(sp)
   14c7c:	09413823          	sd	s4,144(sp)
   14c80:	07713c23          	sd	s7,120(sp)
   14c84:	07813823          	sd	s8,112(sp)
   14c88:	07913423          	sd	s9,104(sp)
   14c8c:	0157fb33          	and	s6,a5,s5
   14c90:	00050493          	mv	s1,a0
   14c94:	00058913          	mv	s2,a1
   14c98:	00060413          	mv	s0,a2
   14c9c:	00068993          	mv	s3,a3
   14ca0:	0afb1863          	bne	s6,a5,14d50 <emul+0x100>
   14ca4:	b7cff0ef          	jal	ra,14020 <eisnan.part.0>
   14ca8:	20051c63          	bnez	a0,14ec0 <emul+0x270>
   14cac:	01295a03          	lhu	s4,18(s2)
   14cb0:	014b77b3          	and	a5,s6,s4
   14cb4:	23679463          	bne	a5,s6,14edc <emul+0x28c>
   14cb8:	00090513          	mv	a0,s2
   14cbc:	b64ff0ef          	jal	ra,14020 <eisnan.part.0>
   14cc0:	0a051463          	bnez	a0,14d68 <emul+0x118>
   14cc4:	00048513          	mv	a0,s1
   14cc8:	e10ff0ef          	jal	ra,142d8 <eisinf.part.1>
   14ccc:	20051e63          	bnez	a0,14ee8 <emul+0x298>
   14cd0:	000087b7          	lui	a5,0x8
   14cd4:	fff78793          	addi	a5,a5,-1 # 7fff <main-0x80b1>
   14cd8:	0147fa33          	and	s4,a5,s4
   14cdc:	030a1a13          	slli	s4,s4,0x30
   14ce0:	030a5a13          	srli	s4,s4,0x30
   14ce4:	2cfa1663          	bne	s4,a5,14fb0 <emul+0x360>
   14ce8:	00090513          	mv	a0,s2
   14cec:	decff0ef          	jal	ra,142d8 <eisinf.part.1>
   14cf0:	32051263          	bnez	a0,15014 <emul+0x3c4>
   14cf4:	0124d783          	lhu	a5,18(s1)
   14cf8:	00fa77b3          	and	a5,s4,a5
   14cfc:	21478463          	beq	a5,s4,14f04 <emul+0x2b4>
   14d00:	00048513          	mv	a0,s1
   14d04:	00010593          	mv	a1,sp
   14d08:	bc8ff0ef          	jal	ra,140d0 <emovi>
   14d0c:	00090513          	mv	a0,s2
   14d10:	02010593          	addi	a1,sp,32
   14d14:	bbcff0ef          	jal	ra,140d0 <emovi>
   14d18:	00215483          	lhu	s1,2(sp)
   14d1c:	02215903          	lhu	s2,34(sp)
   14d20:	08049a63          	bnez	s1,14db4 <emul+0x164>
   14d24:	00410793          	addi	a5,sp,4
   14d28:	01810693          	addi	a3,sp,24
   14d2c:	2cd78063          	beq	a5,a3,14fec <emul+0x39c>
   14d30:	00278793          	addi	a5,a5,2
   14d34:	ffe7d703          	lhu	a4,-2(a5)
   14d38:	fe070ae3          	beqz	a4,14d2c <emul+0xdc>
   14d3c:	00010513          	mv	a0,sp
   14d40:	f60ff0ef          	jal	ra,144a0 <enormlz>
   14d44:	40a004b3          	neg	s1,a0
   14d48:	02215703          	lhu	a4,34(sp)
   14d4c:	06c0006f          	j	14db8 <emul+0x168>
   14d50:	0125da03          	lhu	s4,18(a1)
   14d54:	0147f733          	and	a4,a5,s4
   14d58:	faf714e3          	bne	a4,a5,14d00 <emul+0xb0>
   14d5c:	00058513          	mv	a0,a1
   14d60:	ac0ff0ef          	jal	ra,14020 <eisnan.part.0>
   14d64:	f60506e3          	beqz	a0,14cd0 <emul+0x80>
   14d68:	01490713          	addi	a4,s2,20
   14d6c:	00290913          	addi	s2,s2,2
   14d70:	ffe95783          	lhu	a5,-2(s2)
   14d74:	00240413          	addi	s0,s0,2
   14d78:	fef41f23          	sh	a5,-2(s0)
   14d7c:	fee918e3          	bne	s2,a4,14d6c <emul+0x11c>
   14d80:	0b813083          	ld	ra,184(sp)
   14d84:	0b013403          	ld	s0,176(sp)
   14d88:	0a813483          	ld	s1,168(sp)
   14d8c:	0a013903          	ld	s2,160(sp)
   14d90:	09813983          	ld	s3,152(sp)
   14d94:	09013a03          	ld	s4,144(sp)
   14d98:	08813a83          	ld	s5,136(sp)
   14d9c:	08013b03          	ld	s6,128(sp)
   14da0:	07813b83          	ld	s7,120(sp)
   14da4:	07013c03          	ld	s8,112(sp)
   14da8:	06813c83          	ld	s9,104(sp)
   14dac:	0c010113          	addi	sp,sp,192
   14db0:	00008067          	ret
   14db4:	00090713          	mv	a4,s2
   14db8:	00090b13          	mv	s6,s2
   14dbc:	02410793          	addi	a5,sp,36
   14dc0:	03810693          	addi	a3,sp,56
   14dc4:	02071263          	bnez	a4,14de8 <emul+0x198>
   14dc8:	22f68c63          	beq	a3,a5,15000 <emul+0x3b0>
   14dcc:	00278793          	addi	a5,a5,2
   14dd0:	ffe7d703          	lhu	a4,-2(a5)
   14dd4:	fe070ae3          	beqz	a4,14dc8 <emul+0x178>
   14dd8:	02010513          	addi	a0,sp,32
   14ddc:	ec4ff0ef          	jal	ra,144a0 <enormlz>
   14de0:	02215703          	lhu	a4,34(sp)
   14de4:	40a90b33          	sub	s6,s2,a0
   14de8:	02015783          	lhu	a5,32(sp)
   14dec:	03898a93          	addi	s5,s3,56
   14df0:	02e99b23          	sh	a4,54(s3)
   14df4:	02f99a23          	sh	a5,52(s3)
   14df8:	04e98713          	addi	a4,s3,78
   14dfc:	000a8793          	mv	a5,s5
   14e00:	00079023          	sh	zero,0(a5)
   14e04:	00278793          	addi	a5,a5,2
   14e08:	fef71ce3          	bne	a4,a5,14e00 <emul+0x1b0>
   14e0c:	04c98b93          	addi	s7,s3,76
   14e10:	00000a13          	li	s4,0
   14e14:	01810913          	addi	s2,sp,24
   14e18:	00410c93          	addi	s9,sp,4
   14e1c:	04210c13          	addi	s8,sp,66
   14e20:	00095503          	lhu	a0,0(s2)
   14e24:	ffe90913          	addi	s2,s2,-2
   14e28:	14051263          	bnez	a0,14f6c <emul+0x31c>
   14e2c:	04c9d703          	lhu	a4,76(s3)
   14e30:	000b8793          	mv	a5,s7
   14e34:	00ea6a33          	or	s4,s4,a4
   14e38:	ffe78793          	addi	a5,a5,-2
   14e3c:	0007d703          	lhu	a4,0(a5)
   14e40:	00e79123          	sh	a4,2(a5)
   14e44:	ff579ae3          	bne	a5,s5,14e38 <emul+0x1e8>
   14e48:	02099c23          	sh	zero,56(s3)
   14e4c:	fd991ae3          	bne	s2,s9,14e20 <emul+0x1d0>
   14e50:	03498713          	addi	a4,s3,52
   14e54:	02010793          	addi	a5,sp,32
   14e58:	03a10693          	addi	a3,sp,58
   14e5c:	00075603          	lhu	a2,0(a4)
   14e60:	00278793          	addi	a5,a5,2
   14e64:	00270713          	addi	a4,a4,2
   14e68:	fec79f23          	sh	a2,-2(a5)
   14e6c:	fef698e3          	bne	a3,a5,14e5c <emul+0x20c>
   14e70:	ffffc6b7          	lui	a3,0xffffc
   14e74:	016484b3          	add	s1,s1,s6
   14e78:	00268693          	addi	a3,a3,2 # ffffffffffffc002 <__BSS_END__+0xfffffffffffd73e2>
   14e7c:	000a0593          	mv	a1,s4
   14e80:	02010513          	addi	a0,sp,32
   14e84:	00098793          	mv	a5,s3
   14e88:	04000713          	li	a4,64
   14e8c:	00d486b3          	add	a3,s1,a3
   14e90:	00000613          	li	a2,0
   14e94:	f90ff0ef          	jal	ra,14624 <emdnorm>
   14e98:	02015703          	lhu	a4,32(sp)
   14e9c:	00015783          	lhu	a5,0(sp)
   14ea0:	00040593          	mv	a1,s0
   14ea4:	02010513          	addi	a0,sp,32
   14ea8:	40e787b3          	sub	a5,a5,a4
   14eac:	00f037b3          	snez	a5,a5
   14eb0:	40f007bb          	negw	a5,a5
   14eb4:	02f11023          	sh	a5,32(sp)
   14eb8:	ce9ff0ef          	jal	ra,14ba0 <emovo.isra.6>
   14ebc:	ec5ff06f          	j	14d80 <emul+0x130>
   14ec0:	01448713          	addi	a4,s1,20
   14ec4:	00248493          	addi	s1,s1,2
   14ec8:	ffe4d783          	lhu	a5,-2(s1)
   14ecc:	00240413          	addi	s0,s0,2
   14ed0:	fef41f23          	sh	a5,-2(s0)
   14ed4:	fee498e3          	bne	s1,a4,14ec4 <emul+0x274>
   14ed8:	ea9ff06f          	j	14d80 <emul+0x130>
   14edc:	00048513          	mv	a0,s1
   14ee0:	bf8ff0ef          	jal	ra,142d8 <eisinf.part.1>
   14ee4:	0c050863          	beqz	a0,14fb4 <emul+0x364>
   14ee8:	0000d597          	auipc	a1,0xd
   14eec:	0e858593          	addi	a1,a1,232 # 21fd0 <ezero>
   14ef0:	00090513          	mv	a0,s2
   14ef4:	ac8ff0ef          	jal	ra,141bc <ecmp>
   14ef8:	14050063          	beqz	a0,15038 <emul+0x3e8>
   14efc:	01295a03          	lhu	s4,18(s2)
   14f00:	dd1ff06f          	j	14cd0 <emul+0x80>
   14f04:	00048513          	mv	a0,s1
   14f08:	bd0ff0ef          	jal	ra,142d8 <eisinf.part.1>
   14f0c:	00051863          	bnez	a0,14f1c <emul+0x2cc>
   14f10:	00090513          	mv	a0,s2
   14f14:	bc4ff0ef          	jal	ra,142d8 <eisinf.part.1>
   14f18:	de0504e3          	beqz	a0,14d00 <emul+0xb0>
   14f1c:	00048513          	mv	a0,s1
   14f20:	970ff0ef          	jal	ra,14090 <eisneg>
   14f24:	00050493          	mv	s1,a0
   14f28:	00090513          	mv	a0,s2
   14f2c:	964ff0ef          	jal	ra,14090 <eisneg>
   14f30:	40a48533          	sub	a0,s1,a0
   14f34:	00a03533          	snez	a0,a0
   14f38:	00f51513          	slli	a0,a0,0xf
   14f3c:	00a41923          	sh	a0,18(s0)
   14f40:	01240713          	addi	a4,s0,18
   14f44:	00040793          	mv	a5,s0
   14f48:	00278793          	addi	a5,a5,2
   14f4c:	fe079f23          	sh	zero,-2(a5)
   14f50:	fee79ce3          	bne	a5,a4,14f48 <emul+0x2f8>
   14f54:	01245783          	lhu	a5,18(s0)
   14f58:	00008737          	lui	a4,0x8
   14f5c:	fff70713          	addi	a4,a4,-1 # 7fff <main-0x80b1>
   14f60:	00e7e7b3          	or	a5,a5,a4
   14f64:	00f41923          	sh	a5,18(s0)
   14f68:	e19ff06f          	j	14d80 <emul+0x130>
   14f6c:	04010613          	addi	a2,sp,64
   14f70:	02010593          	addi	a1,sp,32
   14f74:	fcdfe0ef          	jal	ra,13f40 <m16m>
   14f78:	000b8613          	mv	a2,s7
   14f7c:	00000593          	li	a1,0
   14f80:	05810713          	addi	a4,sp,88
   14f84:	00065503          	lhu	a0,0(a2)
   14f88:	00075783          	lhu	a5,0(a4)
   14f8c:	ffe60613          	addi	a2,a2,-2
   14f90:	ffe70713          	addi	a4,a4,-2
   14f94:	00a787b3          	add	a5,a5,a0
   14f98:	00b787b3          	add	a5,a5,a1
   14f9c:	00f61123          	sh	a5,2(a2)
   14fa0:	0107d793          	srli	a5,a5,0x10
   14fa4:	0017f593          	andi	a1,a5,1
   14fa8:	fd871ee3          	bne	a4,s8,14f84 <emul+0x334>
   14fac:	e81ff06f          	j	14e2c <emul+0x1dc>
   14fb0:	0124da83          	lhu	s5,18(s1)
   14fb4:	000087b7          	lui	a5,0x8
   14fb8:	fff78793          	addi	a5,a5,-1 # 7fff <main-0x80b1>
   14fbc:	0157fab3          	and	s5,a5,s5
   14fc0:	030a9a93          	slli	s5,s5,0x30
   14fc4:	030ada93          	srli	s5,s5,0x30
   14fc8:	d2fa9ce3          	bne	s5,a5,14d00 <emul+0xb0>
   14fcc:	00048513          	mv	a0,s1
   14fd0:	b08ff0ef          	jal	ra,142d8 <eisinf.part.1>
   14fd4:	f40514e3          	bnez	a0,14f1c <emul+0x2cc>
   14fd8:	01295783          	lhu	a5,18(s2)
   14fdc:	fff7c793          	not	a5,a5
   14fe0:	03179713          	slli	a4,a5,0x31
   14fe4:	d0071ee3          	bnez	a4,14d00 <emul+0xb0>
   14fe8:	f29ff06f          	j	14f10 <emul+0x2c0>
   14fec:	01440793          	addi	a5,s0,20
   14ff0:	00240413          	addi	s0,s0,2
   14ff4:	fe041f23          	sh	zero,-2(s0)
   14ff8:	fe879ce3          	bne	a5,s0,14ff0 <emul+0x3a0>
   14ffc:	d85ff06f          	j	14d80 <emul+0x130>
   15000:	01440793          	addi	a5,s0,20
   15004:	00240413          	addi	s0,s0,2
   15008:	fe041f23          	sh	zero,-2(s0)
   1500c:	fef41ce3          	bne	s0,a5,15004 <emul+0x3b4>
   15010:	d71ff06f          	j	14d80 <emul+0x130>
   15014:	0000d597          	auipc	a1,0xd
   15018:	fbc58593          	addi	a1,a1,-68 # 21fd0 <ezero>
   1501c:	00048513          	mv	a0,s1
   15020:	99cff0ef          	jal	ra,141bc <ecmp>
   15024:	00050a63          	beqz	a0,15038 <emul+0x3e8>
   15028:	0124d783          	lhu	a5,18(s1)
   1502c:	00fa77b3          	and	a5,s4,a5
   15030:	f9478ee3          	beq	a5,s4,14fcc <emul+0x37c>
   15034:	fa5ff06f          	j	14fd8 <emul+0x388>
   15038:	01040713          	addi	a4,s0,16
   1503c:	00040793          	mv	a5,s0
   15040:	00278793          	addi	a5,a5,2
   15044:	fe079f23          	sh	zero,-2(a5)
   15048:	fee79ce3          	bne	a5,a4,15040 <emul+0x3f0>
   1504c:	7fffc7b7          	lui	a5,0x7fffc
   15050:	00f42823          	sw	a5,16(s0)
   15054:	d2dff06f          	j	14d80 <emul+0x130>

0000000000015058 <ediv>:
   15058:	01255783          	lhu	a5,18(a0)
   1505c:	f2010113          	addi	sp,sp,-224
   15060:	0c813823          	sd	s0,208(sp)
   15064:	fff7c793          	not	a5,a5
   15068:	0c913423          	sd	s1,200(sp)
   1506c:	0d213023          	sd	s2,192(sp)
   15070:	09813823          	sd	s8,144(sp)
   15074:	0c113c23          	sd	ra,216(sp)
   15078:	0b313c23          	sd	s3,184(sp)
   1507c:	0b413823          	sd	s4,176(sp)
   15080:	0b513423          	sd	s5,168(sp)
   15084:	0b613023          	sd	s6,160(sp)
   15088:	09713c23          	sd	s7,152(sp)
   1508c:	09913423          	sd	s9,136(sp)
   15090:	09a13023          	sd	s10,128(sp)
   15094:	07b13c23          	sd	s11,120(sp)
   15098:	03179713          	slli	a4,a5,0x31
   1509c:	00050493          	mv	s1,a0
   150a0:	00058913          	mv	s2,a1
   150a4:	00060413          	mv	s0,a2
   150a8:	00068c13          	mv	s8,a3
   150ac:	00071663          	bnez	a4,150b8 <ediv+0x60>
   150b0:	f71fe0ef          	jal	ra,14020 <eisnan.part.0>
   150b4:	38051463          	bnez	a0,1543c <ediv+0x3e4>
   150b8:	01295783          	lhu	a5,18(s2)
   150bc:	fff7c793          	not	a5,a5
   150c0:	03179713          	slli	a4,a5,0x31
   150c4:	08070e63          	beqz	a4,15160 <ediv+0x108>
   150c8:	0000d597          	auipc	a1,0xd
   150cc:	f0858593          	addi	a1,a1,-248 # 21fd0 <ezero>
   150d0:	00048513          	mv	a0,s1
   150d4:	8e8ff0ef          	jal	ra,141bc <ecmp>
   150d8:	10050463          	beqz	a0,151e0 <ediv+0x188>
   150dc:	0124d983          	lhu	s3,18(s1)
   150e0:	01295703          	lhu	a4,18(s2)
   150e4:	000087b7          	lui	a5,0x8
   150e8:	fff78793          	addi	a5,a5,-1 # 7fff <main-0x80b1>
   150ec:	0137f9b3          	and	s3,a5,s3
   150f0:	00e7fa33          	and	s4,a5,a4
   150f4:	08f99a63          	bne	s3,a5,15188 <ediv+0x130>
   150f8:	00048513          	mv	a0,s1
   150fc:	9dcff0ef          	jal	ra,142d8 <eisinf.part.1>
   15100:	10050a63          	beqz	a0,15214 <ediv+0x1bc>
   15104:	013a1863          	bne	s4,s3,15114 <ediv+0xbc>
   15108:	00090513          	mv	a0,s2
   1510c:	9ccff0ef          	jal	ra,142d8 <eisinf.part.1>
   15110:	0e051263          	bnez	a0,151f4 <ediv+0x19c>
   15114:	01440793          	addi	a5,s0,20
   15118:	00240413          	addi	s0,s0,2
   1511c:	fe041f23          	sh	zero,-2(s0)
   15120:	fef41ce3          	bne	s0,a5,15118 <ediv+0xc0>
   15124:	0d813083          	ld	ra,216(sp)
   15128:	0d013403          	ld	s0,208(sp)
   1512c:	0c813483          	ld	s1,200(sp)
   15130:	0c013903          	ld	s2,192(sp)
   15134:	0b813983          	ld	s3,184(sp)
   15138:	0b013a03          	ld	s4,176(sp)
   1513c:	0a813a83          	ld	s5,168(sp)
   15140:	0a013b03          	ld	s6,160(sp)
   15144:	09813b83          	ld	s7,152(sp)
   15148:	09013c03          	ld	s8,144(sp)
   1514c:	08813c83          	ld	s9,136(sp)
   15150:	08013d03          	ld	s10,128(sp)
   15154:	07813d83          	ld	s11,120(sp)
   15158:	0e010113          	addi	sp,sp,224
   1515c:	00008067          	ret
   15160:	00090513          	mv	a0,s2
   15164:	ebdfe0ef          	jal	ra,14020 <eisnan.part.0>
   15168:	f60500e3          	beqz	a0,150c8 <ediv+0x70>
   1516c:	01490713          	addi	a4,s2,20
   15170:	00290913          	addi	s2,s2,2
   15174:	ffe95783          	lhu	a5,-2(s2)
   15178:	00240413          	addi	s0,s0,2
   1517c:	fef41f23          	sh	a5,-2(s0)
   15180:	fee918e3          	bne	s2,a4,15170 <ediv+0x118>
   15184:	fa1ff06f          	j	15124 <ediv+0xcc>
   15188:	08fa0863          	beq	s4,a5,15218 <ediv+0x1c0>
   1518c:	01010593          	addi	a1,sp,16
   15190:	00048513          	mv	a0,s1
   15194:	f3dfe0ef          	jal	ra,140d0 <emovi>
   15198:	00090513          	mv	a0,s2
   1519c:	03010593          	addi	a1,sp,48
   151a0:	f31fe0ef          	jal	ra,140d0 <emovi>
   151a4:	03215c83          	lhu	s9,50(sp)
   151a8:	01215903          	lhu	s2,18(sp)
   151ac:	0c0c9463          	bnez	s9,15274 <ediv+0x21c>
   151b0:	03410793          	addi	a5,sp,52
   151b4:	04810493          	addi	s1,sp,72
   151b8:	34f48a63          	beq	s1,a5,1550c <ediv+0x4b4>
   151bc:	00278793          	addi	a5,a5,2
   151c0:	ffe7d703          	lhu	a4,-2(a5)
   151c4:	fe070ae3          	beqz	a4,151b8 <ediv+0x160>
   151c8:	03010513          	addi	a0,sp,48
   151cc:	ad4ff0ef          	jal	ra,144a0 <enormlz>
   151d0:	40a007b3          	neg	a5,a0
   151d4:	00f13423          	sd	a5,8(sp)
   151d8:	01215603          	lhu	a2,18(sp)
   151dc:	0a00006f          	j	1527c <ediv+0x224>
   151e0:	0000d597          	auipc	a1,0xd
   151e4:	df058593          	addi	a1,a1,-528 # 21fd0 <ezero>
   151e8:	00090513          	mv	a0,s2
   151ec:	fd1fe0ef          	jal	ra,141bc <ecmp>
   151f0:	ee0516e3          	bnez	a0,150dc <ediv+0x84>
   151f4:	01040713          	addi	a4,s0,16
   151f8:	00040793          	mv	a5,s0
   151fc:	00278793          	addi	a5,a5,2
   15200:	fe079f23          	sh	zero,-2(a5)
   15204:	fee79ce3          	bne	a5,a4,151fc <ediv+0x1a4>
   15208:	7fffc7b7          	lui	a5,0x7fffc
   1520c:	00f42823          	sw	a5,16(s0)
   15210:	f15ff06f          	j	15124 <ediv+0xcc>
   15214:	f73a1ce3          	bne	s4,s3,1518c <ediv+0x134>
   15218:	00090513          	mv	a0,s2
   1521c:	8bcff0ef          	jal	ra,142d8 <eisinf.part.1>
   15220:	f60506e3          	beqz	a0,1518c <ediv+0x134>
   15224:	00048513          	mv	a0,s1
   15228:	e69fe0ef          	jal	ra,14090 <eisneg>
   1522c:	00050493          	mv	s1,a0
   15230:	00090513          	mv	a0,s2
   15234:	e5dfe0ef          	jal	ra,14090 <eisneg>
   15238:	40a48533          	sub	a0,s1,a0
   1523c:	00a03533          	snez	a0,a0
   15240:	00f51513          	slli	a0,a0,0xf
   15244:	00a41923          	sh	a0,18(s0)
   15248:	01240713          	addi	a4,s0,18
   1524c:	00040793          	mv	a5,s0
   15250:	00278793          	addi	a5,a5,2 # 7fffc002 <__BSS_END__+0x7ffd73e2>
   15254:	fe079f23          	sh	zero,-2(a5)
   15258:	fee79ce3          	bne	a5,a4,15250 <ediv+0x1f8>
   1525c:	01245783          	lhu	a5,18(s0)
   15260:	00008737          	lui	a4,0x8
   15264:	fff70713          	addi	a4,a4,-1 # 7fff <main-0x80b1>
   15268:	00e7e7b3          	or	a5,a5,a4
   1526c:	00f41923          	sh	a5,18(s0)
   15270:	eb5ff06f          	j	15124 <ediv+0xcc>
   15274:	01913423          	sd	s9,8(sp)
   15278:	00090613          	mv	a2,s2
   1527c:	01213023          	sd	s2,0(sp)
   15280:	01410793          	addi	a5,sp,20
   15284:	02810693          	addi	a3,sp,40
   15288:	02061263          	bnez	a2,152ac <ediv+0x254>
   1528c:	28f68a63          	beq	a3,a5,15520 <ediv+0x4c8>
   15290:	00278793          	addi	a5,a5,2
   15294:	ffe7d703          	lhu	a4,-2(a5)
   15298:	fe070ae3          	beqz	a4,1528c <ediv+0x234>
   1529c:	01010513          	addi	a0,sp,16
   152a0:	a00ff0ef          	jal	ra,144a0 <enormlz>
   152a4:	40a907b3          	sub	a5,s2,a0
   152a8:	00f13023          	sd	a5,0(sp)
   152ac:	03012703          	lw	a4,48(sp)
   152b0:	038c0d93          	addi	s11,s8,56
   152b4:	000d8793          	mv	a5,s11
   152b8:	02ec2a23          	sw	a4,52(s8)
   152bc:	04ec0993          	addi	s3,s8,78
   152c0:	00278793          	addi	a5,a5,2
   152c4:	fe079f23          	sh	zero,-2(a5)
   152c8:	fef99ce3          	bne	s3,a5,152c0 <ediv+0x268>
   152cc:	03010513          	addi	a0,sp,48
   152d0:	b95fe0ef          	jal	ra,13e64 <eshdn1>
   152d4:	01615d03          	lhu	s10,22(sp)
   152d8:	00010ab7          	lui	s5,0x10
   152dc:	04810493          	addi	s1,sp,72
   152e0:	010d1b13          	slli	s6,s10,0x10
   152e4:	41ab0b33          	sub	s6,s6,s10
   152e8:	03210b93          	addi	s7,sp,50
   152ec:	fffa8a93          	addi	s5,s5,-1 # ffff <main-0xb1>
   152f0:	06a10913          	addi	s2,sp,106
   152f4:	05210a13          	addi	s4,sp,82
   152f8:	03415503          	lhu	a0,52(sp)
   152fc:	03615783          	lhu	a5,54(sp)
   15300:	000a8c93          	mv	s9,s5
   15304:	01051513          	slli	a0,a0,0x10
   15308:	00f50533          	add	a0,a0,a5
   1530c:	00ab6a63          	bltu	s6,a0,15320 <ediv+0x2c8>
   15310:	000d0593          	mv	a1,s10
   15314:	0650c0ef          	jal	ra,21b78 <__udivdi3>
   15318:	03051c93          	slli	s9,a0,0x30
   1531c:	030cdc93          	srli	s9,s9,0x30
   15320:	05010613          	addi	a2,sp,80
   15324:	01010593          	addi	a1,sp,16
   15328:	000c8513          	mv	a0,s9
   1532c:	c15fe0ef          	jal	ra,13f40 <m16m>
   15330:	03410613          	addi	a2,sp,52
   15334:	05410793          	addi	a5,sp,84
   15338:	00278793          	addi	a5,a5,2
   1533c:	00260613          	addi	a2,a2,2
   15340:	ffe7d503          	lhu	a0,-2(a5)
   15344:	ffe65583          	lhu	a1,-2(a2)
   15348:	10b51863          	bne	a0,a1,15458 <ediv+0x400>
   1534c:	ff2796e3          	bne	a5,s2,15338 <ediv+0x2e0>
   15350:	00000513          	li	a0,0
   15354:	06810593          	addi	a1,sp,104
   15358:	00048613          	mv	a2,s1
   1535c:	00065783          	lhu	a5,0(a2)
   15360:	0005d803          	lhu	a6,0(a1)
   15364:	ffe60613          	addi	a2,a2,-2
   15368:	40a787b3          	sub	a5,a5,a0
   1536c:	410787b3          	sub	a5,a5,a6
   15370:	00f61123          	sh	a5,2(a2)
   15374:	0107d793          	srli	a5,a5,0x10
   15378:	ffe58593          	addi	a1,a1,-2
   1537c:	0017f513          	andi	a0,a5,1
   15380:	fd761ee3          	bne	a2,s7,1535c <ediv+0x304>
   15384:	019d9023          	sh	s9,0(s11)
   15388:	03410793          	addi	a5,sp,52
   1538c:	00278793          	addi	a5,a5,2
   15390:	0007d683          	lhu	a3,0(a5)
   15394:	fed79f23          	sh	a3,-2(a5)
   15398:	fe979ae3          	bne	a5,s1,1538c <ediv+0x334>
   1539c:	04011423          	sh	zero,72(sp)
   153a0:	002d8d93          	addi	s11,s11,2
   153a4:	f5b99ae3          	bne	s3,s11,152f8 <ediv+0x2a0>
   153a8:	00000593          	li	a1,0
   153ac:	03410793          	addi	a5,sp,52
   153b0:	04a10693          	addi	a3,sp,74
   153b4:	00278793          	addi	a5,a5,2
   153b8:	ffe7d703          	lhu	a4,-2(a5)
   153bc:	00e5e5b3          	or	a1,a1,a4
   153c0:	fed79ae3          	bne	a5,a3,153b4 <ediv+0x35c>
   153c4:	0005859b          	sext.w	a1,a1
   153c8:	00b035b3          	snez	a1,a1
   153cc:	034c0713          	addi	a4,s8,52
   153d0:	03010793          	addi	a5,sp,48
   153d4:	00075603          	lhu	a2,0(a4)
   153d8:	00278793          	addi	a5,a5,2
   153dc:	00270713          	addi	a4,a4,2
   153e0:	fec79f23          	sh	a2,-2(a5)
   153e4:	fef698e3          	bne	a3,a5,153d4 <ediv+0x37c>
   153e8:	00813783          	ld	a5,8(sp)
   153ec:	00013703          	ld	a4,0(sp)
   153f0:	000046b7          	lui	a3,0x4
   153f4:	fff68693          	addi	a3,a3,-1 # 3fff <main-0xc0b1>
   153f8:	40e78cb3          	sub	s9,a5,a4
   153fc:	03010513          	addi	a0,sp,48
   15400:	000c0793          	mv	a5,s8
   15404:	04000713          	li	a4,64
   15408:	00dc86b3          	add	a3,s9,a3
   1540c:	00000613          	li	a2,0
   15410:	a14ff0ef          	jal	ra,14624 <emdnorm>
   15414:	03015703          	lhu	a4,48(sp)
   15418:	01015783          	lhu	a5,16(sp)
   1541c:	00040593          	mv	a1,s0
   15420:	03010513          	addi	a0,sp,48
   15424:	40e787b3          	sub	a5,a5,a4
   15428:	00f037b3          	snez	a5,a5
   1542c:	40f007bb          	negw	a5,a5
   15430:	02f11823          	sh	a5,48(sp)
   15434:	f6cff0ef          	jal	ra,14ba0 <emovo.isra.6>
   15438:	cedff06f          	j	15124 <ediv+0xcc>
   1543c:	01448713          	addi	a4,s1,20
   15440:	00248493          	addi	s1,s1,2
   15444:	ffe4d783          	lhu	a5,-2(s1)
   15448:	00240413          	addi	s0,s0,2
   1544c:	fef41f23          	sh	a5,-2(s0)
   15450:	fee498e3          	bne	s1,a4,15440 <ediv+0x3e8>
   15454:	cd1ff06f          	j	15124 <ediv+0xcc>
   15458:	eea5fce3          	bgeu	a1,a0,15350 <ediv+0x2f8>
   1545c:	fffc879b          	addiw	a5,s9,-1
   15460:	03079893          	slli	a7,a5,0x30
   15464:	0308d893          	srli	a7,a7,0x30
   15468:	00000513          	li	a0,0
   1546c:	02810593          	addi	a1,sp,40
   15470:	06810613          	addi	a2,sp,104
   15474:	00065783          	lhu	a5,0(a2)
   15478:	0005d803          	lhu	a6,0(a1)
   1547c:	ffe60613          	addi	a2,a2,-2
   15480:	40a787b3          	sub	a5,a5,a0
   15484:	410787b3          	sub	a5,a5,a6
   15488:	00f61123          	sh	a5,2(a2)
   1548c:	0107d793          	srli	a5,a5,0x10
   15490:	ffe58593          	addi	a1,a1,-2
   15494:	0017f513          	andi	a0,a5,1
   15498:	fd461ee3          	bne	a2,s4,15474 <ediv+0x41c>
   1549c:	03410613          	addi	a2,sp,52
   154a0:	05410793          	addi	a5,sp,84
   154a4:	00278793          	addi	a5,a5,2
   154a8:	00260613          	addi	a2,a2,2
   154ac:	ffe7d503          	lhu	a0,-2(a5)
   154b0:	ffe65583          	lhu	a1,-2(a2)
   154b4:	00b51863          	bne	a0,a1,154c4 <ediv+0x46c>
   154b8:	ff2796e3          	bne	a5,s2,154a4 <ediv+0x44c>
   154bc:	00088c93          	mv	s9,a7
   154c0:	e91ff06f          	j	15350 <ediv+0x2f8>
   154c4:	fea5fce3          	bgeu	a1,a0,154bc <ediv+0x464>
   154c8:	ffec869b          	addiw	a3,s9,-2
   154cc:	03069c93          	slli	s9,a3,0x30
   154d0:	030cdc93          	srli	s9,s9,0x30
   154d4:	00000513          	li	a0,0
   154d8:	02810593          	addi	a1,sp,40
   154dc:	06810613          	addi	a2,sp,104
   154e0:	00065783          	lhu	a5,0(a2)
   154e4:	0005d803          	lhu	a6,0(a1)
   154e8:	ffe60613          	addi	a2,a2,-2
   154ec:	40a787b3          	sub	a5,a5,a0
   154f0:	410787b3          	sub	a5,a5,a6
   154f4:	00f61123          	sh	a5,2(a2)
   154f8:	0107d793          	srli	a5,a5,0x10
   154fc:	ffe58593          	addi	a1,a1,-2
   15500:	0017f513          	andi	a0,a5,1
