
add_float.o:     file format elf64-littleriscv


Disassembly of section .text:

00000000000100b0 <main>:
   100b0:	000227b7          	lui	a5,0x22
   100b4:	c3078793          	addi	a5,a5,-976 # 21c30 <__moddi3+0x3c>
   100b8:	0007bf03          	ld	t5,0(a5)
   100bc:	0087be83          	ld	t4,8(a5)
   100c0:	0107be03          	ld	t3,16(a5)
   100c4:	0187b303          	ld	t1,24(a5)
   100c8:	0207b883          	ld	a7,32(a5)
   100cc:	0287b803          	ld	a6,40(a5)
   100d0:	fb010113          	addi	sp,sp,-80
   100d4:	020f5513          	srli	a0,t5,0x20
   100d8:	020ed593          	srli	a1,t4,0x20
   100dc:	020e5613          	srli	a2,t3,0x20
   100e0:	02035693          	srli	a3,t1,0x20
   100e4:	0208d713          	srli	a4,a7,0x20
   100e8:	02085793          	srli	a5,a6,0x20
   100ec:	04113423          	sd	ra,72(sp)
   100f0:	04813023          	sd	s0,64(sp)
   100f4:	02913c23          	sd	s1,56(sp)
   100f8:	000f0f93          	mv	t6,t5
   100fc:	01e13023          	sd	t5,0(sp)
   10100:	01d13423          	sd	t4,8(sp)
   10104:	000e8f13          	mv	t5,t4
   10108:	01c13823          	sd	t3,16(sp)
   1010c:	000e0e93          	mv	t4,t3
   10110:	00613c23          	sd	t1,24(sp)
   10114:	00030e13          	mv	t3,t1
   10118:	f0050053          	fmv.w.x	ft0,a0
   1011c:	f00585d3          	fmv.w.x	fa1,a1
   10120:	f0060653          	fmv.w.x	fa2,a2
   10124:	f00686d3          	fmv.w.x	fa3,a3
   10128:	00088313          	mv	t1,a7
   1012c:	f0070753          	fmv.w.x	fa4,a4
   10130:	03113023          	sd	a7,32(sp)
   10134:	f0078553          	fmv.w.x	fa0,a5
   10138:	03013423          	sd	a6,40(sp)
   1013c:	c0002473          	rdcycle	s0
   10140:	f00007d3          	fmv.w.x	fa5,zero
   10144:	f00f80d3          	fmv.w.x	ft1,t6
   10148:	0017f7d3          	fadd.s	fa5,fa5,ft1
   1014c:	0007f7d3          	fadd.s	fa5,fa5,ft0
   10150:	f00f0053          	fmv.w.x	ft0,t5
   10154:	0007f7d3          	fadd.s	fa5,fa5,ft0
   10158:	00b7f7d3          	fadd.s	fa5,fa5,fa1
   1015c:	f00e85d3          	fmv.w.x	fa1,t4
   10160:	00b7f7d3          	fadd.s	fa5,fa5,fa1
   10164:	00c7f7d3          	fadd.s	fa5,fa5,fa2
   10168:	f00e0653          	fmv.w.x	fa2,t3
   1016c:	00c7f7d3          	fadd.s	fa5,fa5,fa2
   10170:	00d7f7d3          	fadd.s	fa5,fa5,fa3
   10174:	f00306d3          	fmv.w.x	fa3,t1
   10178:	00d7f7d3          	fadd.s	fa5,fa5,fa3
   1017c:	00e7f7d3          	fadd.s	fa5,fa5,fa4
   10180:	f0080753          	fmv.w.x	fa4,a6
   10184:	00e7f7d3          	fadd.s	fa5,fa5,fa4
   10188:	c00024f3          	rdcycle	s1
   1018c:	00a7f553          	fadd.s	fa0,fa5,fa0
   10190:	158000ef          	jal	ra,102e8 <__extendsfdf2>
   10194:	00050593          	mv	a1,a0
   10198:	00022537          	lui	a0,0x22
   1019c:	c6050513          	addi	a0,a0,-928 # 21c60 <__moddi3+0x6c>
   101a0:	4c4000ef          	jal	ra,10664 <printf>
   101a4:	00022537          	lui	a0,0x22
   101a8:	408485bb          	subw	a1,s1,s0
   101ac:	c8050513          	addi	a0,a0,-896 # 21c80 <__moddi3+0x8c>
   101b0:	4b4000ef          	jal	ra,10664 <printf>
   101b4:	04813083          	ld	ra,72(sp)
   101b8:	04013403          	ld	s0,64(sp)
   101bc:	03813483          	ld	s1,56(sp)
   101c0:	00000513          	li	a0,0
   101c4:	05010113          	addi	sp,sp,80
   101c8:	00008067          	ret

00000000000101cc <register_fini>:
   101cc:	ffff0797          	auipc	a5,0xffff0
   101d0:	e3478793          	addi	a5,a5,-460 # 0 <main-0x100b0>
   101d4:	00078863          	beqz	a5,101e4 <register_fini+0x18>
   101d8:	00000517          	auipc	a0,0x0
   101dc:	27c50513          	addi	a0,a0,636 # 10454 <__libc_fini_array>
   101e0:	22c0006f          	j	1040c <atexit>
   101e4:	00008067          	ret

00000000000101e8 <_start>:
   101e8:	00014197          	auipc	gp,0x14
   101ec:	23818193          	addi	gp,gp,568 # 24420 <__global_pointer$>
   101f0:	77018513          	addi	a0,gp,1904 # 24b90 <_edata>
   101f4:	00015617          	auipc	a2,0x15
   101f8:	a2c60613          	addi	a2,a2,-1492 # 24c20 <__BSS_END__>
   101fc:	40a60633          	sub	a2,a2,a0
   10200:	00000593          	li	a1,0
   10204:	340000ef          	jal	ra,10544 <memset>
   10208:	00000517          	auipc	a0,0x0
   1020c:	24c50513          	addi	a0,a0,588 # 10454 <__libc_fini_array>
   10210:	1fc000ef          	jal	ra,1040c <atexit>
   10214:	29c000ef          	jal	ra,104b0 <__libc_init_array>
   10218:	00012503          	lw	a0,0(sp)
   1021c:	00810593          	addi	a1,sp,8
   10220:	00000613          	li	a2,0
   10224:	e8dff0ef          	jal	ra,100b0 <main>
   10228:	1f80006f          	j	10420 <exit>

000000000001022c <__do_global_dtors_aux>:
   1022c:	7981c783          	lbu	a5,1944(gp) # 24bb8 <completed.5470>
   10230:	04079463          	bnez	a5,10278 <__do_global_dtors_aux+0x4c>
   10234:	ffff0797          	auipc	a5,0xffff0
   10238:	dcc78793          	addi	a5,a5,-564 # 0 <main-0x100b0>
   1023c:	02078863          	beqz	a5,1026c <__do_global_dtors_aux+0x40>
   10240:	ff010113          	addi	sp,sp,-16
   10244:	00013517          	auipc	a0,0x13
   10248:	7d850513          	addi	a0,a0,2008 # 23a1c <__FRAME_END__>
   1024c:	00113423          	sd	ra,8(sp)
   10250:	00000097          	auipc	ra,0x0
   10254:	000000e7          	jalr	zero # 0 <main-0x100b0>
   10258:	00813083          	ld	ra,8(sp)
   1025c:	00100793          	li	a5,1
   10260:	78f18c23          	sb	a5,1944(gp) # 24bb8 <completed.5470>
   10264:	01010113          	addi	sp,sp,16
   10268:	00008067          	ret
   1026c:	00100793          	li	a5,1
   10270:	78f18c23          	sb	a5,1944(gp) # 24bb8 <completed.5470>
   10274:	00008067          	ret
   10278:	00008067          	ret

000000000001027c <frame_dummy>:
   1027c:	ffff0797          	auipc	a5,0xffff0
   10280:	d8478793          	addi	a5,a5,-636 # 0 <main-0x100b0>
   10284:	00078c63          	beqz	a5,1029c <frame_dummy+0x20>
   10288:	7a018593          	addi	a1,gp,1952 # 24bc0 <object.5475>
   1028c:	00013517          	auipc	a0,0x13
   10290:	79050513          	addi	a0,a0,1936 # 23a1c <__FRAME_END__>
   10294:	00000317          	auipc	t1,0x0
   10298:	00000067          	jr	zero # 0 <main-0x100b0>
   1029c:	00008067          	ret

00000000000102a0 <read_cycles>:
   102a0:	c0002573          	rdcycle	a0
   102a4:	0005051b          	sext.w	a0,a0
   102a8:	00008067          	ret

00000000000102ac <calculateSum>:
   102ac:	02b05a63          	blez	a1,102e0 <calculateSum+0x34>
   102b0:	fff5879b          	addiw	a5,a1,-1
   102b4:	02079793          	slli	a5,a5,0x20
   102b8:	0207d793          	srli	a5,a5,0x20
   102bc:	f0000553          	fmv.w.x	fa0,zero
   102c0:	00279793          	slli	a5,a5,0x2
   102c4:	00450713          	addi	a4,a0,4
   102c8:	00e787b3          	add	a5,a5,a4
   102cc:	00052787          	flw	fa5,0(a0)
   102d0:	00450513          	addi	a0,a0,4
   102d4:	00f57553          	fadd.s	fa0,fa0,fa5
   102d8:	fea79ae3          	bne	a5,a0,102cc <calculateSum+0x20>
   102dc:	00008067          	ret
   102e0:	f0000553          	fmv.w.x	fa0,zero
   102e4:	00008067          	ret

00000000000102e8 <__extendsfdf2>:
   102e8:	fe010113          	addi	sp,sp,-32
   102ec:	00113c23          	sd	ra,24(sp)
   102f0:	00813823          	sd	s0,16(sp)
   102f4:	00913423          	sd	s1,8(sp)
   102f8:	01213023          	sd	s2,0(sp)
   102fc:	e0050553          	fmv.x.w	a0,fa0
   10300:	002027f3          	frrm	a5
   10304:	0175591b          	srliw	s2,a0,0x17
   10308:	02951793          	slli	a5,a0,0x29
   1030c:	0ff97913          	andi	s2,s2,255
   10310:	0297d793          	srli	a5,a5,0x29
   10314:	01f5549b          	srliw	s1,a0,0x1f
   10318:	00190513          	addi	a0,s2,1
   1031c:	02079413          	slli	s0,a5,0x20
   10320:	0fe57513          	andi	a0,a0,254
   10324:	02045413          	srli	s0,s0,0x20
   10328:	00050a63          	beqz	a0,1033c <__extendsfdf2+0x54>
   1032c:	38090513          	addi	a0,s2,896
   10330:	01d41413          	slli	s0,s0,0x1d
   10334:	00000793          	li	a5,0
   10338:	0540006f          	j	1038c <__extendsfdf2+0xa4>
   1033c:	02091463          	bnez	s2,10364 <__extendsfdf2+0x7c>
   10340:	00000793          	li	a5,0
   10344:	04040463          	beqz	s0,1038c <__extendsfdf2+0xa4>
   10348:	00040513          	mv	a0,s0
   1034c:	084000ef          	jal	ra,103d0 <__clzdi2>
   10350:	ff55079b          	addiw	a5,a0,-11
   10354:	00f41433          	sll	s0,s0,a5
   10358:	3a900793          	li	a5,937
   1035c:	40a7853b          	subw	a0,a5,a0
   10360:	fd5ff06f          	j	10334 <__extendsfdf2+0x4c>
   10364:	06040263          	beqz	s0,103c8 <__extendsfdf2+0xe0>
   10368:	00400737          	lui	a4,0x400
   1036c:	00e7f7b3          	and	a5,a5,a4
   10370:	00100513          	li	a0,1
   10374:	03351513          	slli	a0,a0,0x33
   10378:	0017b793          	seqz	a5,a5
   1037c:	01d41413          	slli	s0,s0,0x1d
   10380:	00a46433          	or	s0,s0,a0
   10384:	00479793          	slli	a5,a5,0x4
   10388:	7ff00513          	li	a0,2047
   1038c:	00c41413          	slli	s0,s0,0xc
   10390:	7ff57513          	andi	a0,a0,2047
   10394:	03451513          	slli	a0,a0,0x34
   10398:	00c45413          	srli	s0,s0,0xc
   1039c:	03f49493          	slli	s1,s1,0x3f
   103a0:	00a46433          	or	s0,s0,a0
   103a4:	00946533          	or	a0,s0,s1
   103a8:	00078463          	beqz	a5,103b0 <__extendsfdf2+0xc8>
   103ac:	0017a073          	csrs	fflags,a5
   103b0:	01813083          	ld	ra,24(sp)
   103b4:	01013403          	ld	s0,16(sp)
   103b8:	00813483          	ld	s1,8(sp)
   103bc:	00013903          	ld	s2,0(sp)
   103c0:	02010113          	addi	sp,sp,32
   103c4:	00008067          	ret
   103c8:	7ff00513          	li	a0,2047
   103cc:	f69ff06f          	j	10334 <__extendsfdf2+0x4c>

00000000000103d0 <__clzdi2>:
   103d0:	03800793          	li	a5,56
   103d4:	00f55733          	srl	a4,a0,a5
   103d8:	0ff77713          	andi	a4,a4,255
   103dc:	00071663          	bnez	a4,103e8 <__clzdi2+0x18>
   103e0:	ff878793          	addi	a5,a5,-8
   103e4:	fe0798e3          	bnez	a5,103d4 <__clzdi2+0x4>
   103e8:	04000713          	li	a4,64
   103ec:	40f70733          	sub	a4,a4,a5
   103f0:	00f557b3          	srl	a5,a0,a5
   103f4:	00012517          	auipc	a0,0x12
   103f8:	8bc50513          	addi	a0,a0,-1860 # 21cb0 <__clz_tab>
   103fc:	00f507b3          	add	a5,a0,a5
   10400:	0007c503          	lbu	a0,0(a5)
   10404:	40a7053b          	subw	a0,a4,a0
   10408:	00008067          	ret

000000000001040c <atexit>:
   1040c:	00050593          	mv	a1,a0
   10410:	00000693          	li	a3,0
   10414:	00000613          	li	a2,0
   10418:	00000513          	li	a0,0
   1041c:	3f50206f          	j	13010 <__register_exitproc>

0000000000010420 <exit>:
   10420:	ff010113          	addi	sp,sp,-16
   10424:	00000593          	li	a1,0
   10428:	00813023          	sd	s0,0(sp)
   1042c:	00113423          	sd	ra,8(sp)
   10430:	00050413          	mv	s0,a0
   10434:	489020ef          	jal	ra,130bc <__call_exitprocs>
   10438:	74818793          	addi	a5,gp,1864 # 24b68 <_global_impure_ptr>
   1043c:	0007b503          	ld	a0,0(a5)
   10440:	05853783          	ld	a5,88(a0)
   10444:	00078463          	beqz	a5,1044c <exit+0x2c>
   10448:	000780e7          	jalr	a5
   1044c:	00040513          	mv	a0,s0
   10450:	5850e0ef          	jal	ra,1f1d4 <_exit>

0000000000010454 <__libc_fini_array>:
   10454:	fe010113          	addi	sp,sp,-32
   10458:	00813823          	sd	s0,16(sp)
   1045c:	00013797          	auipc	a5,0x13
   10460:	5dc78793          	addi	a5,a5,1500 # 23a38 <__fini_array_end>
   10464:	00013417          	auipc	s0,0x13
   10468:	5cc40413          	addi	s0,s0,1484 # 23a30 <__init_array_end>
   1046c:	408787b3          	sub	a5,a5,s0
   10470:	00913423          	sd	s1,8(sp)
   10474:	00113c23          	sd	ra,24(sp)
   10478:	4037d493          	srai	s1,a5,0x3
   1047c:	02048063          	beqz	s1,1049c <__libc_fini_array+0x48>
   10480:	ff878793          	addi	a5,a5,-8
   10484:	00878433          	add	s0,a5,s0
   10488:	00043783          	ld	a5,0(s0)
   1048c:	fff48493          	addi	s1,s1,-1
   10490:	ff840413          	addi	s0,s0,-8
   10494:	000780e7          	jalr	a5
   10498:	fe0498e3          	bnez	s1,10488 <__libc_fini_array+0x34>
   1049c:	01813083          	ld	ra,24(sp)
   104a0:	01013403          	ld	s0,16(sp)
   104a4:	00813483          	ld	s1,8(sp)
   104a8:	02010113          	addi	sp,sp,32
   104ac:	00008067          	ret

00000000000104b0 <__libc_init_array>:
   104b0:	fe010113          	addi	sp,sp,-32
   104b4:	00813823          	sd	s0,16(sp)
   104b8:	01213023          	sd	s2,0(sp)
   104bc:	00013417          	auipc	s0,0x13
   104c0:	56440413          	addi	s0,s0,1380 # 23a20 <__init_array_start>
   104c4:	00013917          	auipc	s2,0x13
   104c8:	55c90913          	addi	s2,s2,1372 # 23a20 <__init_array_start>
   104cc:	40890933          	sub	s2,s2,s0
   104d0:	00113c23          	sd	ra,24(sp)
   104d4:	00913423          	sd	s1,8(sp)
   104d8:	40395913          	srai	s2,s2,0x3
   104dc:	00090e63          	beqz	s2,104f8 <__libc_init_array+0x48>
   104e0:	00000493          	li	s1,0
   104e4:	00043783          	ld	a5,0(s0)
   104e8:	00148493          	addi	s1,s1,1
   104ec:	00840413          	addi	s0,s0,8
   104f0:	000780e7          	jalr	a5
   104f4:	fe9918e3          	bne	s2,s1,104e4 <__libc_init_array+0x34>
   104f8:	00013417          	auipc	s0,0x13
   104fc:	52840413          	addi	s0,s0,1320 # 23a20 <__init_array_start>
   10500:	00013917          	auipc	s2,0x13
   10504:	53090913          	addi	s2,s2,1328 # 23a30 <__init_array_end>
   10508:	40890933          	sub	s2,s2,s0
   1050c:	40395913          	srai	s2,s2,0x3
   10510:	00090e63          	beqz	s2,1052c <__libc_init_array+0x7c>
   10514:	00000493          	li	s1,0
   10518:	00043783          	ld	a5,0(s0)
   1051c:	00148493          	addi	s1,s1,1
   10520:	00840413          	addi	s0,s0,8
   10524:	000780e7          	jalr	a5
   10528:	fe9918e3          	bne	s2,s1,10518 <__libc_init_array+0x68>
   1052c:	01813083          	ld	ra,24(sp)
   10530:	01013403          	ld	s0,16(sp)
   10534:	00813483          	ld	s1,8(sp)
   10538:	00013903          	ld	s2,0(sp)
   1053c:	02010113          	addi	sp,sp,32
   10540:	00008067          	ret

0000000000010544 <memset>:
   10544:	00f00313          	li	t1,15
   10548:	00050713          	mv	a4,a0
   1054c:	02c37a63          	bgeu	t1,a2,10580 <memset+0x3c>
   10550:	00f77793          	andi	a5,a4,15
   10554:	0a079063          	bnez	a5,105f4 <memset+0xb0>
   10558:	06059e63          	bnez	a1,105d4 <memset+0x90>
   1055c:	ff067693          	andi	a3,a2,-16
   10560:	00f67613          	andi	a2,a2,15
   10564:	00e686b3          	add	a3,a3,a4
   10568:	00b73023          	sd	a1,0(a4) # 400000 <__BSS_END__+0x3db3e0>
   1056c:	00b73423          	sd	a1,8(a4)
   10570:	01070713          	addi	a4,a4,16
   10574:	fed76ae3          	bltu	a4,a3,10568 <memset+0x24>
   10578:	00061463          	bnez	a2,10580 <memset+0x3c>
   1057c:	00008067          	ret
   10580:	40c306b3          	sub	a3,t1,a2
   10584:	00269693          	slli	a3,a3,0x2
   10588:	00000297          	auipc	t0,0x0
   1058c:	005686b3          	add	a3,a3,t0
   10590:	00c68067          	jr	12(a3)
   10594:	00b70723          	sb	a1,14(a4)
   10598:	00b706a3          	sb	a1,13(a4)
   1059c:	00b70623          	sb	a1,12(a4)
   105a0:	00b705a3          	sb	a1,11(a4)
   105a4:	00b70523          	sb	a1,10(a4)
   105a8:	00b704a3          	sb	a1,9(a4)
   105ac:	00b70423          	sb	a1,8(a4)
   105b0:	00b703a3          	sb	a1,7(a4)
   105b4:	00b70323          	sb	a1,6(a4)
   105b8:	00b702a3          	sb	a1,5(a4)
   105bc:	00b70223          	sb	a1,4(a4)
   105c0:	00b701a3          	sb	a1,3(a4)
   105c4:	00b70123          	sb	a1,2(a4)
   105c8:	00b700a3          	sb	a1,1(a4)
   105cc:	00b70023          	sb	a1,0(a4)
   105d0:	00008067          	ret
   105d4:	0ff5f593          	andi	a1,a1,255
   105d8:	00859693          	slli	a3,a1,0x8
   105dc:	00d5e5b3          	or	a1,a1,a3
   105e0:	01059693          	slli	a3,a1,0x10
   105e4:	00d5e5b3          	or	a1,a1,a3
   105e8:	02059693          	slli	a3,a1,0x20
   105ec:	00d5e5b3          	or	a1,a1,a3
   105f0:	f6dff06f          	j	1055c <memset+0x18>
   105f4:	00279693          	slli	a3,a5,0x2
   105f8:	00000297          	auipc	t0,0x0
   105fc:	005686b3          	add	a3,a3,t0
   10600:	00008293          	mv	t0,ra
   10604:	f98680e7          	jalr	-104(a3)
   10608:	00028093          	mv	ra,t0
   1060c:	ff078793          	addi	a5,a5,-16
   10610:	40f70733          	sub	a4,a4,a5
   10614:	00f60633          	add	a2,a2,a5
   10618:	f6c374e3          	bgeu	t1,a2,10580 <memset+0x3c>
   1061c:	f3dff06f          	j	10558 <memset+0x14>

0000000000010620 <_printf_r>:
   10620:	fb010113          	addi	sp,sp,-80
   10624:	02c13023          	sd	a2,32(sp)
   10628:	02d13423          	sd	a3,40(sp)
   1062c:	02f13c23          	sd	a5,56(sp)
   10630:	02e13823          	sd	a4,48(sp)
   10634:	05013023          	sd	a6,64(sp)
   10638:	05113423          	sd	a7,72(sp)
   1063c:	00058613          	mv	a2,a1
   10640:	01053583          	ld	a1,16(a0)
   10644:	02010793          	addi	a5,sp,32
   10648:	00078693          	mv	a3,a5
   1064c:	00113c23          	sd	ra,24(sp)
   10650:	00f13423          	sd	a5,8(sp)
   10654:	064000ef          	jal	ra,106b8 <_vfprintf_r>
   10658:	01813083          	ld	ra,24(sp)
   1065c:	05010113          	addi	sp,sp,80
   10660:	00008067          	ret

0000000000010664 <printf>:
   10664:	75818313          	addi	t1,gp,1880 # 24b78 <_impure_ptr>
   10668:	00033303          	ld	t1,0(t1) # 10294 <frame_dummy+0x18>
   1066c:	fa010113          	addi	sp,sp,-96
   10670:	02c13823          	sd	a2,48(sp)
   10674:	02d13c23          	sd	a3,56(sp)
   10678:	04f13423          	sd	a5,72(sp)
   1067c:	02b13423          	sd	a1,40(sp)
   10680:	04e13023          	sd	a4,64(sp)
   10684:	05013823          	sd	a6,80(sp)
   10688:	05113c23          	sd	a7,88(sp)
   1068c:	01033583          	ld	a1,16(t1)
   10690:	02810793          	addi	a5,sp,40
   10694:	00050613          	mv	a2,a0
   10698:	00078693          	mv	a3,a5
   1069c:	00030513          	mv	a0,t1
   106a0:	00113c23          	sd	ra,24(sp)
   106a4:	00f13423          	sd	a5,8(sp)
   106a8:	010000ef          	jal	ra,106b8 <_vfprintf_r>
   106ac:	01813083          	ld	ra,24(sp)
   106b0:	06010113          	addi	sp,sp,96
   106b4:	00008067          	ret

00000000000106b8 <_vfprintf_r>:
   106b8:	d8010113          	addi	sp,sp,-640
   106bc:	26113c23          	sd	ra,632(sp)
   106c0:	25613023          	sd	s6,576(sp)
   106c4:	23713c23          	sd	s7,568(sp)
   106c8:	23a13023          	sd	s10,544(sp)
   106cc:	00058b13          	mv	s6,a1
   106d0:	00060d13          	mv	s10,a2
   106d4:	00d13823          	sd	a3,16(sp)
   106d8:	26813823          	sd	s0,624(sp)
   106dc:	26913423          	sd	s1,616(sp)
   106e0:	27213023          	sd	s2,608(sp)
   106e4:	25313c23          	sd	s3,600(sp)
   106e8:	25413823          	sd	s4,592(sp)
   106ec:	25513423          	sd	s5,584(sp)
   106f0:	23813823          	sd	s8,560(sp)
   106f4:	23913423          	sd	s9,552(sp)
   106f8:	21b13c23          	sd	s11,536(sp)
   106fc:	00050b93          	mv	s7,a0
   10700:	31c060ef          	jal	ra,16a1c <_localeconv_r>
   10704:	00053783          	ld	a5,0(a0)
   10708:	00078513          	mv	a0,a5
   1070c:	08f13023          	sd	a5,128(sp)
   10710:	644080ef          	jal	ra,18d54 <strlen>
   10714:	06a13c23          	sd	a0,120(sp)
   10718:	10013023          	sd	zero,256(sp)
   1071c:	10013423          	sd	zero,264(sp)
   10720:	000b8663          	beqz	s7,1072c <_vfprintf_r+0x74>
   10724:	050ba783          	lw	a5,80(s7)
   10728:	540780e3          	beqz	a5,11468 <_vfprintf_r+0xdb0>
   1072c:	010b1683          	lh	a3,16(s6)
   10730:	03069793          	slli	a5,a3,0x30
   10734:	0307d793          	srli	a5,a5,0x30
   10738:	03279713          	slli	a4,a5,0x32
   1073c:	02074663          	bltz	a4,10768 <_vfprintf_r+0xb0>
   10740:	0acb2603          	lw	a2,172(s6)
   10744:	000027b7          	lui	a5,0x2
   10748:	00f6e7b3          	or	a5,a3,a5
   1074c:	ffffe6b7          	lui	a3,0xffffe
   10750:	fff68693          	addi	a3,a3,-1 # ffffffffffffdfff <__BSS_END__+0xfffffffffffd93df>
   10754:	00d676b3          	and	a3,a2,a3
   10758:	00fb1823          	sh	a5,16(s6)
   1075c:	03079793          	slli	a5,a5,0x30
   10760:	0adb2623          	sw	a3,172(s6)
   10764:	0307d793          	srli	a5,a5,0x30
   10768:	0087f693          	andi	a3,a5,8
   1076c:	12068c63          	beqz	a3,108a4 <_vfprintf_r+0x1ec>
   10770:	018b3683          	ld	a3,24(s6)
   10774:	12068863          	beqz	a3,108a4 <_vfprintf_r+0x1ec>
   10778:	01a7f793          	andi	a5,a5,26
   1077c:	00a00693          	li	a3,10
   10780:	14d78463          	beq	a5,a3,108c8 <_vfprintf_r+0x210>
   10784:	000d4783          	lbu	a5,0(s10)
   10788:	19010c13          	addi	s8,sp,400
   1078c:	11813823          	sd	s8,272(sp)
   10790:	12013023          	sd	zero,288(sp)
   10794:	10012c23          	sw	zero,280(sp)
   10798:	02013423          	sd	zero,40(sp)
   1079c:	02013823          	sd	zero,48(sp)
   107a0:	08013823          	sd	zero,144(sp)
   107a4:	06013823          	sd	zero,112(sp)
   107a8:	08013423          	sd	zero,136(sp)
   107ac:	08013c23          	sd	zero,152(sp)
   107b0:	00013423          	sd	zero,8(sp)
   107b4:	000c0313          	mv	t1,s8
   107b8:	01000d93          	li	s11,16
   107bc:	00011997          	auipc	s3,0x11
   107c0:	77498993          	addi	s3,s3,1908 # 21f30 <zeroes.4541>
   107c4:	1e0780e3          	beqz	a5,111a4 <_vfprintf_r+0xaec>
   107c8:	02500693          	li	a3,37
   107cc:	00d79463          	bne	a5,a3,107d4 <_vfprintf_r+0x11c>
   107d0:	6640106f          	j	11e34 <_vfprintf_r+0x177c>
   107d4:	000d0413          	mv	s0,s10
   107d8:	00c0006f          	j	107e4 <_vfprintf_r+0x12c>
   107dc:	10d78863          	beq	a5,a3,108ec <_vfprintf_r+0x234>
   107e0:	00048413          	mv	s0,s1
   107e4:	00144783          	lbu	a5,1(s0)
   107e8:	00140493          	addi	s1,s0,1
   107ec:	fe0798e3          	bnez	a5,107dc <_vfprintf_r+0x124>
   107f0:	41a4893b          	subw	s2,s1,s10
   107f4:	1a0908e3          	beqz	s2,111a4 <_vfprintf_r+0xaec>
   107f8:	12013683          	ld	a3,288(sp)
   107fc:	11812783          	lw	a5,280(sp)
   10800:	01a33023          	sd	s10,0(t1)
   10804:	012686b3          	add	a3,a3,s2
   10808:	0017879b          	addiw	a5,a5,1
   1080c:	01233423          	sd	s2,8(t1)
   10810:	12d13023          	sd	a3,288(sp)
   10814:	10f12c23          	sw	a5,280(sp)
   10818:	0007869b          	sext.w	a3,a5
   1081c:	00700793          	li	a5,7
   10820:	01030313          	addi	t1,t1,16
   10824:	0cd7ca63          	blt	a5,a3,108f8 <_vfprintf_r+0x240>
   10828:	00813703          	ld	a4,8(sp)
   1082c:	00144783          	lbu	a5,1(s0)
   10830:	00e9073b          	addw	a4,s2,a4
   10834:	00e13423          	sd	a4,8(sp)
   10838:	160786e3          	beqz	a5,111a4 <_vfprintf_r+0xaec>
   1083c:	00148913          	addi	s2,s1,1
   10840:	0014c483          	lbu	s1,1(s1)
   10844:	0c010fa3          	sb	zero,223(sp)
   10848:	fff00e93          	li	t4,-1
   1084c:	00000a13          	li	s4,0
   10850:	00000413          	li	s0,0
   10854:	00900a93          	li	s5,9
   10858:	02a00c93          	li	s9,42
   1085c:	00190913          	addi	s2,s2,1
   10860:	0004849b          	sext.w	s1,s1
   10864:	05a00613          	li	a2,90
   10868:	fe04879b          	addiw	a5,s1,-32
   1086c:	0007869b          	sext.w	a3,a5
   10870:	20d66263          	bltu	a2,a3,10a74 <_vfprintf_r+0x3bc>
   10874:	02079793          	slli	a5,a5,0x20
   10878:	00011717          	auipc	a4,0x11
   1087c:	53870713          	addi	a4,a4,1336 # 21db0 <__clz_tab+0x100>
   10880:	01e7d793          	srli	a5,a5,0x1e
   10884:	00e787b3          	add	a5,a5,a4
   10888:	0007a783          	lw	a5,0(a5) # 2000 <main-0xe0b0>
   1088c:	00e787b3          	add	a5,a5,a4
   10890:	00078067          	jr	a5
   10894:	01046413          	ori	s0,s0,16
   10898:	0004041b          	sext.w	s0,s0
   1089c:	00094483          	lbu	s1,0(s2)
   108a0:	fbdff06f          	j	1085c <_vfprintf_r+0x1a4>
   108a4:	000b0593          	mv	a1,s6
   108a8:	000b8513          	mv	a0,s7
   108ac:	5fc020ef          	jal	ra,12ea8 <__swsetup_r>
   108b0:	00050463          	beqz	a0,108b8 <_vfprintf_r+0x200>
   108b4:	1c80206f          	j	12a7c <_vfprintf_r+0x23c4>
   108b8:	010b5783          	lhu	a5,16(s6)
   108bc:	00a00693          	li	a3,10
   108c0:	01a7f793          	andi	a5,a5,26
   108c4:	ecd790e3          	bne	a5,a3,10784 <_vfprintf_r+0xcc>
   108c8:	012b1783          	lh	a5,18(s6)
   108cc:	ea07cce3          	bltz	a5,10784 <_vfprintf_r+0xcc>
   108d0:	01013683          	ld	a3,16(sp)
   108d4:	000d0613          	mv	a2,s10
   108d8:	000b0593          	mv	a1,s6
   108dc:	000b8513          	mv	a0,s7
   108e0:	508020ef          	jal	ra,12de8 <__sbprintf>
   108e4:	00a13423          	sd	a0,8(sp)
   108e8:	0640006f          	j	1094c <_vfprintf_r+0x294>
   108ec:	41a4893b          	subw	s2,s1,s10
   108f0:	f40906e3          	beqz	s2,1083c <_vfprintf_r+0x184>
   108f4:	f05ff06f          	j	107f8 <_vfprintf_r+0x140>
   108f8:	11010613          	addi	a2,sp,272
   108fc:	000b0593          	mv	a1,s6
   10900:	000b8513          	mv	a0,s7
   10904:	5d10a0ef          	jal	ra,1b6d4 <__sprint_r>
   10908:	02051a63          	bnez	a0,1093c <_vfprintf_r+0x284>
   1090c:	000c0313          	mv	t1,s8
   10910:	f19ff06f          	j	10828 <_vfprintf_r+0x170>
   10914:	11010613          	addi	a2,sp,272
   10918:	000b0593          	mv	a1,s6
   1091c:	000b8513          	mv	a0,s7
   10920:	5b50a0ef          	jal	ra,1b6d4 <__sprint_r>
   10924:	04050ce3          	beqz	a0,1117c <_vfprintf_r+0xac4>
   10928:	02013783          	ld	a5,32(sp)
   1092c:	00078863          	beqz	a5,1093c <_vfprintf_r+0x284>
   10930:	00078593          	mv	a1,a5
   10934:	000b8513          	mv	a0,s7
   10938:	02c030ef          	jal	ra,13964 <_free_r>
   1093c:	010b5783          	lhu	a5,16(s6)
   10940:	0407f793          	andi	a5,a5,64
   10944:	00078463          	beqz	a5,1094c <_vfprintf_r+0x294>
   10948:	1340206f          	j	12a7c <_vfprintf_r+0x23c4>
   1094c:	27813083          	ld	ra,632(sp)
   10950:	27013403          	ld	s0,624(sp)
   10954:	00813503          	ld	a0,8(sp)
   10958:	26813483          	ld	s1,616(sp)
   1095c:	26013903          	ld	s2,608(sp)
   10960:	25813983          	ld	s3,600(sp)
   10964:	25013a03          	ld	s4,592(sp)
   10968:	24813a83          	ld	s5,584(sp)
   1096c:	24013b03          	ld	s6,576(sp)
   10970:	23813b83          	ld	s7,568(sp)
   10974:	23013c03          	ld	s8,560(sp)
   10978:	22813c83          	ld	s9,552(sp)
   1097c:	22013d03          	ld	s10,544(sp)
   10980:	21813d83          	ld	s11,536(sp)
   10984:	28010113          	addi	sp,sp,640
   10988:	00008067          	ret
   1098c:	01013703          	ld	a4,16(sp)
   10990:	00011797          	auipc	a5,0x11
   10994:	60078793          	addi	a5,a5,1536 # 21f90 <zeroes.4541+0x60>
   10998:	02f13823          	sd	a5,48(sp)
   1099c:	02047793          	andi	a5,s0,32
   109a0:	00870693          	addi	a3,a4,8
   109a4:	10078463          	beqz	a5,10aac <_vfprintf_r+0x3f4>
   109a8:	00073a83          	ld	s5,0(a4)
   109ac:	00147713          	andi	a4,s0,1
   109b0:	00070e63          	beqz	a4,109cc <_vfprintf_r+0x314>
   109b4:	000a8c63          	beqz	s5,109cc <_vfprintf_r+0x314>
   109b8:	00246413          	ori	s0,s0,2
   109bc:	03000713          	li	a4,48
   109c0:	0ee10023          	sb	a4,224(sp)
   109c4:	0e9100a3          	sb	s1,225(sp)
   109c8:	0004041b          	sext.w	s0,s0
   109cc:	bff47813          	andi	a6,s0,-1025
   109d0:	0008081b          	sext.w	a6,a6
   109d4:	00d13823          	sd	a3,16(sp)
   109d8:	00200713          	li	a4,2
   109dc:	0c010fa3          	sb	zero,223(sp)
   109e0:	fff00693          	li	a3,-1
   109e4:	5ede8e63          	beq	t4,a3,10fe0 <_vfprintf_r+0x928>
   109e8:	f7f87413          	andi	s0,a6,-129
   109ec:	0004041b          	sext.w	s0,s0
   109f0:	660a9ce3          	bnez	s5,11868 <_vfprintf_r+0x11b0>
   109f4:	000e8463          	beqz	t4,109fc <_vfprintf_r+0x344>
   109f8:	0580106f          	j	11a50 <_vfprintf_r+0x1398>
   109fc:	52071a63          	bnez	a4,10f30 <_vfprintf_r+0x878>
   10a00:	00187c93          	andi	s9,a6,1
   10a04:	18c10d13          	addi	s10,sp,396
   10a08:	000c8463          	beqz	s9,10a10 <_vfprintf_r+0x358>
   10a0c:	2940106f          	j	11ca0 <_vfprintf_r+0x15e8>
   10a10:	000c8a9b          	sext.w	s5,s9
   10a14:	01dcd463          	bge	s9,t4,10a1c <_vfprintf_r+0x364>
   10a18:	000e8a9b          	sext.w	s5,t4
   10a1c:	0df14783          	lbu	a5,223(sp)
   10a20:	02013023          	sd	zero,32(sp)
   10a24:	04013c23          	sd	zero,88(sp)
   10a28:	06013423          	sd	zero,104(sp)
   10a2c:	06013023          	sd	zero,96(sp)
   10a30:	64078463          	beqz	a5,11078 <_vfprintf_r+0x9c0>
   10a34:	001a8a9b          	addiw	s5,s5,1
   10a38:	6400006f          	j	11078 <_vfprintf_r+0x9c0>
   10a3c:	00000a13          	li	s4,0
   10a40:	00190913          	addi	s2,s2,1
   10a44:	fff94683          	lbu	a3,-1(s2)
   10a48:	002a179b          	slliw	a5,s4,0x2
   10a4c:	01478a3b          	addw	s4,a5,s4
   10a50:	fd04849b          	addiw	s1,s1,-48
   10a54:	001a1a1b          	slliw	s4,s4,0x1
   10a58:	fd06879b          	addiw	a5,a3,-48
   10a5c:	01448a3b          	addw	s4,s1,s4
   10a60:	0006849b          	sext.w	s1,a3
   10a64:	fcfafee3          	bgeu	s5,a5,10a40 <_vfprintf_r+0x388>
   10a68:	fe04879b          	addiw	a5,s1,-32
   10a6c:	0007869b          	sext.w	a3,a5
   10a70:	e0d672e3          	bgeu	a2,a3,10874 <_vfprintf_r+0x1bc>
   10a74:	72048863          	beqz	s1,111a4 <_vfprintf_r+0xaec>
   10a78:	12910423          	sb	s1,296(sp)
   10a7c:	0c010fa3          	sb	zero,223(sp)
   10a80:	00100a93          	li	s5,1
   10a84:	00100c93          	li	s9,1
   10a88:	12810d13          	addi	s10,sp,296
   10a8c:	5d80006f          	j	11064 <_vfprintf_r+0x9ac>
   10a90:	01013703          	ld	a4,16(sp)
   10a94:	00011797          	auipc	a5,0x11
   10a98:	51478793          	addi	a5,a5,1300 # 21fa8 <zeroes.4541+0x78>
   10a9c:	02f13823          	sd	a5,48(sp)
   10aa0:	02047793          	andi	a5,s0,32
   10aa4:	00870693          	addi	a3,a4,8
   10aa8:	f00790e3          	bnez	a5,109a8 <_vfprintf_r+0x2f0>
   10aac:	01047793          	andi	a5,s0,16
   10ab0:	00078463          	beqz	a5,10ab8 <_vfprintf_r+0x400>
   10ab4:	23c0106f          	j	11cf0 <_vfprintf_r+0x1638>
   10ab8:	01013783          	ld	a5,16(sp)
   10abc:	04047713          	andi	a4,s0,64
   10ac0:	0007a783          	lw	a5,0(a5)
   10ac4:	00071463          	bnez	a4,10acc <_vfprintf_r+0x414>
   10ac8:	5cc0106f          	j	12094 <_vfprintf_r+0x19dc>
   10acc:	03079a93          	slli	s5,a5,0x30
   10ad0:	030ada93          	srli	s5,s5,0x30
   10ad4:	ed9ff06f          	j	109ac <_vfprintf_r+0x2f4>
   10ad8:	00094483          	lbu	s1,0(s2)
   10adc:	00446413          	ori	s0,s0,4
   10ae0:	0004041b          	sext.w	s0,s0
   10ae4:	d79ff06f          	j	1085c <_vfprintf_r+0x1a4>
   10ae8:	00094483          	lbu	s1,0(s2)
   10aec:	06800793          	li	a5,104
   10af0:	00f49463          	bne	s1,a5,10af8 <_vfprintf_r+0x440>
   10af4:	2700106f          	j	11d64 <_vfprintf_r+0x16ac>
   10af8:	04046413          	ori	s0,s0,64
   10afc:	0004041b          	sext.w	s0,s0
   10b00:	d5dff06f          	j	1085c <_vfprintf_r+0x1a4>
   10b04:	00847793          	andi	a5,s0,8
   10b08:	00078463          	beqz	a5,10b10 <_vfprintf_r+0x458>
   10b0c:	1b40106f          	j	11cc0 <_vfprintf_r+0x1608>
   10b10:	01013783          	ld	a5,16(sp)
   10b14:	02613023          	sd	t1,32(sp)
   10b18:	01d13c23          	sd	t4,24(sp)
   10b1c:	0007b503          	ld	a0,0(a5)
   10b20:	00878793          	addi	a5,a5,8
   10b24:	00f13823          	sd	a5,16(sp)
   10b28:	3cd100ef          	jal	ra,216f4 <__extenddftf2>
   10b2c:	02013303          	ld	t1,32(sp)
   10b30:	01813e83          	ld	t4,24(sp)
   10b34:	10a13023          	sd	a0,256(sp)
   10b38:	10b13423          	sd	a1,264(sp)
   10b3c:	10010513          	addi	a0,sp,256
   10b40:	02613023          	sd	t1,32(sp)
   10b44:	01d13c23          	sd	t4,24(sp)
   10b48:	679050ef          	jal	ra,169c0 <_ldcheck>
   10b4c:	0ea12423          	sw	a0,232(sp)
   10b50:	00200793          	li	a5,2
   10b54:	01813e83          	ld	t4,24(sp)
   10b58:	02013303          	ld	t1,32(sp)
   10b5c:	00f51463          	bne	a0,a5,10b64 <_vfprintf_r+0x4ac>
   10b60:	4840106f          	j	11fe4 <_vfprintf_r+0x192c>
   10b64:	00100793          	li	a5,1
   10b68:	00f51463          	bne	a0,a5,10b70 <_vfprintf_r+0x4b8>
   10b6c:	5940106f          	j	12100 <_vfprintf_r+0x1a48>
   10b70:	06100793          	li	a5,97
   10b74:	00f49463          	bne	s1,a5,10b7c <_vfprintf_r+0x4c4>
   10b78:	7b90106f          	j	12b30 <_vfprintf_r+0x2478>
   10b7c:	04100793          	li	a5,65
   10b80:	00f49463          	bne	s1,a5,10b88 <_vfprintf_r+0x4d0>
   10b84:	1210106f          	j	124a4 <_vfprintf_r+0x1dec>
   10b88:	fdf4f713          	andi	a4,s1,-33
   10b8c:	fff00793          	li	a5,-1
   10b90:	0ae13423          	sd	a4,168(sp)
   10b94:	00fe9463          	bne	t4,a5,10b9c <_vfprintf_r+0x4e4>
   10b98:	0380206f          	j	12bd0 <_vfprintf_r+0x2518>
   10b9c:	04700793          	li	a5,71
   10ba0:	00f71463          	bne	a4,a5,10ba8 <_vfprintf_r+0x4f0>
   10ba4:	01c0206f          	j	12bc0 <_vfprintf_r+0x2508>
   10ba8:	10813c83          	ld	s9,264(sp)
   10bac:	10046793          	ori	a5,s0,256
   10bb0:	0a813823          	sd	s0,176(sp)
   10bb4:	0007879b          	sext.w	a5,a5
   10bb8:	10013f03          	ld	t5,256(sp)
   10bbc:	000cd463          	bgez	s9,10bc4 <_vfprintf_r+0x50c>
   10bc0:	4b90106f          	j	12878 <_vfprintf_r+0x21c0>
   10bc4:	0c013423          	sd	zero,200(sp)
   10bc8:	00078413          	mv	s0,a5
   10bcc:	02013023          	sd	zero,32(sp)
   10bd0:	0a813703          	ld	a4,168(sp)
   10bd4:	04600793          	li	a5,70
   10bd8:	00f71463          	bne	a4,a5,10be0 <_vfprintf_r+0x528>
   10bdc:	3810106f          	j	1275c <_vfprintf_r+0x20a4>
   10be0:	04500793          	li	a5,69
   10be4:	02613c23          	sd	t1,56(sp)
   10be8:	00f71463          	bne	a4,a5,10bf0 <_vfprintf_r+0x538>
   10bec:	7810106f          	j	12b6c <_vfprintf_r+0x24b4>
   10bf0:	000e8713          	mv	a4,t4
   10bf4:	0e810793          	addi	a5,sp,232
   10bf8:	000f0593          	mv	a1,t5
   10bfc:	0f810893          	addi	a7,sp,248
   10c00:	0ec10813          	addi	a6,sp,236
   10c04:	00200693          	li	a3,2
   10c08:	000c8613          	mv	a2,s9
   10c0c:	000b8513          	mv	a0,s7
   10c10:	03d13423          	sd	t4,40(sp)
   10c14:	01e13c23          	sd	t5,24(sp)
   10c18:	291040ef          	jal	ra,156a8 <_ldtoa_r>
   10c1c:	0a813703          	ld	a4,168(sp)
   10c20:	04700793          	li	a5,71
   10c24:	00050d13          	mv	s10,a0
   10c28:	01813f03          	ld	t5,24(sp)
   10c2c:	02813e83          	ld	t4,40(sp)
   10c30:	03813303          	ld	t1,56(sp)
   10c34:	00f70463          	beq	a4,a5,10c3c <_vfprintf_r+0x584>
   10c38:	1700206f          	j	12da8 <_vfprintf_r+0x26f0>
   10c3c:	0b013783          	ld	a5,176(sp)
   10c40:	01d50ab3          	add	s5,a0,t4
   10c44:	0017f793          	andi	a5,a5,1
   10c48:	00078463          	beqz	a5,10c50 <_vfprintf_r+0x598>
   10c4c:	3690106f          	j	127b4 <_vfprintf_r+0x20fc>
   10c50:	0f813783          	ld	a5,248(sp)
   10c54:	0e812703          	lw	a4,232(sp)
   10c58:	41a787bb          	subw	a5,a5,s10
   10c5c:	02f13423          	sd	a5,40(sp)
   10c60:	06e13023          	sd	a4,96(sp)
   10c64:	0a813703          	ld	a4,168(sp)
   10c68:	04700793          	li	a5,71
   10c6c:	00f71463          	bne	a4,a5,10c74 <_vfprintf_r+0x5bc>
   10c70:	2cd0106f          	j	1273c <_vfprintf_r+0x2084>
   10c74:	0a813703          	ld	a4,168(sp)
   10c78:	04600793          	li	a5,70
   10c7c:	00f71463          	bne	a4,a5,10c84 <_vfprintf_r+0x5cc>
   10c80:	51d0106f          	j	1299c <_vfprintf_r+0x22e4>
   10c84:	06013783          	ld	a5,96(sp)
   10c88:	0a813703          	ld	a4,168(sp)
   10c8c:	04100693          	li	a3,65
   10c90:	fff78a9b          	addiw	s5,a5,-1
   10c94:	0f512423          	sw	s5,232(sp)
   10c98:	0ff4f793          	andi	a5,s1,255
   10c9c:	00000613          	li	a2,0
   10ca0:	00d71863          	bne	a4,a3,10cb0 <_vfprintf_r+0x5f8>
   10ca4:	00f7879b          	addiw	a5,a5,15
   10ca8:	0ff7f793          	andi	a5,a5,255
   10cac:	00100613          	li	a2,1
   10cb0:	0ef10823          	sb	a5,240(sp)
   10cb4:	02b00793          	li	a5,43
   10cb8:	000ada63          	bgez	s5,10ccc <_vfprintf_r+0x614>
   10cbc:	06013703          	ld	a4,96(sp)
   10cc0:	00100793          	li	a5,1
   10cc4:	40e78abb          	subw	s5,a5,a4
   10cc8:	02d00793          	li	a5,45
   10ccc:	0ef108a3          	sb	a5,241(sp)
   10cd0:	00900793          	li	a5,9
   10cd4:	0157c463          	blt	a5,s5,10cdc <_vfprintf_r+0x624>
   10cd8:	7710106f          	j	12c48 <_vfprintf_r+0x2590>
   10cdc:	0ff10413          	addi	s0,sp,255
   10ce0:	00040c93          	mv	s9,s0
   10ce4:	00c0006f          	j	10cf0 <_vfprintf_r+0x638>
   10ce8:	00060c93          	mv	s9,a2
   10cec:	00050a93          	mv	s5,a0
   10cf0:	00a00593          	li	a1,10
   10cf4:	000a8513          	mv	a0,s5
   10cf8:	00613c23          	sd	t1,24(sp)
   10cfc:	6f9100ef          	jal	ra,21bf4 <__moddi3>
   10d00:	0305051b          	addiw	a0,a0,48
   10d04:	feac8fa3          	sb	a0,-1(s9)
   10d08:	00a00593          	li	a1,10
   10d0c:	000a8513          	mv	a0,s5
   10d10:	661100ef          	jal	ra,21b70 <__divdi3>
   10d14:	06300793          	li	a5,99
   10d18:	fffc8613          	addi	a2,s9,-1
   10d1c:	0005051b          	sext.w	a0,a0
   10d20:	01813303          	ld	t1,24(sp)
   10d24:	fd57c2e3          	blt	a5,s5,10ce8 <_vfprintf_r+0x630>
   10d28:	0305079b          	addiw	a5,a0,48
   10d2c:	0ff7f793          	andi	a5,a5,255
   10d30:	ffec8693          	addi	a3,s9,-2
   10d34:	fef60fa3          	sb	a5,-1(a2)
   10d38:	0086e463          	bltu	a3,s0,10d40 <_vfprintf_r+0x688>
   10d3c:	0780206f          	j	12db4 <_vfprintf_r+0x26fc>
   10d40:	0f210613          	addi	a2,sp,242
   10d44:	0080006f          	j	10d4c <_vfprintf_r+0x694>
   10d48:	0006c783          	lbu	a5,0(a3)
   10d4c:	00160613          	addi	a2,a2,1
   10d50:	00168693          	addi	a3,a3,1
   10d54:	fef60fa3          	sb	a5,-1(a2)
   10d58:	fe8698e3          	bne	a3,s0,10d48 <_vfprintf_r+0x690>
   10d5c:	10110793          	addi	a5,sp,257
   10d60:	419787b3          	sub	a5,a5,s9
   10d64:	0f210713          	addi	a4,sp,242
   10d68:	00f707b3          	add	a5,a4,a5
   10d6c:	0f010693          	addi	a3,sp,240
   10d70:	40d787bb          	subw	a5,a5,a3
   10d74:	08f13823          	sd	a5,144(sp)
   10d78:	09013783          	ld	a5,144(sp)
   10d7c:	02813703          	ld	a4,40(sp)
   10d80:	00100693          	li	a3,1
   10d84:	00f70cbb          	addw	s9,a4,a5
   10d88:	000c8793          	mv	a5,s9
   10d8c:	00e6c463          	blt	a3,a4,10d94 <_vfprintf_r+0x6dc>
   10d90:	79d0106f          	j	12d2c <_vfprintf_r+0x2674>
   10d94:	07813703          	ld	a4,120(sp)
   10d98:	00e78cbb          	addw	s9,a5,a4
   10d9c:	0b013783          	ld	a5,176(sp)
   10da0:	fffcca93          	not	s5,s9
   10da4:	43fada93          	srai	s5,s5,0x3f
   10da8:	bff7f413          	andi	s0,a5,-1025
   10dac:	0004041b          	sext.w	s0,s0
   10db0:	015cfab3          	and	s5,s9,s5
   10db4:	10046413          	ori	s0,s0,256
   10db8:	000a8a9b          	sext.w	s5,s5
   10dbc:	04013c23          	sd	zero,88(sp)
   10dc0:	06013423          	sd	zero,104(sp)
   10dc4:	06013023          	sd	zero,96(sp)
   10dc8:	0c813783          	ld	a5,200(sp)
   10dcc:	00079463          	bnez	a5,10dd4 <_vfprintf_r+0x71c>
   10dd0:	2950106f          	j	12864 <_vfprintf_r+0x21ac>
   10dd4:	02d00793          	li	a5,45
   10dd8:	0cf10fa3          	sb	a5,223(sp)
   10ddc:	00000e93          	li	t4,0
   10de0:	001a8a9b          	addiw	s5,s5,1
   10de4:	2940006f          	j	11078 <_vfprintf_r+0x9c0>
   10de8:	01013783          	ld	a5,16(sp)
   10dec:	01046813          	ori	a6,s0,16
   10df0:	0008081b          	sext.w	a6,a6
   10df4:	00878693          	addi	a3,a5,8
   10df8:	01013783          	ld	a5,16(sp)
   10dfc:	00100713          	li	a4,1
   10e00:	0007ba83          	ld	s5,0(a5)
   10e04:	00d13823          	sd	a3,16(sp)
   10e08:	bd5ff06f          	j	109dc <_vfprintf_r+0x324>
   10e0c:	01013783          	ld	a5,16(sp)
   10e10:	0c010fa3          	sb	zero,223(sp)
   10e14:	0007bd03          	ld	s10,0(a5)
   10e18:	00878693          	addi	a3,a5,8
   10e1c:	780d0ae3          	beqz	s10,11db0 <_vfprintf_r+0x16f8>
   10e20:	fff00793          	li	a5,-1
   10e24:	00fe9463          	bne	t4,a5,10e2c <_vfprintf_r+0x774>
   10e28:	2200106f          	j	12048 <_vfprintf_r+0x1990>
   10e2c:	000e8613          	mv	a2,t4
   10e30:	00000593          	li	a1,0
   10e34:	000d0513          	mv	a0,s10
   10e38:	02d13c23          	sd	a3,56(sp)
   10e3c:	00613c23          	sd	t1,24(sp)
   10e40:	01d13823          	sd	t4,16(sp)
   10e44:	73c060ef          	jal	ra,17580 <memchr>
   10e48:	02a13023          	sd	a0,32(sp)
   10e4c:	01013e83          	ld	t4,16(sp)
   10e50:	01813303          	ld	t1,24(sp)
   10e54:	03813683          	ld	a3,56(sp)
   10e58:	00051463          	bnez	a0,10e60 <_vfprintf_r+0x7a8>
   10e5c:	2e50106f          	j	12940 <_vfprintf_r+0x2288>
   10e60:	02013783          	ld	a5,32(sp)
   10e64:	00d13823          	sd	a3,16(sp)
   10e68:	02013023          	sd	zero,32(sp)
   10e6c:	41a78cbb          	subw	s9,a5,s10
   10e70:	fffcca93          	not	s5,s9
   10e74:	0df14783          	lbu	a5,223(sp)
   10e78:	43fada93          	srai	s5,s5,0x3f
   10e7c:	015cfab3          	and	s5,s9,s5
   10e80:	04013c23          	sd	zero,88(sp)
   10e84:	06013423          	sd	zero,104(sp)
   10e88:	06013023          	sd	zero,96(sp)
   10e8c:	000a8a9b          	sext.w	s5,s5
   10e90:	00000e93          	li	t4,0
   10e94:	ba0790e3          	bnez	a5,10a34 <_vfprintf_r+0x37c>
   10e98:	1e00006f          	j	11078 <_vfprintf_r+0x9c0>
   10e9c:	01013703          	ld	a4,16(sp)
   10ea0:	01046813          	ori	a6,s0,16
   10ea4:	0008041b          	sext.w	s0,a6
   10ea8:	00870713          	addi	a4,a4,8
   10eac:	01013783          	ld	a5,16(sp)
   10eb0:	0007ba83          	ld	s5,0(a5)
   10eb4:	00e13823          	sd	a4,16(sp)
   10eb8:	bff47813          	andi	a6,s0,-1025
   10ebc:	0008081b          	sext.w	a6,a6
   10ec0:	00000713          	li	a4,0
   10ec4:	b19ff06f          	j	109dc <_vfprintf_r+0x324>
   10ec8:	00846413          	ori	s0,s0,8
   10ecc:	0004041b          	sext.w	s0,s0
   10ed0:	00094483          	lbu	s1,0(s2)
   10ed4:	989ff06f          	j	1085c <_vfprintf_r+0x1a4>
   10ed8:	01013703          	ld	a4,16(sp)
   10edc:	02047793          	andi	a5,s0,32
   10ee0:	00870693          	addi	a3,a4,8
   10ee4:	600792e3          	bnez	a5,11ce8 <_vfprintf_r+0x1630>
   10ee8:	01047793          	andi	a5,s0,16
   10eec:	5e079ee3          	bnez	a5,11ce8 <_vfprintf_r+0x1630>
   10ef0:	04047793          	andi	a5,s0,64
   10ef4:	00079463          	bnez	a5,10efc <_vfprintf_r+0x844>
   10ef8:	1e80106f          	j	120e0 <_vfprintf_r+0x1a28>
   10efc:	01013783          	ld	a5,16(sp)
   10f00:	00040813          	mv	a6,s0
   10f04:	00d13823          	sd	a3,16(sp)
   10f08:	00079a83          	lh	s5,0(a5)
   10f0c:	000a8713          	mv	a4,s5
   10f10:	0a074c63          	bltz	a4,10fc8 <_vfprintf_r+0x910>
   10f14:	fff00713          	li	a4,-1
   10f18:	56ee8063          	beq	t4,a4,11478 <_vfprintf_r+0xdc0>
   10f1c:	f7f87813          	andi	a6,a6,-129
   10f20:	0008041b          	sext.w	s0,a6
   10f24:	540a9863          	bnez	s5,11474 <_vfprintf_r+0xdbc>
   10f28:	000e8463          	beqz	t4,10f30 <_vfprintf_r+0x878>
   10f2c:	7f40106f          	j	12720 <_vfprintf_r+0x2068>
   10f30:	00000e93          	li	t4,0
   10f34:	00000c93          	li	s9,0
   10f38:	18c10d13          	addi	s10,sp,396
   10f3c:	ad5ff06f          	j	10a10 <_vfprintf_r+0x358>
   10f40:	02b00793          	li	a5,43
   10f44:	0cf10fa3          	sb	a5,223(sp)
   10f48:	00094483          	lbu	s1,0(s2)
   10f4c:	911ff06f          	j	1085c <_vfprintf_r+0x1a4>
   10f50:	08046413          	ori	s0,s0,128
   10f54:	0004041b          	sext.w	s0,s0
   10f58:	00094483          	lbu	s1,0(s2)
   10f5c:	901ff06f          	j	1085c <_vfprintf_r+0x1a4>
   10f60:	00094483          	lbu	s1,0(s2)
   10f64:	00190793          	addi	a5,s2,1
   10f68:	01949463          	bne	s1,s9,10f70 <_vfprintf_r+0x8b8>
   10f6c:	6190106f          	j	12d84 <_vfprintf_r+0x26cc>
   10f70:	fd04869b          	addiw	a3,s1,-48
   10f74:	00078913          	mv	s2,a5
   10f78:	00000e93          	li	t4,0
   10f7c:	8edae6e3          	bltu	s5,a3,10868 <_vfprintf_r+0x1b0>
   10f80:	00190913          	addi	s2,s2,1
   10f84:	002e979b          	slliw	a5,t4,0x2
   10f88:	fff94483          	lbu	s1,-1(s2)
   10f8c:	01d78ebb          	addw	t4,a5,t4
   10f90:	001e9e9b          	slliw	t4,t4,0x1
   10f94:	00de8ebb          	addw	t4,t4,a3
   10f98:	fd04869b          	addiw	a3,s1,-48
   10f9c:	fedaf2e3          	bgeu	s5,a3,10f80 <_vfprintf_r+0x8c8>
   10fa0:	8c9ff06f          	j	10868 <_vfprintf_r+0x1b0>
   10fa4:	01013783          	ld	a5,16(sp)
   10fa8:	01046813          	ori	a6,s0,16
   10fac:	0008081b          	sext.w	a6,a6
   10fb0:	00878693          	addi	a3,a5,8
   10fb4:	01013783          	ld	a5,16(sp)
   10fb8:	0007b703          	ld	a4,0(a5)
   10fbc:	00d13823          	sd	a3,16(sp)
   10fc0:	00070a93          	mv	s5,a4
   10fc4:	f40758e3          	bgez	a4,10f14 <_vfprintf_r+0x85c>
   10fc8:	02d00713          	li	a4,45
   10fcc:	0ce10fa3          	sb	a4,223(sp)
   10fd0:	fff00693          	li	a3,-1
   10fd4:	41500ab3          	neg	s5,s5
   10fd8:	00100713          	li	a4,1
   10fdc:	a0de96e3          	bne	t4,a3,109e8 <_vfprintf_r+0x330>
   10fe0:	00100693          	li	a3,1
   10fe4:	48d70a63          	beq	a4,a3,11478 <_vfprintf_r+0xdc0>
   10fe8:	00200693          	li	a3,2
   10fec:	26d70ce3          	beq	a4,a3,11a64 <_vfprintf_r+0x13ac>
   10ff0:	18c10c93          	addi	s9,sp,396
   10ff4:	000c8613          	mv	a2,s9
   10ff8:	0080006f          	j	11000 <_vfprintf_r+0x948>
   10ffc:	000d0613          	mv	a2,s10
   11000:	007af693          	andi	a3,s5,7
   11004:	03068693          	addi	a3,a3,48
   11008:	fed60fa3          	sb	a3,-1(a2)
   1100c:	003ada93          	srli	s5,s5,0x3
   11010:	fff60d13          	addi	s10,a2,-1
   11014:	fe0a94e3          	bnez	s5,10ffc <_vfprintf_r+0x944>
   11018:	00187793          	andi	a5,a6,1
   1101c:	48078663          	beqz	a5,114a8 <_vfprintf_r+0xdf0>
   11020:	03000793          	li	a5,48
   11024:	48f68263          	beq	a3,a5,114a8 <_vfprintf_r+0xdf0>
   11028:	ffe60613          	addi	a2,a2,-2
   1102c:	fefd0fa3          	sb	a5,-1(s10)
   11030:	40cc8cbb          	subw	s9,s9,a2
   11034:	00080413          	mv	s0,a6
   11038:	00060d13          	mv	s10,a2
   1103c:	9d5ff06f          	j	10a10 <_vfprintf_r+0x358>
   11040:	01013703          	ld	a4,16(sp)
   11044:	0c010fa3          	sb	zero,223(sp)
   11048:	00100a93          	li	s5,1
   1104c:	00072783          	lw	a5,0(a4)
   11050:	00870713          	addi	a4,a4,8
   11054:	00e13823          	sd	a4,16(sp)
   11058:	12f10423          	sb	a5,296(sp)
   1105c:	00100c93          	li	s9,1
   11060:	12810d13          	addi	s10,sp,296
   11064:	02013023          	sd	zero,32(sp)
   11068:	00000e93          	li	t4,0
   1106c:	04013c23          	sd	zero,88(sp)
   11070:	06013423          	sd	zero,104(sp)
   11074:	06013023          	sd	zero,96(sp)
   11078:	00247f13          	andi	t5,s0,2
   1107c:	000f0f1b          	sext.w	t5,t5
   11080:	000f0463          	beqz	t5,11088 <_vfprintf_r+0x9d0>
   11084:	002a8a9b          	addiw	s5,s5,2
   11088:	08447f93          	andi	t6,s0,132
   1108c:	12013783          	ld	a5,288(sp)
   11090:	000f9663          	bnez	t6,1109c <_vfprintf_r+0x9e4>
   11094:	415a083b          	subw	a6,s4,s5
   11098:	7d004c63          	bgtz	a6,11870 <_vfprintf_r+0x11b8>
   1109c:	0df14683          	lbu	a3,223(sp)
   110a0:	02068c63          	beqz	a3,110d8 <_vfprintf_r+0xa20>
   110a4:	11812683          	lw	a3,280(sp)
   110a8:	0df10613          	addi	a2,sp,223
   110ac:	00c33023          	sd	a2,0(t1)
   110b0:	0016869b          	addiw	a3,a3,1
   110b4:	00100613          	li	a2,1
   110b8:	00178793          	addi	a5,a5,1
   110bc:	00c33423          	sd	a2,8(t1)
   110c0:	10d12c23          	sw	a3,280(sp)
   110c4:	0006861b          	sext.w	a2,a3
   110c8:	12f13023          	sd	a5,288(sp)
   110cc:	00700693          	li	a3,7
   110d0:	01030313          	addi	t1,t1,16
   110d4:	0ec6c663          	blt	a3,a2,111c0 <_vfprintf_r+0xb08>
   110d8:	020f0c63          	beqz	t5,11110 <_vfprintf_r+0xa58>
   110dc:	11812683          	lw	a3,280(sp)
   110e0:	0e010613          	addi	a2,sp,224
   110e4:	00c33023          	sd	a2,0(t1)
   110e8:	0016869b          	addiw	a3,a3,1
   110ec:	00200613          	li	a2,2
   110f0:	00278793          	addi	a5,a5,2
   110f4:	00c33423          	sd	a2,8(t1)
   110f8:	10d12c23          	sw	a3,280(sp)
   110fc:	0006861b          	sext.w	a2,a3
   11100:	12f13023          	sd	a5,288(sp)
   11104:	00700693          	li	a3,7
   11108:	01030313          	addi	t1,t1,16
   1110c:	04c6cee3          	blt	a3,a2,11968 <_vfprintf_r+0x12b0>
   11110:	08000693          	li	a3,128
   11114:	4cdf8263          	beq	t6,a3,115d8 <_vfprintf_r+0xf20>
   11118:	419e8ebb          	subw	t4,t4,s9
   1111c:	59d04263          	bgtz	t4,116a0 <_vfprintf_r+0xfe8>
   11120:	10047693          	andi	a3,s0,256
   11124:	38069863          	bnez	a3,114b4 <_vfprintf_r+0xdfc>
   11128:	11812703          	lw	a4,280(sp)
   1112c:	019787b3          	add	a5,a5,s9
   11130:	01a33023          	sd	s10,0(t1)
   11134:	0017069b          	addiw	a3,a4,1
   11138:	01933423          	sd	s9,8(t1)
   1113c:	12f13023          	sd	a5,288(sp)
   11140:	10d12c23          	sw	a3,280(sp)
   11144:	00700713          	li	a4,7
   11148:	12d74863          	blt	a4,a3,11278 <_vfprintf_r+0xbc0>
   1114c:	01030313          	addi	t1,t1,16
   11150:	00447413          	andi	s0,s0,4
   11154:	00040663          	beqz	s0,11160 <_vfprintf_r+0xaa8>
   11158:	415a043b          	subw	s0,s4,s5
   1115c:	048040e3          	bgtz	s0,1199c <_vfprintf_r+0x12e4>
   11160:	000a0713          	mv	a4,s4
   11164:	015a5463          	bge	s4,s5,1116c <_vfprintf_r+0xab4>
   11168:	000a8713          	mv	a4,s5
   1116c:	00813683          	ld	a3,8(sp)
   11170:	00d7073b          	addw	a4,a4,a3
   11174:	00e13423          	sd	a4,8(sp)
   11178:	f8079e63          	bnez	a5,10914 <_vfprintf_r+0x25c>
   1117c:	02013783          	ld	a5,32(sp)
   11180:	10012c23          	sw	zero,280(sp)
   11184:	00078863          	beqz	a5,11194 <_vfprintf_r+0xadc>
   11188:	02013583          	ld	a1,32(sp)
   1118c:	000b8513          	mv	a0,s7
   11190:	7d4020ef          	jal	ra,13964 <_free_r>
   11194:	000c0313          	mv	t1,s8
   11198:	00090d13          	mv	s10,s2
   1119c:	000d4783          	lbu	a5,0(s10)
   111a0:	e2079463          	bnez	a5,107c8 <_vfprintf_r+0x110>
   111a4:	12013783          	ld	a5,288(sp)
   111a8:	f8078a63          	beqz	a5,1093c <_vfprintf_r+0x284>
   111ac:	11010613          	addi	a2,sp,272
   111b0:	000b0593          	mv	a1,s6
   111b4:	000b8513          	mv	a0,s7
   111b8:	51c0a0ef          	jal	ra,1b6d4 <__sprint_r>
   111bc:	f80ff06f          	j	1093c <_vfprintf_r+0x284>
   111c0:	11010613          	addi	a2,sp,272
   111c4:	000b0593          	mv	a1,s6
   111c8:	000b8513          	mv	a0,s7
   111cc:	05d13023          	sd	t4,64(sp)
   111d0:	03f13c23          	sd	t6,56(sp)
   111d4:	01e13c23          	sd	t5,24(sp)
   111d8:	4fc0a0ef          	jal	ra,1b6d4 <__sprint_r>
   111dc:	f4051663          	bnez	a0,10928 <_vfprintf_r+0x270>
   111e0:	12013783          	ld	a5,288(sp)
   111e4:	000c0313          	mv	t1,s8
   111e8:	04013e83          	ld	t4,64(sp)
   111ec:	03813f83          	ld	t6,56(sp)
   111f0:	01813f03          	ld	t5,24(sp)
   111f4:	ee5ff06f          	j	110d8 <_vfprintf_r+0xa20>
   111f8:	11812603          	lw	a2,280(sp)
   111fc:	07813703          	ld	a4,120(sp)
   11200:	08013683          	ld	a3,128(sp)
   11204:	01030313          	addi	t1,t1,16
   11208:	00f707b3          	add	a5,a4,a5
   1120c:	fed33823          	sd	a3,-16(t1)
   11210:	0016069b          	addiw	a3,a2,1
   11214:	fee33c23          	sd	a4,-8(t1)
   11218:	12f13023          	sd	a5,288(sp)
   1121c:	10d12c23          	sw	a3,280(sp)
   11220:	00700613          	li	a2,7
   11224:	02d65463          	bge	a2,a3,1124c <_vfprintf_r+0xb94>
   11228:	11010613          	addi	a2,sp,272
   1122c:	000b0593          	mv	a1,s6
   11230:	000b8513          	mv	a0,s7
   11234:	4a00a0ef          	jal	ra,1b6d4 <__sprint_r>
   11238:	ee051863          	bnez	a0,10928 <_vfprintf_r+0x270>
   1123c:	0e812583          	lw	a1,232(sp)
   11240:	12013783          	ld	a5,288(sp)
   11244:	11812683          	lw	a3,280(sp)
   11248:	000c0313          	mv	t1,s8
   1124c:	0005d463          	bgez	a1,11254 <_vfprintf_r+0xb9c>
   11250:	7c80106f          	j	12a18 <_vfprintf_r+0x2360>
   11254:	02813703          	ld	a4,40(sp)
   11258:	0016861b          	addiw	a2,a3,1
   1125c:	01a33023          	sd	s10,0(t1)
   11260:	00f707b3          	add	a5,a4,a5
   11264:	00e33423          	sd	a4,8(t1)
   11268:	12f13023          	sd	a5,288(sp)
   1126c:	10c12c23          	sw	a2,280(sp)
   11270:	00700713          	li	a4,7
   11274:	ecc75ce3          	bge	a4,a2,1114c <_vfprintf_r+0xa94>
   11278:	11010613          	addi	a2,sp,272
   1127c:	000b0593          	mv	a1,s6
   11280:	000b8513          	mv	a0,s7
   11284:	4500a0ef          	jal	ra,1b6d4 <__sprint_r>
   11288:	ea051063          	bnez	a0,10928 <_vfprintf_r+0x270>
   1128c:	12013783          	ld	a5,288(sp)
   11290:	000c0313          	mv	t1,s8
   11294:	ebdff06f          	j	11150 <_vfprintf_r+0xa98>
   11298:	01013783          	ld	a5,16(sp)
   1129c:	00094483          	lbu	s1,0(s2)
   112a0:	0007aa03          	lw	s4,0(a5)
   112a4:	00878793          	addi	a5,a5,8
   112a8:	00f13823          	sd	a5,16(sp)
   112ac:	da0a5863          	bgez	s4,1085c <_vfprintf_r+0x1a4>
   112b0:	41400a3b          	negw	s4,s4
   112b4:	829ff06f          	j	10adc <_vfprintf_r+0x424>
   112b8:	000b8513          	mv	a0,s7
   112bc:	02613023          	sd	t1,32(sp)
   112c0:	01d13c23          	sd	t4,24(sp)
   112c4:	758050ef          	jal	ra,16a1c <_localeconv_r>
   112c8:	00853783          	ld	a5,8(a0)
   112cc:	00078513          	mv	a0,a5
   112d0:	08f13c23          	sd	a5,152(sp)
   112d4:	281070ef          	jal	ra,18d54 <strlen>
   112d8:	00050493          	mv	s1,a0
   112dc:	08a13423          	sd	a0,136(sp)
   112e0:	000b8513          	mv	a0,s7
   112e4:	738050ef          	jal	ra,16a1c <_localeconv_r>
   112e8:	01053703          	ld	a4,16(a0)
   112ec:	00048793          	mv	a5,s1
   112f0:	01813e83          	ld	t4,24(sp)
   112f4:	06e13823          	sd	a4,112(sp)
   112f8:	02013303          	ld	t1,32(sp)
   112fc:	00094483          	lbu	s1,0(s2)
   11300:	d4078e63          	beqz	a5,1085c <_vfprintf_r+0x1a4>
   11304:	d4070c63          	beqz	a4,1085c <_vfprintf_r+0x1a4>
   11308:	00074783          	lbu	a5,0(a4)
   1130c:	d4078863          	beqz	a5,1085c <_vfprintf_r+0x1a4>
   11310:	40046413          	ori	s0,s0,1024
   11314:	0004041b          	sext.w	s0,s0
   11318:	d44ff06f          	j	1085c <_vfprintf_r+0x1a4>
   1131c:	00146413          	ori	s0,s0,1
   11320:	0004041b          	sext.w	s0,s0
   11324:	00094483          	lbu	s1,0(s2)
   11328:	d34ff06f          	j	1085c <_vfprintf_r+0x1a4>
   1132c:	0df14783          	lbu	a5,223(sp)
   11330:	00094483          	lbu	s1,0(s2)
   11334:	d2079463          	bnez	a5,1085c <_vfprintf_r+0x1a4>
   11338:	02000793          	li	a5,32
   1133c:	0cf10fa3          	sb	a5,223(sp)
   11340:	d1cff06f          	j	1085c <_vfprintf_r+0x1a4>
   11344:	01013703          	ld	a4,16(sp)
   11348:	02047793          	andi	a5,s0,32
   1134c:	00870693          	addi	a3,a4,8
   11350:	1a0796e3          	bnez	a5,11cfc <_vfprintf_r+0x1644>
   11354:	01047793          	andi	a5,s0,16
   11358:	1a0792e3          	bnez	a5,11cfc <_vfprintf_r+0x1644>
   1135c:	01013783          	ld	a5,16(sp)
   11360:	04047713          	andi	a4,s0,64
   11364:	0007a783          	lw	a5,0(a5)
   11368:	540704e3          	beqz	a4,120b0 <_vfprintf_r+0x19f8>
   1136c:	03079a93          	slli	s5,a5,0x30
   11370:	030ada93          	srli	s5,s5,0x30
   11374:	00d13823          	sd	a3,16(sp)
   11378:	00040813          	mv	a6,s0
   1137c:	00100713          	li	a4,1
   11380:	e5cff06f          	j	109dc <_vfprintf_r+0x324>
   11384:	02046413          	ori	s0,s0,32
   11388:	0004041b          	sext.w	s0,s0
   1138c:	00094483          	lbu	s1,0(s2)
   11390:	cccff06f          	j	1085c <_vfprintf_r+0x1a4>
   11394:	01013783          	ld	a5,16(sp)
   11398:	ffff8737          	lui	a4,0xffff8
   1139c:	83074713          	xori	a4,a4,-2000
   113a0:	0007ba83          	ld	s5,0(a5)
   113a4:	00878793          	addi	a5,a5,8
   113a8:	00246813          	ori	a6,s0,2
   113ac:	00f13823          	sd	a5,16(sp)
   113b0:	00011797          	auipc	a5,0x11
   113b4:	be078793          	addi	a5,a5,-1056 # 21f90 <zeroes.4541+0x60>
   113b8:	0ee11023          	sh	a4,224(sp)
   113bc:	0008081b          	sext.w	a6,a6
   113c0:	02f13823          	sd	a5,48(sp)
   113c4:	00200713          	li	a4,2
   113c8:	07800493          	li	s1,120
   113cc:	e10ff06f          	j	109dc <_vfprintf_r+0x324>
   113d0:	01013703          	ld	a4,16(sp)
   113d4:	02047793          	andi	a5,s0,32
   113d8:	00870713          	addi	a4,a4,8 # ffffffffffff8008 <__BSS_END__+0xfffffffffffd33e8>
   113dc:	ac0798e3          	bnez	a5,10eac <_vfprintf_r+0x7f4>
   113e0:	01047793          	andi	a5,s0,16
   113e4:	ac0794e3          	bnez	a5,10eac <_vfprintf_r+0x7f4>
   113e8:	01013783          	ld	a5,16(sp)
   113ec:	04047693          	andi	a3,s0,64
   113f0:	0007a783          	lw	a5,0(a5)
   113f4:	4c068ce3          	beqz	a3,120cc <_vfprintf_r+0x1a14>
   113f8:	03079a93          	slli	s5,a5,0x30
   113fc:	030ada93          	srli	s5,s5,0x30
   11400:	00e13823          	sd	a4,16(sp)
   11404:	ab5ff06f          	j	10eb8 <_vfprintf_r+0x800>
   11408:	01013683          	ld	a3,16(sp)
   1140c:	02047793          	andi	a5,s0,32
   11410:	0006b703          	ld	a4,0(a3)
   11414:	00868693          	addi	a3,a3,8
   11418:	00d13823          	sd	a3,16(sp)
   1141c:	08079ae3          	bnez	a5,11cb0 <_vfprintf_r+0x15f8>
   11420:	01047793          	andi	a5,s0,16
   11424:	080796e3          	bnez	a5,11cb0 <_vfprintf_r+0x15f8>
   11428:	04047793          	andi	a5,s0,64
   1142c:	00078463          	beqz	a5,11434 <_vfprintf_r+0xd7c>
   11430:	0340106f          	j	12464 <_vfprintf_r+0x1dac>
   11434:	20047413          	andi	s0,s0,512
   11438:	00813783          	ld	a5,8(sp)
   1143c:	00041463          	bnez	s0,11444 <_vfprintf_r+0xd8c>
   11440:	7740106f          	j	12bb4 <_vfprintf_r+0x24fc>
   11444:	00f70023          	sb	a5,0(a4)
   11448:	00090d13          	mv	s10,s2
   1144c:	d51ff06f          	j	1119c <_vfprintf_r+0xae4>
   11450:	00094483          	lbu	s1,0(s2)
   11454:	06c00793          	li	a5,108
   11458:	14f482e3          	beq	s1,a5,11d9c <_vfprintf_r+0x16e4>
   1145c:	01046413          	ori	s0,s0,16
   11460:	0004041b          	sext.w	s0,s0
   11464:	bf8ff06f          	j	1085c <_vfprintf_r+0x1a4>
   11468:	000b8513          	mv	a0,s7
   1146c:	378020ef          	jal	ra,137e4 <__sinit>
   11470:	abcff06f          	j	1072c <_vfprintf_r+0x74>
   11474:	00040813          	mv	a6,s0
   11478:	00900713          	li	a4,9
   1147c:	2b5768e3          	bltu	a4,s5,11f2c <_vfprintf_r+0x1874>
   11480:	030a879b          	addiw	a5,s5,48
   11484:	18f105a3          	sb	a5,395(sp)
   11488:	00080413          	mv	s0,a6
   1148c:	00100c93          	li	s9,1
   11490:	18b10d13          	addi	s10,sp,395
   11494:	d7cff06f          	j	10a10 <_vfprintf_r+0x358>
   11498:	0ff00793          	li	a5,255
   1149c:	2ef688e3          	beq	a3,a5,11f8c <_vfprintf_r+0x18d4>
   114a0:	00900793          	li	a5,9
   114a4:	7357e0e3          	bltu	a5,s5,123c4 <_vfprintf_r+0x1d0c>
   114a8:	41ac8cbb          	subw	s9,s9,s10
   114ac:	00080413          	mv	s0,a6
   114b0:	d60ff06f          	j	10a10 <_vfprintf_r+0x358>
   114b4:	06500693          	li	a3,101
   114b8:	2896dc63          	bge	a3,s1,11750 <_vfprintf_r+0x1098>
   114bc:	10013503          	ld	a0,256(sp)
   114c0:	10813583          	ld	a1,264(sp)
   114c4:	00000613          	li	a2,0
   114c8:	00000693          	li	a3,0
   114cc:	02f13c23          	sd	a5,56(sp)
   114d0:	00613c23          	sd	t1,24(sp)
   114d4:	28d0e0ef          	jal	ra,1ff60 <__eqtf2>
   114d8:	01813303          	ld	t1,24(sp)
   114dc:	03813783          	ld	a5,56(sp)
   114e0:	5a051c63          	bnez	a0,11a98 <_vfprintf_r+0x13e0>
   114e4:	11812703          	lw	a4,280(sp)
   114e8:	00011697          	auipc	a3,0x11
   114ec:	ae068693          	addi	a3,a3,-1312 # 21fc8 <zeroes.4541+0x98>
   114f0:	00178793          	addi	a5,a5,1
   114f4:	0017071b          	addiw	a4,a4,1
   114f8:	00d33023          	sd	a3,0(t1)
   114fc:	00100693          	li	a3,1
   11500:	00d33423          	sd	a3,8(t1)
   11504:	12f13023          	sd	a5,288(sp)
   11508:	0007069b          	sext.w	a3,a4
   1150c:	10e12c23          	sw	a4,280(sp)
   11510:	00700793          	li	a5,7
   11514:	01030313          	addi	t1,t1,16
   11518:	1ed7cae3          	blt	a5,a3,11f0c <_vfprintf_r+0x1854>
   1151c:	0e812783          	lw	a5,232(sp)
   11520:	02813703          	ld	a4,40(sp)
   11524:	00e7ca63          	blt	a5,a4,11538 <_vfprintf_r+0xe80>
   11528:	00147793          	andi	a5,s0,1
   1152c:	00079663          	bnez	a5,11538 <_vfprintf_r+0xe80>
   11530:	12013783          	ld	a5,288(sp)
   11534:	c1dff06f          	j	11150 <_vfprintf_r+0xa98>
   11538:	08013783          	ld	a5,128(sp)
   1153c:	07813683          	ld	a3,120(sp)
   11540:	11812703          	lw	a4,280(sp)
   11544:	00f33023          	sd	a5,0(t1)
   11548:	12013783          	ld	a5,288(sp)
   1154c:	0017071b          	addiw	a4,a4,1
   11550:	00d33423          	sd	a3,8(t1)
   11554:	00f687b3          	add	a5,a3,a5
   11558:	10e12c23          	sw	a4,280(sp)
   1155c:	0007069b          	sext.w	a3,a4
   11560:	12f13023          	sd	a5,288(sp)
   11564:	00700713          	li	a4,7
   11568:	01030313          	addi	t1,t1,16
   1156c:	00d746e3          	blt	a4,a3,11d78 <_vfprintf_r+0x16c0>
   11570:	02813703          	ld	a4,40(sp)
   11574:	fff7049b          	addiw	s1,a4,-1
   11578:	bc905ce3          	blez	s1,11150 <_vfprintf_r+0xa98>
   1157c:	11812703          	lw	a4,280(sp)
   11580:	249dd0e3          	bge	s11,s1,11fc0 <_vfprintf_r+0x1908>
   11584:	00700c93          	li	s9,7
   11588:	00c0006f          	j	11594 <_vfprintf_r+0xedc>
   1158c:	ff04849b          	addiw	s1,s1,-16
   11590:	229dd8e3          	bge	s11,s1,11fc0 <_vfprintf_r+0x1908>
   11594:	0017071b          	addiw	a4,a4,1
   11598:	01078793          	addi	a5,a5,16
   1159c:	01333023          	sd	s3,0(t1)
   115a0:	01b33423          	sd	s11,8(t1)
   115a4:	12f13023          	sd	a5,288(sp)
   115a8:	10e12c23          	sw	a4,280(sp)
   115ac:	01030313          	addi	t1,t1,16
   115b0:	fcecdee3          	bge	s9,a4,1158c <_vfprintf_r+0xed4>
   115b4:	11010613          	addi	a2,sp,272
   115b8:	000b0593          	mv	a1,s6
   115bc:	000b8513          	mv	a0,s7
   115c0:	1140a0ef          	jal	ra,1b6d4 <__sprint_r>
   115c4:	b6051263          	bnez	a0,10928 <_vfprintf_r+0x270>
   115c8:	12013783          	ld	a5,288(sp)
   115cc:	11812703          	lw	a4,280(sp)
   115d0:	000c0313          	mv	t1,s8
   115d4:	fb9ff06f          	j	1158c <_vfprintf_r+0xed4>
   115d8:	415a083b          	subw	a6,s4,s5
   115dc:	b3005ee3          	blez	a6,11118 <_vfprintf_r+0xa60>
   115e0:	11812683          	lw	a3,280(sp)
   115e4:	070dd863          	bge	s11,a6,11654 <_vfprintf_r+0xf9c>
   115e8:	00700893          	li	a7,7
   115ec:	00c0006f          	j	115f8 <_vfprintf_r+0xf40>
   115f0:	ff08081b          	addiw	a6,a6,-16
   115f4:	070dd063          	bge	s11,a6,11654 <_vfprintf_r+0xf9c>
   115f8:	0016869b          	addiw	a3,a3,1
   115fc:	01078793          	addi	a5,a5,16
   11600:	01333023          	sd	s3,0(t1)
   11604:	01b33423          	sd	s11,8(t1)
   11608:	12f13023          	sd	a5,288(sp)
   1160c:	10d12c23          	sw	a3,280(sp)
   11610:	01030313          	addi	t1,t1,16
   11614:	fcd8dee3          	bge	a7,a3,115f0 <_vfprintf_r+0xf38>
   11618:	11010613          	addi	a2,sp,272
   1161c:	000b0593          	mv	a1,s6
   11620:	000b8513          	mv	a0,s7
   11624:	03013c23          	sd	a6,56(sp)
   11628:	01d13c23          	sd	t4,24(sp)
   1162c:	0a80a0ef          	jal	ra,1b6d4 <__sprint_r>
   11630:	ae051c63          	bnez	a0,10928 <_vfprintf_r+0x270>
   11634:	03813803          	ld	a6,56(sp)
   11638:	12013783          	ld	a5,288(sp)
   1163c:	11812683          	lw	a3,280(sp)
   11640:	ff08081b          	addiw	a6,a6,-16
   11644:	000c0313          	mv	t1,s8
   11648:	00700893          	li	a7,7
   1164c:	01813e83          	ld	t4,24(sp)
   11650:	fb0dc4e3          	blt	s11,a6,115f8 <_vfprintf_r+0xf40>
   11654:	0016861b          	addiw	a2,a3,1
   11658:	010787b3          	add	a5,a5,a6
   1165c:	01333023          	sd	s3,0(t1)
   11660:	01033423          	sd	a6,8(t1)
   11664:	12f13023          	sd	a5,288(sp)
   11668:	10c12c23          	sw	a2,280(sp)
   1166c:	00700693          	li	a3,7
   11670:	01030313          	addi	t1,t1,16
   11674:	aac6d2e3          	bge	a3,a2,11118 <_vfprintf_r+0xa60>
   11678:	11010613          	addi	a2,sp,272
   1167c:	000b0593          	mv	a1,s6
   11680:	000b8513          	mv	a0,s7
   11684:	01d13c23          	sd	t4,24(sp)
   11688:	04c0a0ef          	jal	ra,1b6d4 <__sprint_r>
   1168c:	a8051e63          	bnez	a0,10928 <_vfprintf_r+0x270>
   11690:	12013783          	ld	a5,288(sp)
   11694:	000c0313          	mv	t1,s8
   11698:	01813e83          	ld	t4,24(sp)
   1169c:	a7dff06f          	j	11118 <_vfprintf_r+0xa60>
   116a0:	11812683          	lw	a3,280(sp)
   116a4:	07ddd463          	bge	s11,t4,1170c <_vfprintf_r+0x1054>
   116a8:	00700813          	li	a6,7
   116ac:	00c0006f          	j	116b8 <_vfprintf_r+0x1000>
   116b0:	ff0e8e9b          	addiw	t4,t4,-16
   116b4:	05dddc63          	bge	s11,t4,1170c <_vfprintf_r+0x1054>
   116b8:	0016869b          	addiw	a3,a3,1
   116bc:	01078793          	addi	a5,a5,16
   116c0:	01333023          	sd	s3,0(t1)
   116c4:	01b33423          	sd	s11,8(t1)
   116c8:	12f13023          	sd	a5,288(sp)
   116cc:	10d12c23          	sw	a3,280(sp)
   116d0:	01030313          	addi	t1,t1,16
   116d4:	fcd85ee3          	bge	a6,a3,116b0 <_vfprintf_r+0xff8>
   116d8:	11010613          	addi	a2,sp,272
   116dc:	000b0593          	mv	a1,s6
   116e0:	000b8513          	mv	a0,s7
   116e4:	01d13c23          	sd	t4,24(sp)
   116e8:	7ed090ef          	jal	ra,1b6d4 <__sprint_r>
   116ec:	a2051e63          	bnez	a0,10928 <_vfprintf_r+0x270>
   116f0:	01813e83          	ld	t4,24(sp)
   116f4:	12013783          	ld	a5,288(sp)
   116f8:	11812683          	lw	a3,280(sp)
   116fc:	ff0e8e9b          	addiw	t4,t4,-16
   11700:	000c0313          	mv	t1,s8
   11704:	00700813          	li	a6,7
   11708:	fbddc8e3          	blt	s11,t4,116b8 <_vfprintf_r+0x1000>
   1170c:	0016861b          	addiw	a2,a3,1
   11710:	01d787b3          	add	a5,a5,t4
   11714:	01333023          	sd	s3,0(t1)
   11718:	01d33423          	sd	t4,8(t1)
   1171c:	12f13023          	sd	a5,288(sp)
   11720:	10c12c23          	sw	a2,280(sp)
   11724:	00700693          	li	a3,7
   11728:	01030313          	addi	t1,t1,16
   1172c:	9ec6dae3          	bge	a3,a2,11120 <_vfprintf_r+0xa68>
   11730:	11010613          	addi	a2,sp,272
   11734:	000b0593          	mv	a1,s6
   11738:	000b8513          	mv	a0,s7
   1173c:	799090ef          	jal	ra,1b6d4 <__sprint_r>
   11740:	9e051463          	bnez	a0,10928 <_vfprintf_r+0x270>
   11744:	12013783          	ld	a5,288(sp)
   11748:	000c0313          	mv	t1,s8
   1174c:	9d5ff06f          	j	11120 <_vfprintf_r+0xa68>
   11750:	11812e83          	lw	t4,280(sp)
   11754:	02813703          	ld	a4,40(sp)
   11758:	00178c93          	addi	s9,a5,1
   1175c:	00100613          	li	a2,1
   11760:	001e879b          	addiw	a5,t4,1
   11764:	01a33023          	sd	s10,0(t1)
   11768:	00078693          	mv	a3,a5
   1176c:	01030493          	addi	s1,t1,16
   11770:	48e65c63          	bge	a2,a4,11c08 <_vfprintf_r+0x1550>
   11774:	00100613          	li	a2,1
   11778:	10d12c23          	sw	a3,280(sp)
   1177c:	00c33423          	sd	a2,8(t1)
   11780:	13913023          	sd	s9,288(sp)
   11784:	00700693          	li	a3,7
   11788:	6af6ca63          	blt	a3,a5,11e3c <_vfprintf_r+0x1784>
   1178c:	0017869b          	addiw	a3,a5,1
   11790:	07813783          	ld	a5,120(sp)
   11794:	08013703          	ld	a4,128(sp)
   11798:	10d12c23          	sw	a3,280(sp)
   1179c:	00fc8cb3          	add	s9,s9,a5
   117a0:	00f4b423          	sd	a5,8(s1)
   117a4:	00e4b023          	sd	a4,0(s1)
   117a8:	0006879b          	sext.w	a5,a3
   117ac:	13913023          	sd	s9,288(sp)
   117b0:	00700693          	li	a3,7
   117b4:	01048493          	addi	s1,s1,16
   117b8:	6af6c663          	blt	a3,a5,11e64 <_vfprintf_r+0x17ac>
   117bc:	0017889b          	addiw	a7,a5,1
   117c0:	04f13823          	sd	a5,80(sp)
   117c4:	02813783          	ld	a5,40(sp)
   117c8:	10013503          	ld	a0,256(sp)
   117cc:	10813583          	ld	a1,264(sp)
   117d0:	00088e9b          	sext.w	t4,a7
   117d4:	01048313          	addi	t1,s1,16
   117d8:	fff7881b          	addiw	a6,a5,-1
   117dc:	00000613          	li	a2,0
   117e0:	00000693          	li	a3,0
   117e4:	05113423          	sd	a7,72(sp)
   117e8:	05d13023          	sd	t4,64(sp)
   117ec:	02613c23          	sd	t1,56(sp)
   117f0:	01013c23          	sd	a6,24(sp)
   117f4:	76c0e0ef          	jal	ra,1ff60 <__eqtf2>
   117f8:	01813803          	ld	a6,24(sp)
   117fc:	03813303          	ld	t1,56(sp)
   11800:	04013e83          	ld	t4,64(sp)
   11804:	04813883          	ld	a7,72(sp)
   11808:	42050463          	beqz	a0,11c30 <_vfprintf_r+0x1578>
   1180c:	001d0713          	addi	a4,s10,1
   11810:	010c8cb3          	add	s9,s9,a6
   11814:	00e4b023          	sd	a4,0(s1)
   11818:	0104b423          	sd	a6,8(s1)
   1181c:	13913023          	sd	s9,288(sp)
   11820:	11112c23          	sw	a7,280(sp)
   11824:	00700713          	li	a4,7
   11828:	51d74663          	blt	a4,t4,11d34 <_vfprintf_r+0x167c>
   1182c:	05013783          	ld	a5,80(sp)
   11830:	02048713          	addi	a4,s1,32
   11834:	00030493          	mv	s1,t1
   11838:	00278e9b          	addiw	t4,a5,2
   1183c:	00070313          	mv	t1,a4
   11840:	09013683          	ld	a3,144(sp)
   11844:	0f010713          	addi	a4,sp,240
   11848:	00e4b023          	sd	a4,0(s1)
   1184c:	00dc87b3          	add	a5,s9,a3
   11850:	00d4b423          	sd	a3,8(s1)
   11854:	12f13023          	sd	a5,288(sp)
   11858:	11d12c23          	sw	t4,280(sp)
   1185c:	00700713          	li	a4,7
   11860:	8fd758e3          	bge	a4,t4,11150 <_vfprintf_r+0xa98>
   11864:	a15ff06f          	j	11278 <_vfprintf_r+0xbc0>
   11868:	00040813          	mv	a6,s0
   1186c:	f74ff06f          	j	10fe0 <_vfprintf_r+0x928>
   11870:	11812683          	lw	a3,280(sp)
   11874:	00010897          	auipc	a7,0x10
   11878:	6ac88893          	addi	a7,a7,1708 # 21f20 <blanks.4540>
   1187c:	00700293          	li	t0,7
   11880:	010dc863          	blt	s11,a6,11890 <_vfprintf_r+0x11d8>
   11884:	0840006f          	j	11908 <_vfprintf_r+0x1250>
   11888:	ff08081b          	addiw	a6,a6,-16
   1188c:	070dde63          	bge	s11,a6,11908 <_vfprintf_r+0x1250>
   11890:	0016869b          	addiw	a3,a3,1
   11894:	01078793          	addi	a5,a5,16
   11898:	01133023          	sd	a7,0(t1)
   1189c:	01b33423          	sd	s11,8(t1)
   118a0:	12f13023          	sd	a5,288(sp)
   118a4:	10d12c23          	sw	a3,280(sp)
   118a8:	01030313          	addi	t1,t1,16
   118ac:	fcd2dee3          	bge	t0,a3,11888 <_vfprintf_r+0x11d0>
   118b0:	11010613          	addi	a2,sp,272
   118b4:	000b0593          	mv	a1,s6
   118b8:	000b8513          	mv	a0,s7
   118bc:	05113823          	sd	a7,80(sp)
   118c0:	05013423          	sd	a6,72(sp)
   118c4:	05d13023          	sd	t4,64(sp)
   118c8:	03f13c23          	sd	t6,56(sp)
   118cc:	01e13c23          	sd	t5,24(sp)
   118d0:	605090ef          	jal	ra,1b6d4 <__sprint_r>
   118d4:	00050463          	beqz	a0,118dc <_vfprintf_r+0x1224>
   118d8:	850ff06f          	j	10928 <_vfprintf_r+0x270>
   118dc:	04813803          	ld	a6,72(sp)
   118e0:	12013783          	ld	a5,288(sp)
   118e4:	11812683          	lw	a3,280(sp)
   118e8:	ff08081b          	addiw	a6,a6,-16
   118ec:	000c0313          	mv	t1,s8
   118f0:	05013883          	ld	a7,80(sp)
   118f4:	00700293          	li	t0,7
   118f8:	04013e83          	ld	t4,64(sp)
   118fc:	03813f83          	ld	t6,56(sp)
   11900:	01813f03          	ld	t5,24(sp)
   11904:	f90dc6e3          	blt	s11,a6,11890 <_vfprintf_r+0x11d8>
   11908:	0016861b          	addiw	a2,a3,1
   1190c:	010787b3          	add	a5,a5,a6
   11910:	01133023          	sd	a7,0(t1)
   11914:	01033423          	sd	a6,8(t1)
   11918:	12f13023          	sd	a5,288(sp)
   1191c:	10c12c23          	sw	a2,280(sp)
   11920:	00700693          	li	a3,7
   11924:	01030313          	addi	t1,t1,16
   11928:	f6c6da63          	bge	a3,a2,1109c <_vfprintf_r+0x9e4>
   1192c:	11010613          	addi	a2,sp,272
   11930:	000b0593          	mv	a1,s6
   11934:	000b8513          	mv	a0,s7
   11938:	05d13023          	sd	t4,64(sp)
   1193c:	03f13c23          	sd	t6,56(sp)
   11940:	01e13c23          	sd	t5,24(sp)
   11944:	591090ef          	jal	ra,1b6d4 <__sprint_r>
   11948:	00050463          	beqz	a0,11950 <_vfprintf_r+0x1298>
   1194c:	fddfe06f          	j	10928 <_vfprintf_r+0x270>
   11950:	12013783          	ld	a5,288(sp)
   11954:	000c0313          	mv	t1,s8
   11958:	04013e83          	ld	t4,64(sp)
   1195c:	03813f83          	ld	t6,56(sp)
   11960:	01813f03          	ld	t5,24(sp)
   11964:	f38ff06f          	j	1109c <_vfprintf_r+0x9e4>
   11968:	11010613          	addi	a2,sp,272
   1196c:	000b0593          	mv	a1,s6
   11970:	000b8513          	mv	a0,s7
   11974:	03d13c23          	sd	t4,56(sp)
   11978:	01f13c23          	sd	t6,24(sp)
   1197c:	559090ef          	jal	ra,1b6d4 <__sprint_r>
   11980:	00050463          	beqz	a0,11988 <_vfprintf_r+0x12d0>
   11984:	fa5fe06f          	j	10928 <_vfprintf_r+0x270>
   11988:	12013783          	ld	a5,288(sp)
   1198c:	000c0313          	mv	t1,s8
   11990:	03813e83          	ld	t4,56(sp)
   11994:	01813f83          	ld	t6,24(sp)
   11998:	f78ff06f          	j	11110 <_vfprintf_r+0xa58>
   1199c:	11812703          	lw	a4,280(sp)
   119a0:	00010897          	auipc	a7,0x10
   119a4:	58088893          	addi	a7,a7,1408 # 21f20 <blanks.4540>
   119a8:	00700493          	li	s1,7
   119ac:	008dc863          	blt	s11,s0,119bc <_vfprintf_r+0x1304>
   119b0:	0600006f          	j	11a10 <_vfprintf_r+0x1358>
   119b4:	ff04041b          	addiw	s0,s0,-16
   119b8:	048ddc63          	bge	s11,s0,11a10 <_vfprintf_r+0x1358>
   119bc:	0017071b          	addiw	a4,a4,1
   119c0:	01078793          	addi	a5,a5,16
   119c4:	01133023          	sd	a7,0(t1)
   119c8:	01b33423          	sd	s11,8(t1)
   119cc:	12f13023          	sd	a5,288(sp)
   119d0:	10e12c23          	sw	a4,280(sp)
   119d4:	01030313          	addi	t1,t1,16
   119d8:	fce4dee3          	bge	s1,a4,119b4 <_vfprintf_r+0x12fc>
   119dc:	11010613          	addi	a2,sp,272
   119e0:	000b0593          	mv	a1,s6
   119e4:	000b8513          	mv	a0,s7
   119e8:	01113c23          	sd	a7,24(sp)
   119ec:	4e9090ef          	jal	ra,1b6d4 <__sprint_r>
   119f0:	00050463          	beqz	a0,119f8 <_vfprintf_r+0x1340>
   119f4:	f35fe06f          	j	10928 <_vfprintf_r+0x270>
   119f8:	ff04041b          	addiw	s0,s0,-16
   119fc:	12013783          	ld	a5,288(sp)
   11a00:	11812703          	lw	a4,280(sp)
   11a04:	000c0313          	mv	t1,s8
   11a08:	01813883          	ld	a7,24(sp)
   11a0c:	fa8dc8e3          	blt	s11,s0,119bc <_vfprintf_r+0x1304>
   11a10:	0017069b          	addiw	a3,a4,1
   11a14:	008787b3          	add	a5,a5,s0
   11a18:	01133023          	sd	a7,0(t1)
   11a1c:	00833423          	sd	s0,8(t1)
   11a20:	12f13023          	sd	a5,288(sp)
   11a24:	10d12c23          	sw	a3,280(sp)
   11a28:	00700713          	li	a4,7
   11a2c:	f2d75a63          	bge	a4,a3,11160 <_vfprintf_r+0xaa8>
   11a30:	11010613          	addi	a2,sp,272
   11a34:	000b0593          	mv	a1,s6
   11a38:	000b8513          	mv	a0,s7
   11a3c:	499090ef          	jal	ra,1b6d4 <__sprint_r>
   11a40:	00050463          	beqz	a0,11a48 <_vfprintf_r+0x1390>
   11a44:	ee5fe06f          	j	10928 <_vfprintf_r+0x270>
   11a48:	12013783          	ld	a5,288(sp)
   11a4c:	f14ff06f          	j	11160 <_vfprintf_r+0xaa8>
   11a50:	00100693          	li	a3,1
   11a54:	4cd706e3          	beq	a4,a3,12720 <_vfprintf_r+0x2068>
   11a58:	00200693          	li	a3,2
   11a5c:	00040813          	mv	a6,s0
   11a60:	d8d71863          	bne	a4,a3,10ff0 <_vfprintf_r+0x938>
   11a64:	18c10c93          	addi	s9,sp,396
   11a68:	000c8d13          	mv	s10,s9
   11a6c:	03013783          	ld	a5,48(sp)
   11a70:	00faf693          	andi	a3,s5,15
   11a74:	fffd0d13          	addi	s10,s10,-1
   11a78:	00d786b3          	add	a3,a5,a3
   11a7c:	0006c683          	lbu	a3,0(a3)
   11a80:	004ada93          	srli	s5,s5,0x4
   11a84:	00dd0023          	sb	a3,0(s10)
   11a88:	fe0a92e3          	bnez	s5,11a6c <_vfprintf_r+0x13b4>
   11a8c:	41ac8cbb          	subw	s9,s9,s10
   11a90:	00080413          	mv	s0,a6
   11a94:	f7dfe06f          	j	10a10 <_vfprintf_r+0x358>
   11a98:	0e812583          	lw	a1,232(sp)
   11a9c:	3eb05863          	blez	a1,11e8c <_vfprintf_r+0x17d4>
   11aa0:	02813703          	ld	a4,40(sp)
   11aa4:	06013683          	ld	a3,96(sp)
   11aa8:	0007049b          	sext.w	s1,a4
   11aac:	24e6cc63          	blt	a3,a4,11d04 <_vfprintf_r+0x164c>
   11ab0:	02905663          	blez	s1,11adc <_vfprintf_r+0x1424>
   11ab4:	11812683          	lw	a3,280(sp)
   11ab8:	009787b3          	add	a5,a5,s1
   11abc:	01a33023          	sd	s10,0(t1)
   11ac0:	0016861b          	addiw	a2,a3,1
   11ac4:	00933423          	sd	s1,8(t1)
   11ac8:	12f13023          	sd	a5,288(sp)
   11acc:	10c12c23          	sw	a2,280(sp)
   11ad0:	00700693          	li	a3,7
   11ad4:	01030313          	addi	t1,t1,16
   11ad8:	0cc6c4e3          	blt	a3,a2,123a0 <_vfprintf_r+0x1ce8>
   11adc:	fff4c693          	not	a3,s1
   11ae0:	06013703          	ld	a4,96(sp)
   11ae4:	43f6d693          	srai	a3,a3,0x3f
   11ae8:	00d4f4b3          	and	s1,s1,a3
   11aec:	409704bb          	subw	s1,a4,s1
   11af0:	2e904263          	bgtz	s1,11dd4 <_vfprintf_r+0x171c>
   11af4:	06013703          	ld	a4,96(sp)
   11af8:	40047693          	andi	a3,s0,1024
   11afc:	00ed04b3          	add	s1,s10,a4
   11b00:	66069a63          	bnez	a3,12174 <_vfprintf_r+0x1abc>
   11b04:	0e812683          	lw	a3,232(sp)
   11b08:	02813703          	ld	a4,40(sp)
   11b0c:	00e6c663          	blt	a3,a4,11b18 <_vfprintf_r+0x1460>
   11b10:	00147613          	andi	a2,s0,1
   11b14:	10060ae3          	beqz	a2,12428 <_vfprintf_r+0x1d70>
   11b18:	08013603          	ld	a2,128(sp)
   11b1c:	07813703          	ld	a4,120(sp)
   11b20:	01030313          	addi	t1,t1,16
   11b24:	fec33823          	sd	a2,-16(t1)
   11b28:	11812603          	lw	a2,280(sp)
   11b2c:	00e787b3          	add	a5,a5,a4
   11b30:	fee33c23          	sd	a4,-8(t1)
   11b34:	0016059b          	addiw	a1,a2,1
   11b38:	12f13023          	sd	a5,288(sp)
   11b3c:	10b12c23          	sw	a1,280(sp)
   11b40:	00700613          	li	a2,7
   11b44:	5cb64ae3          	blt	a2,a1,12918 <_vfprintf_r+0x2260>
   11b48:	02813703          	ld	a4,40(sp)
   11b4c:	40d7063b          	subw	a2,a4,a3
   11b50:	00ed0733          	add	a4,s10,a4
   11b54:	4097073b          	subw	a4,a4,s1
   11b58:	00060693          	mv	a3,a2
   11b5c:	00c75463          	bge	a4,a2,11b64 <_vfprintf_r+0x14ac>
   11b60:	00070693          	mv	a3,a4
   11b64:	00068c9b          	sext.w	s9,a3
   11b68:	03905663          	blez	s9,11b94 <_vfprintf_r+0x14dc>
   11b6c:	11812703          	lw	a4,280(sp)
   11b70:	019787b3          	add	a5,a5,s9
   11b74:	00933023          	sd	s1,0(t1)
   11b78:	0017069b          	addiw	a3,a4,1
   11b7c:	01933423          	sd	s9,8(t1)
   11b80:	12f13023          	sd	a5,288(sp)
   11b84:	10d12c23          	sw	a3,280(sp)
   11b88:	00700713          	li	a4,7
   11b8c:	01030313          	addi	t1,t1,16
   11b90:	5cd74ee3          	blt	a4,a3,1296c <_vfprintf_r+0x22b4>
   11b94:	fffcc493          	not	s1,s9
   11b98:	43f4d493          	srai	s1,s1,0x3f
   11b9c:	009cf4b3          	and	s1,s9,s1
   11ba0:	409604bb          	subw	s1,a2,s1
   11ba4:	da905663          	blez	s1,11150 <_vfprintf_r+0xa98>
   11ba8:	11812703          	lw	a4,280(sp)
   11bac:	409dda63          	bge	s11,s1,11fc0 <_vfprintf_r+0x1908>
   11bb0:	00700c93          	li	s9,7
   11bb4:	00c0006f          	j	11bc0 <_vfprintf_r+0x1508>
   11bb8:	ff04849b          	addiw	s1,s1,-16
   11bbc:	409dd263          	bge	s11,s1,11fc0 <_vfprintf_r+0x1908>
   11bc0:	0017071b          	addiw	a4,a4,1
   11bc4:	01078793          	addi	a5,a5,16
   11bc8:	01333023          	sd	s3,0(t1)
   11bcc:	01b33423          	sd	s11,8(t1)
   11bd0:	12f13023          	sd	a5,288(sp)
   11bd4:	10e12c23          	sw	a4,280(sp)
   11bd8:	01030313          	addi	t1,t1,16
   11bdc:	fcecdee3          	bge	s9,a4,11bb8 <_vfprintf_r+0x1500>
   11be0:	11010613          	addi	a2,sp,272
   11be4:	000b0593          	mv	a1,s6
   11be8:	000b8513          	mv	a0,s7
   11bec:	2e9090ef          	jal	ra,1b6d4 <__sprint_r>
   11bf0:	00050463          	beqz	a0,11bf8 <_vfprintf_r+0x1540>
   11bf4:	d35fe06f          	j	10928 <_vfprintf_r+0x270>
   11bf8:	12013783          	ld	a5,288(sp)
   11bfc:	11812703          	lw	a4,280(sp)
   11c00:	000c0313          	mv	t1,s8
   11c04:	fb5ff06f          	j	11bb8 <_vfprintf_r+0x1500>
   11c08:	00147593          	andi	a1,s0,1
   11c0c:	b60594e3          	bnez	a1,11774 <_vfprintf_r+0x10bc>
   11c10:	00c33423          	sd	a2,8(t1)
   11c14:	13913023          	sd	s9,288(sp)
   11c18:	10f12c23          	sw	a5,280(sp)
   11c1c:	00700713          	li	a4,7
   11c20:	10f74a63          	blt	a4,a5,11d34 <_vfprintf_r+0x167c>
   11c24:	002e8e9b          	addiw	t4,t4,2
   11c28:	02030313          	addi	t1,t1,32
   11c2c:	c15ff06f          	j	11840 <_vfprintf_r+0x1188>
   11c30:	c10058e3          	blez	a6,11840 <_vfprintf_r+0x1188>
   11c34:	010dc463          	blt	s11,a6,11c3c <_vfprintf_r+0x1584>
   11c38:	1440106f          	j	12d7c <_vfprintf_r+0x26c4>
   11c3c:	00700d13          	li	s10,7
   11c40:	0100006f          	j	11c50 <_vfprintf_r+0x1598>
   11c44:	ff08081b          	addiw	a6,a6,-16
   11c48:	0d0dd463          	bge	s11,a6,11d10 <_vfprintf_r+0x1658>
   11c4c:	0017889b          	addiw	a7,a5,1
   11c50:	010c8c93          	addi	s9,s9,16
   11c54:	0134b023          	sd	s3,0(s1)
   11c58:	01b4b423          	sd	s11,8(s1)
   11c5c:	13913023          	sd	s9,288(sp)
   11c60:	0008879b          	sext.w	a5,a7
   11c64:	11112c23          	sw	a7,280(sp)
   11c68:	01048493          	addi	s1,s1,16
   11c6c:	fcfd5ce3          	bge	s10,a5,11c44 <_vfprintf_r+0x158c>
   11c70:	11010613          	addi	a2,sp,272
   11c74:	000b0593          	mv	a1,s6
   11c78:	000b8513          	mv	a0,s7
   11c7c:	01013c23          	sd	a6,24(sp)
   11c80:	255090ef          	jal	ra,1b6d4 <__sprint_r>
   11c84:	00050463          	beqz	a0,11c8c <_vfprintf_r+0x15d4>
   11c88:	ca1fe06f          	j	10928 <_vfprintf_r+0x270>
   11c8c:	12013c83          	ld	s9,288(sp)
   11c90:	11812783          	lw	a5,280(sp)
   11c94:	000c0493          	mv	s1,s8
   11c98:	01813803          	ld	a6,24(sp)
   11c9c:	fa9ff06f          	j	11c44 <_vfprintf_r+0x158c>
   11ca0:	03000793          	li	a5,48
   11ca4:	18f105a3          	sb	a5,395(sp)
   11ca8:	18b10d13          	addi	s10,sp,395
   11cac:	d65fe06f          	j	10a10 <_vfprintf_r+0x358>
   11cb0:	00813783          	ld	a5,8(sp)
   11cb4:	00090d13          	mv	s10,s2
   11cb8:	00f73023          	sd	a5,0(a4)
   11cbc:	ce0ff06f          	j	1119c <_vfprintf_r+0xae4>
   11cc0:	01013783          	ld	a5,16(sp)
   11cc4:	00f78793          	addi	a5,a5,15
   11cc8:	ff07f793          	andi	a5,a5,-16
   11ccc:	0007b603          	ld	a2,0(a5)
   11cd0:	0087b683          	ld	a3,8(a5)
   11cd4:	01078793          	addi	a5,a5,16
   11cd8:	00f13823          	sd	a5,16(sp)
   11cdc:	10c13023          	sd	a2,256(sp)
   11ce0:	10d13423          	sd	a3,264(sp)
   11ce4:	e59fe06f          	j	10b3c <_vfprintf_r+0x484>
   11ce8:	00040813          	mv	a6,s0
   11cec:	ac8ff06f          	j	10fb4 <_vfprintf_r+0x8fc>
   11cf0:	01013783          	ld	a5,16(sp)
   11cf4:	0007ba83          	ld	s5,0(a5)
   11cf8:	cb5fe06f          	j	109ac <_vfprintf_r+0x2f4>
   11cfc:	00040813          	mv	a6,s0
   11d00:	8f8ff06f          	j	10df8 <_vfprintf_r+0x740>
   11d04:	0006849b          	sext.w	s1,a3
   11d08:	da9046e3          	bgtz	s1,11ab4 <_vfprintf_r+0x13fc>
   11d0c:	dd1ff06f          	j	11adc <_vfprintf_r+0x1424>
   11d10:	00178e9b          	addiw	t4,a5,1
   11d14:	01048793          	addi	a5,s1,16
   11d18:	010c8cb3          	add	s9,s9,a6
   11d1c:	0134b023          	sd	s3,0(s1)
   11d20:	0104b423          	sd	a6,8(s1)
   11d24:	13913023          	sd	s9,288(sp)
   11d28:	11d12c23          	sw	t4,280(sp)
   11d2c:	00700713          	li	a4,7
   11d30:	63d75663          	bge	a4,t4,1235c <_vfprintf_r+0x1ca4>
   11d34:	11010613          	addi	a2,sp,272
   11d38:	000b0593          	mv	a1,s6
   11d3c:	000b8513          	mv	a0,s7
   11d40:	195090ef          	jal	ra,1b6d4 <__sprint_r>
   11d44:	00050463          	beqz	a0,11d4c <_vfprintf_r+0x1694>
   11d48:	be1fe06f          	j	10928 <_vfprintf_r+0x270>
   11d4c:	11812e83          	lw	t4,280(sp)
   11d50:	12013c83          	ld	s9,288(sp)
   11d54:	1a010313          	addi	t1,sp,416
   11d58:	001e8e9b          	addiw	t4,t4,1
   11d5c:	000c0493          	mv	s1,s8
   11d60:	ae1ff06f          	j	11840 <_vfprintf_r+0x1188>
   11d64:	20046413          	ori	s0,s0,512
   11d68:	00194483          	lbu	s1,1(s2)
   11d6c:	0004041b          	sext.w	s0,s0
   11d70:	00190913          	addi	s2,s2,1
   11d74:	ae9fe06f          	j	1085c <_vfprintf_r+0x1a4>
   11d78:	11010613          	addi	a2,sp,272
   11d7c:	000b0593          	mv	a1,s6
   11d80:	000b8513          	mv	a0,s7
   11d84:	151090ef          	jal	ra,1b6d4 <__sprint_r>
   11d88:	00050463          	beqz	a0,11d90 <_vfprintf_r+0x16d8>
   11d8c:	b9dfe06f          	j	10928 <_vfprintf_r+0x270>
   11d90:	12013783          	ld	a5,288(sp)
   11d94:	000c0313          	mv	t1,s8
   11d98:	fd8ff06f          	j	11570 <_vfprintf_r+0xeb8>
   11d9c:	02046413          	ori	s0,s0,32
   11da0:	00194483          	lbu	s1,1(s2)
   11da4:	0004041b          	sext.w	s0,s0
   11da8:	00190913          	addi	s2,s2,1
   11dac:	ab1fe06f          	j	1085c <_vfprintf_r+0x1a4>
   11db0:	000e871b          	sext.w	a4,t4
   11db4:	00600793          	li	a5,6
   11db8:	66e7e463          	bltu	a5,a4,12420 <_vfprintf_r+0x1d68>
   11dbc:	000e8c9b          	sext.w	s9,t4
   11dc0:	000c8a93          	mv	s5,s9
   11dc4:	00d13823          	sd	a3,16(sp)
   11dc8:	00010d17          	auipc	s10,0x10
   11dcc:	1f8d0d13          	addi	s10,s10,504 # 21fc0 <zeroes.4541+0x90>
   11dd0:	a94ff06f          	j	11064 <_vfprintf_r+0x9ac>
   11dd4:	11812683          	lw	a3,280(sp)
   11dd8:	349dda63          	bge	s11,s1,1212c <_vfprintf_r+0x1a74>
   11ddc:	00700c93          	li	s9,7
   11de0:	00c0006f          	j	11dec <_vfprintf_r+0x1734>
   11de4:	ff04849b          	addiw	s1,s1,-16
   11de8:	349dd263          	bge	s11,s1,1212c <_vfprintf_r+0x1a74>
   11dec:	0016869b          	addiw	a3,a3,1
   11df0:	01078793          	addi	a5,a5,16
   11df4:	01333023          	sd	s3,0(t1)
   11df8:	01b33423          	sd	s11,8(t1)
   11dfc:	12f13023          	sd	a5,288(sp)
   11e00:	10d12c23          	sw	a3,280(sp)
   11e04:	01030313          	addi	t1,t1,16
   11e08:	fcdcdee3          	bge	s9,a3,11de4 <_vfprintf_r+0x172c>
   11e0c:	11010613          	addi	a2,sp,272
   11e10:	000b0593          	mv	a1,s6
   11e14:	000b8513          	mv	a0,s7
   11e18:	0bd090ef          	jal	ra,1b6d4 <__sprint_r>
   11e1c:	00050463          	beqz	a0,11e24 <_vfprintf_r+0x176c>
   11e20:	b09fe06f          	j	10928 <_vfprintf_r+0x270>
   11e24:	12013783          	ld	a5,288(sp)
   11e28:	11812683          	lw	a3,280(sp)
   11e2c:	000c0313          	mv	t1,s8
   11e30:	fb5ff06f          	j	11de4 <_vfprintf_r+0x172c>
   11e34:	000d0493          	mv	s1,s10
   11e38:	a05fe06f          	j	1083c <_vfprintf_r+0x184>
   11e3c:	11010613          	addi	a2,sp,272
   11e40:	000b0593          	mv	a1,s6
   11e44:	000b8513          	mv	a0,s7
   11e48:	08d090ef          	jal	ra,1b6d4 <__sprint_r>
   11e4c:	00050463          	beqz	a0,11e54 <_vfprintf_r+0x179c>
   11e50:	ad9fe06f          	j	10928 <_vfprintf_r+0x270>
   11e54:	12013c83          	ld	s9,288(sp)
   11e58:	11812783          	lw	a5,280(sp)
   11e5c:	000c0493          	mv	s1,s8
   11e60:	92dff06f          	j	1178c <_vfprintf_r+0x10d4>
   11e64:	11010613          	addi	a2,sp,272
   11e68:	000b0593          	mv	a1,s6
   11e6c:	000b8513          	mv	a0,s7
   11e70:	065090ef          	jal	ra,1b6d4 <__sprint_r>
   11e74:	00050463          	beqz	a0,11e7c <_vfprintf_r+0x17c4>
   11e78:	ab1fe06f          	j	10928 <_vfprintf_r+0x270>
   11e7c:	12013c83          	ld	s9,288(sp)
   11e80:	11812783          	lw	a5,280(sp)
   11e84:	000c0493          	mv	s1,s8
   11e88:	935ff06f          	j	117bc <_vfprintf_r+0x1104>
   11e8c:	11812683          	lw	a3,280(sp)
   11e90:	00010617          	auipc	a2,0x10
   11e94:	13860613          	addi	a2,a2,312 # 21fc8 <zeroes.4541+0x98>
   11e98:	00c33023          	sd	a2,0(t1)
   11e9c:	0016869b          	addiw	a3,a3,1
   11ea0:	00100613          	li	a2,1
   11ea4:	00178793          	addi	a5,a5,1
   11ea8:	00c33423          	sd	a2,8(t1)
   11eac:	10d12c23          	sw	a3,280(sp)
   11eb0:	0006861b          	sext.w	a2,a3
   11eb4:	12f13023          	sd	a5,288(sp)
   11eb8:	00700693          	li	a3,7
   11ebc:	01030313          	addi	t1,t1,16
   11ec0:	4ac6c663          	blt	a3,a2,1236c <_vfprintf_r+0x1cb4>
   11ec4:	b2059a63          	bnez	a1,111f8 <_vfprintf_r+0xb40>
   11ec8:	02813703          	ld	a4,40(sp)
   11ecc:	00147693          	andi	a3,s0,1
   11ed0:	00d766b3          	or	a3,a4,a3
   11ed4:	a6068e63          	beqz	a3,11150 <_vfprintf_r+0xa98>
   11ed8:	11812603          	lw	a2,280(sp)
   11edc:	07813703          	ld	a4,120(sp)
   11ee0:	08013683          	ld	a3,128(sp)
   11ee4:	00f707b3          	add	a5,a4,a5
   11ee8:	00d33023          	sd	a3,0(t1)
   11eec:	0016069b          	addiw	a3,a2,1
   11ef0:	00e33423          	sd	a4,8(t1)
   11ef4:	12f13023          	sd	a5,288(sp)
   11ef8:	10d12c23          	sw	a3,280(sp)
   11efc:	00700613          	li	a2,7
   11f00:	b2d64463          	blt	a2,a3,11228 <_vfprintf_r+0xb70>
   11f04:	01030313          	addi	t1,t1,16
   11f08:	b4cff06f          	j	11254 <_vfprintf_r+0xb9c>
   11f0c:	11010613          	addi	a2,sp,272
   11f10:	000b0593          	mv	a1,s6
   11f14:	000b8513          	mv	a0,s7
   11f18:	7bc090ef          	jal	ra,1b6d4 <__sprint_r>
   11f1c:	00050463          	beqz	a0,11f24 <_vfprintf_r+0x186c>
   11f20:	a09fe06f          	j	10928 <_vfprintf_r+0x270>
   11f24:	000c0313          	mv	t1,s8
   11f28:	df4ff06f          	j	1151c <_vfprintf_r+0xe64>
   11f2c:	40087413          	andi	s0,a6,1024
   11f30:	18c10c93          	addi	s9,sp,396
   11f34:	0004041b          	sext.w	s0,s0
   11f38:	02013423          	sd	zero,40(sp)
   11f3c:	000c8d13          	mv	s10,s9
   11f40:	00a00593          	li	a1,10
   11f44:	000a8513          	mv	a0,s5
   11f48:	02613c23          	sd	t1,56(sp)
   11f4c:	03d13023          	sd	t4,32(sp)
   11f50:	01013c23          	sd	a6,24(sp)
   11f54:	46d0f0ef          	jal	ra,21bc0 <__umoddi3>
   11f58:	02813783          	ld	a5,40(sp)
   11f5c:	0305051b          	addiw	a0,a0,48
   11f60:	fead0fa3          	sb	a0,-1(s10)
   11f64:	0017879b          	addiw	a5,a5,1
   11f68:	02f13423          	sd	a5,40(sp)
   11f6c:	fffd0d13          	addi	s10,s10,-1
   11f70:	01813803          	ld	a6,24(sp)
   11f74:	02013e83          	ld	t4,32(sp)
   11f78:	03813303          	ld	t1,56(sp)
   11f7c:	00040863          	beqz	s0,11f8c <_vfprintf_r+0x18d4>
   11f80:	07013703          	ld	a4,112(sp)
   11f84:	00074683          	lbu	a3,0(a4)
   11f88:	d0d78863          	beq	a5,a3,11498 <_vfprintf_r+0xde0>
   11f8c:	00a00593          	li	a1,10
   11f90:	000a8513          	mv	a0,s5
   11f94:	02613c23          	sd	t1,56(sp)
   11f98:	03d13023          	sd	t4,32(sp)
   11f9c:	01013c23          	sd	a6,24(sp)
   11fa0:	3d90f0ef          	jal	ra,21b78 <__udivdi3>
   11fa4:	00900793          	li	a5,9
   11fa8:	01813803          	ld	a6,24(sp)
   11fac:	02013e83          	ld	t4,32(sp)
   11fb0:	03813303          	ld	t1,56(sp)
   11fb4:	cf57fa63          	bgeu	a5,s5,114a8 <_vfprintf_r+0xdf0>
   11fb8:	00050a93          	mv	s5,a0
   11fbc:	f85ff06f          	j	11f40 <_vfprintf_r+0x1888>
   11fc0:	0017069b          	addiw	a3,a4,1
   11fc4:	01333023          	sd	s3,0(t1)
   11fc8:	00933423          	sd	s1,8(t1)
   11fcc:	009787b3          	add	a5,a5,s1
   11fd0:	12f13023          	sd	a5,288(sp)
   11fd4:	10d12c23          	sw	a3,280(sp)
   11fd8:	00700713          	li	a4,7
   11fdc:	96d75863          	bge	a4,a3,1114c <_vfprintf_r+0xa94>
   11fe0:	a98ff06f          	j	11278 <_vfprintf_r+0xbc0>
   11fe4:	10013503          	ld	a0,256(sp)
   11fe8:	10813583          	ld	a1,264(sp)
   11fec:	00000613          	li	a2,0
   11ff0:	00000693          	li	a3,0
   11ff4:	00613c23          	sd	t1,24(sp)
   11ff8:	1280e0ef          	jal	ra,20120 <__letf2>
   11ffc:	01813303          	ld	t1,24(sp)
   12000:	100546e3          	bltz	a0,1290c <_vfprintf_r+0x2254>
   12004:	0df14783          	lbu	a5,223(sp)
   12008:	04700693          	li	a3,71
   1200c:	00010d17          	auipc	s10,0x10
   12010:	f64d0d13          	addi	s10,s10,-156 # 21f70 <zeroes.4541+0x40>
   12014:	3896c063          	blt	a3,s1,12394 <_vfprintf_r+0x1cdc>
   12018:	f7f47413          	andi	s0,s0,-129
   1201c:	02013023          	sd	zero,32(sp)
   12020:	04013c23          	sd	zero,88(sp)
   12024:	06013423          	sd	zero,104(sp)
   12028:	06013023          	sd	zero,96(sp)
   1202c:	0004041b          	sext.w	s0,s0
   12030:	00300a93          	li	s5,3
   12034:	00300c93          	li	s9,3
   12038:	00000e93          	li	t4,0
   1203c:	00078463          	beqz	a5,12044 <_vfprintf_r+0x198c>
   12040:	9f5fe06f          	j	10a34 <_vfprintf_r+0x37c>
   12044:	834ff06f          	j	11078 <_vfprintf_r+0x9c0>
   12048:	000d0513          	mv	a0,s10
   1204c:	00613c23          	sd	t1,24(sp)
   12050:	00d13823          	sd	a3,16(sp)
   12054:	501060ef          	jal	ra,18d54 <strlen>
   12058:	00050c9b          	sext.w	s9,a0
   1205c:	fffcca93          	not	s5,s9
   12060:	0df14783          	lbu	a5,223(sp)
   12064:	43fada93          	srai	s5,s5,0x3f
   12068:	015cfab3          	and	s5,s9,s5
   1206c:	02013023          	sd	zero,32(sp)
   12070:	04013c23          	sd	zero,88(sp)
   12074:	06013423          	sd	zero,104(sp)
   12078:	06013023          	sd	zero,96(sp)
   1207c:	000a8a9b          	sext.w	s5,s5
   12080:	00000e93          	li	t4,0
   12084:	01813303          	ld	t1,24(sp)
   12088:	00078463          	beqz	a5,12090 <_vfprintf_r+0x19d8>
   1208c:	9a9fe06f          	j	10a34 <_vfprintf_r+0x37c>
   12090:	fe9fe06f          	j	11078 <_vfprintf_r+0x9c0>
   12094:	20047713          	andi	a4,s0,512
   12098:	0ff7fa93          	andi	s5,a5,255
   1209c:	00070463          	beqz	a4,120a4 <_vfprintf_r+0x19ec>
   120a0:	90dfe06f          	j	109ac <_vfprintf_r+0x2f4>
   120a4:	02079a93          	slli	s5,a5,0x20
   120a8:	020ada93          	srli	s5,s5,0x20
   120ac:	901fe06f          	j	109ac <_vfprintf_r+0x2f4>
   120b0:	20047713          	andi	a4,s0,512
   120b4:	3c070063          	beqz	a4,12474 <_vfprintf_r+0x1dbc>
   120b8:	0ff7fa93          	andi	s5,a5,255
   120bc:	00d13823          	sd	a3,16(sp)
   120c0:	00040813          	mv	a6,s0
   120c4:	00100713          	li	a4,1
   120c8:	915fe06f          	j	109dc <_vfprintf_r+0x324>
   120cc:	20047693          	andi	a3,s0,512
   120d0:	3a068e63          	beqz	a3,1248c <_vfprintf_r+0x1dd4>
   120d4:	0ff7fa93          	andi	s5,a5,255
   120d8:	00e13823          	sd	a4,16(sp)
   120dc:	dddfe06f          	j	10eb8 <_vfprintf_r+0x800>
   120e0:	20047793          	andi	a5,s0,512
   120e4:	36078463          	beqz	a5,1244c <_vfprintf_r+0x1d94>
   120e8:	01013783          	ld	a5,16(sp)
   120ec:	00040813          	mv	a6,s0
   120f0:	00d13823          	sd	a3,16(sp)
   120f4:	00078a83          	lb	s5,0(a5)
   120f8:	000a8713          	mv	a4,s5
   120fc:	e15fe06f          	j	10f10 <_vfprintf_r+0x858>
   12100:	10813783          	ld	a5,264(sp)
   12104:	3807dc63          	bgez	a5,1249c <_vfprintf_r+0x1de4>
   12108:	02d00793          	li	a5,45
   1210c:	0cf10fa3          	sb	a5,223(sp)
   12110:	04700693          	li	a3,71
   12114:	00010d17          	auipc	s10,0x10
   12118:	e6cd0d13          	addi	s10,s10,-404 # 21f80 <zeroes.4541+0x50>
   1211c:	ee96dee3          	bge	a3,s1,12018 <_vfprintf_r+0x1960>
   12120:	00010d17          	auipc	s10,0x10
   12124:	e68d0d13          	addi	s10,s10,-408 # 21f88 <zeroes.4541+0x58>
   12128:	ef1ff06f          	j	12018 <_vfprintf_r+0x1960>
   1212c:	0016861b          	addiw	a2,a3,1
   12130:	009787b3          	add	a5,a5,s1
   12134:	01333023          	sd	s3,0(t1)
   12138:	00933423          	sd	s1,8(t1)
   1213c:	12f13023          	sd	a5,288(sp)
   12140:	10c12c23          	sw	a2,280(sp)
   12144:	00700693          	li	a3,7
   12148:	01030313          	addi	t1,t1,16
   1214c:	9ac6d4e3          	bge	a3,a2,11af4 <_vfprintf_r+0x143c>
   12150:	11010613          	addi	a2,sp,272
   12154:	000b0593          	mv	a1,s6
   12158:	000b8513          	mv	a0,s7
   1215c:	578090ef          	jal	ra,1b6d4 <__sprint_r>
   12160:	00050463          	beqz	a0,12168 <_vfprintf_r+0x1ab0>
   12164:	fc4fe06f          	j	10928 <_vfprintf_r+0x270>
   12168:	12013783          	ld	a5,288(sp)
   1216c:	000c0313          	mv	t1,s8
   12170:	985ff06f          	j	11af4 <_vfprintf_r+0x143c>
   12174:	02813703          	ld	a4,40(sp)
   12178:	00700813          	li	a6,7
   1217c:	00ed0733          	add	a4,s10,a4
   12180:	00e13c23          	sd	a4,24(sp)
   12184:	06813703          	ld	a4,104(sp)
   12188:	0c070263          	beqz	a4,1224c <_vfprintf_r+0x1b94>
   1218c:	05813703          	ld	a4,88(sp)
   12190:	0c071263          	bnez	a4,12254 <_vfprintf_r+0x1b9c>
   12194:	07013703          	ld	a4,112(sp)
   12198:	fff70713          	addi	a4,a4,-1
   1219c:	06e13823          	sd	a4,112(sp)
   121a0:	06813703          	ld	a4,104(sp)
   121a4:	fff7071b          	addiw	a4,a4,-1
   121a8:	06e13423          	sd	a4,104(sp)
   121ac:	09813683          	ld	a3,152(sp)
   121b0:	08813703          	ld	a4,136(sp)
   121b4:	01030313          	addi	t1,t1,16
   121b8:	fed33823          	sd	a3,-16(t1)
   121bc:	11812683          	lw	a3,280(sp)
   121c0:	00e787b3          	add	a5,a5,a4
   121c4:	fee33c23          	sd	a4,-8(t1)
   121c8:	0016861b          	addiw	a2,a3,1
   121cc:	12f13023          	sd	a5,288(sp)
   121d0:	10c12c23          	sw	a2,280(sp)
   121d4:	12c84263          	blt	a6,a2,122f8 <_vfprintf_r+0x1c40>
   121d8:	07013703          	ld	a4,112(sp)
   121dc:	00074603          	lbu	a2,0(a4)
   121e0:	01813703          	ld	a4,24(sp)
   121e4:	00060c9b          	sext.w	s9,a2
   121e8:	409705bb          	subw	a1,a4,s1
   121ec:	000c869b          	sext.w	a3,s9
   121f0:	0195d463          	bge	a1,s9,121f8 <_vfprintf_r+0x1b40>
   121f4:	0005869b          	sext.w	a3,a1
   121f8:	02d05a63          	blez	a3,1222c <_vfprintf_r+0x1b74>
   121fc:	11812603          	lw	a2,280(sp)
   12200:	00d787b3          	add	a5,a5,a3
   12204:	00933023          	sd	s1,0(t1)
   12208:	0016059b          	addiw	a1,a2,1
   1220c:	00d33423          	sd	a3,8(t1)
   12210:	12f13023          	sd	a5,288(sp)
   12214:	10b12c23          	sw	a1,280(sp)
   12218:	10b84463          	blt	a6,a1,12320 <_vfprintf_r+0x1c68>
   1221c:	07013703          	ld	a4,112(sp)
   12220:	01030313          	addi	t1,t1,16
   12224:	00074603          	lbu	a2,0(a4)
   12228:	00060c9b          	sext.w	s9,a2
   1222c:	fff6c593          	not	a1,a3
   12230:	43f5d593          	srai	a1,a1,0x3f
   12234:	00b6f6b3          	and	a3,a3,a1
   12238:	40dc8cbb          	subw	s9,s9,a3
   1223c:	03904463          	bgtz	s9,12264 <_vfprintf_r+0x1bac>
   12240:	00c484b3          	add	s1,s1,a2
   12244:	06813703          	ld	a4,104(sp)
   12248:	f40712e3          	bnez	a4,1218c <_vfprintf_r+0x1ad4>
   1224c:	05813703          	ld	a4,88(sp)
   12250:	4c070c63          	beqz	a4,12728 <_vfprintf_r+0x2070>
   12254:	05813703          	ld	a4,88(sp)
   12258:	fff7071b          	addiw	a4,a4,-1
   1225c:	04e13c23          	sd	a4,88(sp)
   12260:	f4dff06f          	j	121ac <_vfprintf_r+0x1af4>
   12264:	11812683          	lw	a3,280(sp)
   12268:	019dc863          	blt	s11,s9,12278 <_vfprintf_r+0x1bc0>
   1226c:	05c0006f          	j	122c8 <_vfprintf_r+0x1c10>
   12270:	ff0c8c9b          	addiw	s9,s9,-16
   12274:	059dda63          	bge	s11,s9,122c8 <_vfprintf_r+0x1c10>
   12278:	0016869b          	addiw	a3,a3,1
   1227c:	01078793          	addi	a5,a5,16
   12280:	01333023          	sd	s3,0(t1)
   12284:	01b33423          	sd	s11,8(t1)
   12288:	12f13023          	sd	a5,288(sp)
   1228c:	10d12c23          	sw	a3,280(sp)
   12290:	01030313          	addi	t1,t1,16
   12294:	fcd85ee3          	bge	a6,a3,12270 <_vfprintf_r+0x1bb8>
   12298:	11010613          	addi	a2,sp,272
   1229c:	000b0593          	mv	a1,s6
   122a0:	000b8513          	mv	a0,s7
   122a4:	430090ef          	jal	ra,1b6d4 <__sprint_r>
   122a8:	00050463          	beqz	a0,122b0 <_vfprintf_r+0x1bf8>
   122ac:	e7cfe06f          	j	10928 <_vfprintf_r+0x270>
   122b0:	ff0c8c9b          	addiw	s9,s9,-16
   122b4:	12013783          	ld	a5,288(sp)
   122b8:	11812683          	lw	a3,280(sp)
   122bc:	000c0313          	mv	t1,s8
   122c0:	00700813          	li	a6,7
   122c4:	fb9dcae3          	blt	s11,s9,12278 <_vfprintf_r+0x1bc0>
   122c8:	0016861b          	addiw	a2,a3,1
   122cc:	019787b3          	add	a5,a5,s9
   122d0:	01333023          	sd	s3,0(t1)
   122d4:	01933423          	sd	s9,8(t1)
   122d8:	12f13023          	sd	a5,288(sp)
   122dc:	10c12c23          	sw	a2,280(sp)
   122e0:	5ac84c63          	blt	a6,a2,12898 <_vfprintf_r+0x21e0>
   122e4:	07013703          	ld	a4,112(sp)
   122e8:	01030313          	addi	t1,t1,16
   122ec:	00074603          	lbu	a2,0(a4)
   122f0:	00c484b3          	add	s1,s1,a2
   122f4:	f51ff06f          	j	12244 <_vfprintf_r+0x1b8c>
   122f8:	11010613          	addi	a2,sp,272
   122fc:	000b0593          	mv	a1,s6
   12300:	000b8513          	mv	a0,s7
   12304:	3d0090ef          	jal	ra,1b6d4 <__sprint_r>
   12308:	00050463          	beqz	a0,12310 <_vfprintf_r+0x1c58>
   1230c:	e1cfe06f          	j	10928 <_vfprintf_r+0x270>
   12310:	12013783          	ld	a5,288(sp)
   12314:	000c0313          	mv	t1,s8
   12318:	00700813          	li	a6,7
   1231c:	ebdff06f          	j	121d8 <_vfprintf_r+0x1b20>
   12320:	11010613          	addi	a2,sp,272
   12324:	000b0593          	mv	a1,s6
   12328:	000b8513          	mv	a0,s7
   1232c:	02d13c23          	sd	a3,56(sp)
   12330:	3a4090ef          	jal	ra,1b6d4 <__sprint_r>
   12334:	00050463          	beqz	a0,1233c <_vfprintf_r+0x1c84>
   12338:	df0fe06f          	j	10928 <_vfprintf_r+0x270>
   1233c:	07013783          	ld	a5,112(sp)
   12340:	000c0313          	mv	t1,s8
   12344:	00700813          	li	a6,7
   12348:	0007c603          	lbu	a2,0(a5)
   1234c:	03813683          	ld	a3,56(sp)
   12350:	12013783          	ld	a5,288(sp)
   12354:	00060c9b          	sext.w	s9,a2
   12358:	ed5ff06f          	j	1222c <_vfprintf_r+0x1b74>
   1235c:	001e8e9b          	addiw	t4,t4,1
   12360:	01078313          	addi	t1,a5,16
   12364:	00078493          	mv	s1,a5
   12368:	cd8ff06f          	j	11840 <_vfprintf_r+0x1188>
   1236c:	11010613          	addi	a2,sp,272
   12370:	000b0593          	mv	a1,s6
   12374:	000b8513          	mv	a0,s7
   12378:	35c090ef          	jal	ra,1b6d4 <__sprint_r>
   1237c:	00050463          	beqz	a0,12384 <_vfprintf_r+0x1ccc>
   12380:	da8fe06f          	j	10928 <_vfprintf_r+0x270>
   12384:	0e812583          	lw	a1,232(sp)
   12388:	12013783          	ld	a5,288(sp)
   1238c:	000c0313          	mv	t1,s8
   12390:	b35ff06f          	j	11ec4 <_vfprintf_r+0x180c>
   12394:	00010d17          	auipc	s10,0x10
   12398:	be4d0d13          	addi	s10,s10,-1052 # 21f78 <zeroes.4541+0x48>
   1239c:	c7dff06f          	j	12018 <_vfprintf_r+0x1960>
   123a0:	11010613          	addi	a2,sp,272
   123a4:	000b0593          	mv	a1,s6
   123a8:	000b8513          	mv	a0,s7
   123ac:	328090ef          	jal	ra,1b6d4 <__sprint_r>
   123b0:	00050463          	beqz	a0,123b8 <_vfprintf_r+0x1d00>
   123b4:	d74fe06f          	j	10928 <_vfprintf_r+0x270>
   123b8:	12013783          	ld	a5,288(sp)
   123bc:	000c0313          	mv	t1,s8
   123c0:	f1cff06f          	j	11adc <_vfprintf_r+0x1424>
   123c4:	08813783          	ld	a5,136(sp)
   123c8:	09813583          	ld	a1,152(sp)
   123cc:	02613c23          	sd	t1,56(sp)
   123d0:	40fd0d33          	sub	s10,s10,a5
   123d4:	00078613          	mv	a2,a5
   123d8:	000d0513          	mv	a0,s10
   123dc:	03d13023          	sd	t4,32(sp)
   123e0:	01013c23          	sd	a6,24(sp)
   123e4:	241060ef          	jal	ra,18e24 <strncpy>
   123e8:	07013703          	ld	a4,112(sp)
   123ec:	000a8513          	mv	a0,s5
   123f0:	00a00593          	li	a1,10
   123f4:	00174683          	lbu	a3,1(a4)
   123f8:	02013423          	sd	zero,40(sp)
   123fc:	00d037b3          	snez	a5,a3
   12400:	00f707b3          	add	a5,a4,a5
   12404:	06f13823          	sd	a5,112(sp)
   12408:	7700f0ef          	jal	ra,21b78 <__udivdi3>
   1240c:	01813803          	ld	a6,24(sp)
   12410:	02013e83          	ld	t4,32(sp)
   12414:	03813303          	ld	t1,56(sp)
   12418:	00050a93          	mv	s5,a0
   1241c:	b25ff06f          	j	11f40 <_vfprintf_r+0x1888>
   12420:	00600e93          	li	t4,6
   12424:	999ff06f          	j	11dbc <_vfprintf_r+0x1704>
   12428:	02813603          	ld	a2,40(sp)
   1242c:	00cd0733          	add	a4,s10,a2
   12430:	409708bb          	subw	a7,a4,s1
   12434:	40d6063b          	subw	a2,a2,a3
   12438:	00088493          	mv	s1,a7
   1243c:	01165463          	bge	a2,a7,12444 <_vfprintf_r+0x1d8c>
   12440:	00060493          	mv	s1,a2
   12444:	00048c9b          	sext.w	s9,s1
   12448:	f4cff06f          	j	11b94 <_vfprintf_r+0x14dc>
   1244c:	01013783          	ld	a5,16(sp)
   12450:	00040813          	mv	a6,s0
   12454:	00d13823          	sd	a3,16(sp)
   12458:	0007aa83          	lw	s5,0(a5)
   1245c:	000a8713          	mv	a4,s5
   12460:	ab1fe06f          	j	10f10 <_vfprintf_r+0x858>
   12464:	00813783          	ld	a5,8(sp)
   12468:	00090d13          	mv	s10,s2
   1246c:	00f71023          	sh	a5,0(a4)
   12470:	d2dfe06f          	j	1119c <_vfprintf_r+0xae4>
   12474:	02079a93          	slli	s5,a5,0x20
   12478:	020ada93          	srli	s5,s5,0x20
   1247c:	00d13823          	sd	a3,16(sp)
   12480:	00040813          	mv	a6,s0
   12484:	00100713          	li	a4,1
   12488:	d54fe06f          	j	109dc <_vfprintf_r+0x324>
   1248c:	02079a93          	slli	s5,a5,0x20
   12490:	020ada93          	srli	s5,s5,0x20
   12494:	00e13823          	sd	a4,16(sp)
   12498:	a21fe06f          	j	10eb8 <_vfprintf_r+0x800>
   1249c:	0df14783          	lbu	a5,223(sp)
   124a0:	c71ff06f          	j	12110 <_vfprintf_r+0x1a58>
   124a4:	03000793          	li	a5,48
   124a8:	0ef10023          	sb	a5,224(sp)
   124ac:	05800713          	li	a4,88
   124b0:	00246793          	ori	a5,s0,2
   124b4:	0007879b          	sext.w	a5,a5
   124b8:	0ee100a3          	sb	a4,225(sp)
   124bc:	06300693          	li	a3,99
   124c0:	0af13823          	sd	a5,176(sp)
   124c4:	02013023          	sd	zero,32(sp)
   124c8:	12810d13          	addi	s10,sp,296
   124cc:	67d6ca63          	blt	a3,t4,12b40 <_vfprintf_r+0x2488>
   124d0:	10813c83          	ld	s9,264(sp)
   124d4:	fdf4f793          	andi	a5,s1,-33
   124d8:	10246413          	ori	s0,s0,258
   124dc:	0af13423          	sd	a5,168(sp)
   124e0:	0c013423          	sd	zero,200(sp)
   124e4:	0004041b          	sext.w	s0,s0
   124e8:	10013f03          	ld	t5,256(sp)
   124ec:	380cca63          	bltz	s9,12880 <_vfprintf_r+0x21c8>
   124f0:	06100793          	li	a5,97
   124f4:	6ef48263          	beq	s1,a5,12bd8 <_vfprintf_r+0x2520>
   124f8:	04100793          	li	a5,65
   124fc:	00f48463          	beq	s1,a5,12504 <_vfprintf_r+0x1e4c>
   12500:	ed0fe06f          	j	10bd0 <_vfprintf_r+0x518>
   12504:	000f0513          	mv	a0,t5
   12508:	000c8593          	mv	a1,s9
   1250c:	02613c23          	sd	t1,56(sp)
   12510:	03d13423          	sd	t4,40(sp)
   12514:	3000f0ef          	jal	ra,21814 <__trunctfdf2>
   12518:	0e810593          	addi	a1,sp,232
   1251c:	320060ef          	jal	ra,1883c <frexp>
   12520:	1d40f0ef          	jal	ra,216f4 <__extenddftf2>
   12524:	00010797          	auipc	a5,0x10
   12528:	a3c78793          	addi	a5,a5,-1476 # 21f60 <zeroes.4541+0x30>
   1252c:	0087b683          	ld	a3,8(a5)
   12530:	00000613          	li	a2,0
   12534:	4d50d0ef          	jal	ra,20208 <__multf3>
   12538:	00000613          	li	a2,0
   1253c:	00000693          	li	a3,0
   12540:	00050c93          	mv	s9,a0
   12544:	00b13c23          	sd	a1,24(sp)
   12548:	2190d0ef          	jal	ra,1ff60 <__eqtf2>
   1254c:	01813f83          	ld	t6,24(sp)
   12550:	02813e83          	ld	t4,40(sp)
   12554:	03813303          	ld	t1,56(sp)
   12558:	00051663          	bnez	a0,12564 <_vfprintf_r+0x1eac>
   1255c:	00100793          	li	a5,1
   12560:	0ef12423          	sw	a5,232(sp)
   12564:	00010797          	auipc	a5,0x10
   12568:	a4478793          	addi	a5,a5,-1468 # 21fa8 <zeroes.4541+0x78>
   1256c:	06f13023          	sd	a5,96(sp)
   12570:	000e869b          	sext.w	a3,t4
   12574:	02069793          	slli	a5,a3,0x20
   12578:	0207d793          	srli	a5,a5,0x20
   1257c:	00178793          	addi	a5,a5,1
   12580:	00fd07b3          	add	a5,s10,a5
   12584:	0af13023          	sd	a5,160(sp)
   12588:	00dd07bb          	addw	a5,s10,a3
   1258c:	0af12e23          	sw	a5,188(sp)
   12590:	00010797          	auipc	a5,0x10
   12594:	9b078793          	addi	a5,a5,-1616 # 21f40 <zeroes.4541+0x10>
   12598:	0087b783          	ld	a5,8(a5)
   1259c:	01a13c23          	sd	s10,24(sp)
   125a0:	0cf13023          	sd	a5,192(sp)
   125a4:	0380006f          	j	125dc <_vfprintf_r+0x1f24>
   125a8:	00000613          	li	a2,0
   125ac:	00000693          	li	a3,0
   125b0:	04b13c23          	sd	a1,88(sp)
   125b4:	04a13823          	sd	a0,80(sp)
   125b8:	1a90d0ef          	jal	ra,1ff60 <__eqtf2>
   125bc:	03813e83          	ld	t4,56(sp)
   125c0:	04013303          	ld	t1,64(sp)
   125c4:	05013883          	ld	a7,80(sp)
   125c8:	05813803          	ld	a6,88(sp)
   125cc:	02813783          	ld	a5,40(sp)
   125d0:	04813f83          	ld	t6,72(sp)
   125d4:	0a050463          	beqz	a0,1267c <_vfprintf_r+0x1fc4>
   125d8:	00f13c23          	sd	a5,24(sp)
   125dc:	0c013683          	ld	a3,192(sp)
   125e0:	00000613          	li	a2,0
   125e4:	000f8593          	mv	a1,t6
   125e8:	000c8513          	mv	a0,s9
   125ec:	04613023          	sd	t1,64(sp)
   125f0:	03d13c23          	sd	t4,56(sp)
   125f4:	4150d0ef          	jal	ra,20208 <__multf3>
   125f8:	00058c93          	mv	s9,a1
   125fc:	02a13423          	sd	a0,40(sp)
   12600:	7910e0ef          	jal	ra,21590 <__fixtfsi>
   12604:	00050a9b          	sext.w	s5,a0
   12608:	000a8513          	mv	a0,s5
   1260c:	0580f0ef          	jal	ra,21664 <__floatsitf>
   12610:	02813803          	ld	a6,40(sp)
   12614:	00058693          	mv	a3,a1
   12618:	00050613          	mv	a2,a0
   1261c:	000c8593          	mv	a1,s9
   12620:	00080513          	mv	a0,a6
   12624:	4d40e0ef          	jal	ra,20af8 <__subtf3>
   12628:	06013783          	ld	a5,96(sp)
   1262c:	0bc12703          	lw	a4,188(sp)
   12630:	04b13423          	sd	a1,72(sp)
   12634:	015787b3          	add	a5,a5,s5
   12638:	0007c683          	lbu	a3,0(a5)
   1263c:	01813783          	ld	a5,24(sp)
   12640:	00050893          	mv	a7,a0
   12644:	00058813          	mv	a6,a1
   12648:	00d78023          	sb	a3,0(a5)
   1264c:	00178793          	addi	a5,a5,1
   12650:	40f7073b          	subw	a4,a4,a5
   12654:	06e13423          	sd	a4,104(sp)
   12658:	0a013703          	ld	a4,160(sp)
   1265c:	02f13423          	sd	a5,40(sp)
   12660:	00050c93          	mv	s9,a0
   12664:	03813e83          	ld	t4,56(sp)
   12668:	04013303          	ld	t1,64(sp)
   1266c:	f2e79ee3          	bne	a5,a4,125a8 <_vfprintf_r+0x1ef0>
   12670:	0a013783          	ld	a5,160(sp)
   12674:	fff00713          	li	a4,-1
   12678:	06e13423          	sd	a4,104(sp)
   1267c:	00010697          	auipc	a3,0x10
   12680:	8d468693          	addi	a3,a3,-1836 # 21f50 <zeroes.4541+0x20>
   12684:	04f13423          	sd	a5,72(sp)
   12688:	0086b783          	ld	a5,8(a3)
   1268c:	00000613          	li	a2,0
   12690:	00088513          	mv	a0,a7
   12694:	00078693          	mv	a3,a5
   12698:	00080593          	mv	a1,a6
   1269c:	04613023          	sd	t1,64(sp)
   126a0:	03d13c23          	sd	t4,56(sp)
   126a4:	02f13423          	sd	a5,40(sp)
   126a8:	05113c23          	sd	a7,88(sp)
   126ac:	05013823          	sd	a6,80(sp)
   126b0:	1890d0ef          	jal	ra,20038 <__getf2>
   126b4:	03813e83          	ld	t4,56(sp)
   126b8:	04013303          	ld	t1,64(sp)
   126bc:	04813783          	ld	a5,72(sp)
   126c0:	40a04863          	bgtz	a0,12ad0 <_vfprintf_r+0x2418>
   126c4:	05813883          	ld	a7,88(sp)
   126c8:	05013803          	ld	a6,80(sp)
   126cc:	02813683          	ld	a3,40(sp)
   126d0:	00000613          	li	a2,0
   126d4:	00088513          	mv	a0,a7
   126d8:	00080593          	mv	a1,a6
   126dc:	0850d0ef          	jal	ra,1ff60 <__eqtf2>
   126e0:	03813e83          	ld	t4,56(sp)
   126e4:	04013303          	ld	t1,64(sp)
   126e8:	04813783          	ld	a5,72(sp)
   126ec:	00051663          	bnez	a0,126f8 <_vfprintf_r+0x2040>
   126f0:	001afa93          	andi	s5,s5,1
   126f4:	3c0a9e63          	bnez	s5,12ad0 <_vfprintf_r+0x2418>
   126f8:	06813703          	ld	a4,104(sp)
   126fc:	03000613          	li	a2,48
   12700:	00170693          	addi	a3,a4,1
   12704:	00d786b3          	add	a3,a5,a3
   12708:	00075463          	bgez	a4,12710 <_vfprintf_r+0x2058>
   1270c:	d48fe06f          	j	10c54 <_vfprintf_r+0x59c>
   12710:	00178793          	addi	a5,a5,1
   12714:	fec78fa3          	sb	a2,-1(a5)
   12718:	fef69ce3          	bne	a3,a5,12710 <_vfprintf_r+0x2058>
   1271c:	d38fe06f          	j	10c54 <_vfprintf_r+0x59c>
   12720:	00040813          	mv	a6,s0
   12724:	d5dfe06f          	j	11480 <_vfprintf_r+0xdc8>
   12728:	02813703          	ld	a4,40(sp)
   1272c:	00ed06b3          	add	a3,s10,a4
   12730:	bc96fa63          	bgeu	a3,s1,11b04 <_vfprintf_r+0x144c>
   12734:	00068493          	mv	s1,a3
   12738:	bccff06f          	j	11b04 <_vfprintf_r+0x144c>
   1273c:	06013703          	ld	a4,96(sp)
   12740:	ffd00793          	li	a5,-3
   12744:	00f74463          	blt	a4,a5,1274c <_vfprintf_r+0x2094>
   12748:	0ceed263          	bge	t4,a4,1280c <_vfprintf_r+0x2154>
   1274c:	ffe4849b          	addiw	s1,s1,-2
   12750:	fdf4f793          	andi	a5,s1,-33
   12754:	0af13423          	sd	a5,168(sp)
   12758:	d2cfe06f          	j	10c84 <_vfprintf_r+0x5cc>
   1275c:	0e810793          	addi	a5,sp,232
   12760:	000e8713          	mv	a4,t4
   12764:	00300693          	li	a3,3
   12768:	000f0593          	mv	a1,t5
   1276c:	0f810893          	addi	a7,sp,248
   12770:	0ec10813          	addi	a6,sp,236
   12774:	000c8613          	mv	a2,s9
   12778:	000b8513          	mv	a0,s7
   1277c:	02613c23          	sd	t1,56(sp)
   12780:	03d13423          	sd	t4,40(sp)
   12784:	01e13c23          	sd	t5,24(sp)
   12788:	721020ef          	jal	ra,156a8 <_ldtoa_r>
   1278c:	00054683          	lbu	a3,0(a0)
   12790:	03000793          	li	a5,48
   12794:	00050d13          	mv	s10,a0
   12798:	01813f03          	ld	t5,24(sp)
   1279c:	02813e83          	ld	t4,40(sp)
   127a0:	03813303          	ld	t1,56(sp)
   127a4:	12f68463          	beq	a3,a5,128cc <_vfprintf_r+0x2214>
   127a8:	0e812783          	lw	a5,232(sp)
   127ac:	01d787b3          	add	a5,a5,t4
   127b0:	00fd0ab3          	add	s5,s10,a5
   127b4:	00000613          	li	a2,0
   127b8:	00000693          	li	a3,0
   127bc:	000f0513          	mv	a0,t5
   127c0:	000c8593          	mv	a1,s9
   127c4:	02613423          	sd	t1,40(sp)
   127c8:	01d13c23          	sd	t4,24(sp)
   127cc:	7940d0ef          	jal	ra,1ff60 <__eqtf2>
   127d0:	000a8793          	mv	a5,s5
   127d4:	01813e83          	ld	t4,24(sp)
   127d8:	02813303          	ld	t1,40(sp)
   127dc:	00051463          	bnez	a0,127e4 <_vfprintf_r+0x212c>
   127e0:	c74fe06f          	j	10c54 <_vfprintf_r+0x59c>
   127e4:	0f813783          	ld	a5,248(sp)
   127e8:	03000613          	li	a2,48
   127ec:	0157e463          	bltu	a5,s5,127f4 <_vfprintf_r+0x213c>
   127f0:	c64fe06f          	j	10c54 <_vfprintf_r+0x59c>
   127f4:	00178693          	addi	a3,a5,1
   127f8:	0ed13c23          	sd	a3,248(sp)
   127fc:	00c78023          	sb	a2,0(a5)
   12800:	0f813783          	ld	a5,248(sp)
   12804:	ff57e8e3          	bltu	a5,s5,127f4 <_vfprintf_r+0x213c>
   12808:	c4cfe06f          	j	10c54 <_vfprintf_r+0x59c>
   1280c:	02813783          	ld	a5,40(sp)
   12810:	06013703          	ld	a4,96(sp)
   12814:	1cf74663          	blt	a4,a5,129e0 <_vfprintf_r+0x2328>
   12818:	0b013783          	ld	a5,176(sp)
   1281c:	00070c93          	mv	s9,a4
   12820:	0017f793          	andi	a5,a5,1
   12824:	00078663          	beqz	a5,12830 <_vfprintf_r+0x2178>
   12828:	07813783          	ld	a5,120(sp)
   1282c:	00e78cbb          	addw	s9,a5,a4
   12830:	0b013783          	ld	a5,176(sp)
   12834:	4007f793          	andi	a5,a5,1024
   12838:	00078663          	beqz	a5,12844 <_vfprintf_r+0x218c>
   1283c:	06013783          	ld	a5,96(sp)
   12840:	42f04c63          	bgtz	a5,12c78 <_vfprintf_r+0x25c0>
   12844:	fffcca93          	not	s5,s9
   12848:	43fada93          	srai	s5,s5,0x3f
   1284c:	015cfab3          	and	s5,s9,s5
   12850:	000a8a9b          	sext.w	s5,s5
   12854:	06700493          	li	s1,103
   12858:	04013c23          	sd	zero,88(sp)
   1285c:	06013423          	sd	zero,104(sp)
   12860:	d68fe06f          	j	10dc8 <_vfprintf_r+0x710>
   12864:	0df14783          	lbu	a5,223(sp)
   12868:	00000e93          	li	t4,0
   1286c:	00078463          	beqz	a5,12874 <_vfprintf_r+0x21bc>
   12870:	9c4fe06f          	j	10a34 <_vfprintf_r+0x37c>
   12874:	805fe06f          	j	11078 <_vfprintf_r+0x9c0>
   12878:	02013023          	sd	zero,32(sp)
   1287c:	00078413          	mv	s0,a5
   12880:	fff00793          	li	a5,-1
   12884:	03f79793          	slli	a5,a5,0x3f
   12888:	00fcccb3          	xor	s9,s9,a5
   1288c:	02d00793          	li	a5,45
   12890:	0cf13423          	sd	a5,200(sp)
   12894:	c5dff06f          	j	124f0 <_vfprintf_r+0x1e38>
   12898:	11010613          	addi	a2,sp,272
   1289c:	000b0593          	mv	a1,s6
   128a0:	000b8513          	mv	a0,s7
   128a4:	631080ef          	jal	ra,1b6d4 <__sprint_r>
   128a8:	00050463          	beqz	a0,128b0 <_vfprintf_r+0x21f8>
   128ac:	87cfe06f          	j	10928 <_vfprintf_r+0x270>
   128b0:	07013783          	ld	a5,112(sp)
   128b4:	000c0313          	mv	t1,s8
   128b8:	00700813          	li	a6,7
   128bc:	0007c603          	lbu	a2,0(a5)
   128c0:	12013783          	ld	a5,288(sp)
   128c4:	00c484b3          	add	s1,s1,a2
   128c8:	97dff06f          	j	12244 <_vfprintf_r+0x1b8c>
   128cc:	000f0513          	mv	a0,t5
   128d0:	00000613          	li	a2,0
   128d4:	00000693          	li	a3,0
   128d8:	000c8593          	mv	a1,s9
   128dc:	02613c23          	sd	t1,56(sp)
   128e0:	03d13423          	sd	t4,40(sp)
   128e4:	01e13c23          	sd	t5,24(sp)
   128e8:	6780d0ef          	jal	ra,1ff60 <__eqtf2>
   128ec:	01813f03          	ld	t5,24(sp)
   128f0:	02813e83          	ld	t4,40(sp)
   128f4:	03813303          	ld	t1,56(sp)
   128f8:	ea0508e3          	beqz	a0,127a8 <_vfprintf_r+0x20f0>
   128fc:	00100693          	li	a3,1
   12900:	41d687bb          	subw	a5,a3,t4
   12904:	0ef12423          	sw	a5,232(sp)
   12908:	ea5ff06f          	j	127ac <_vfprintf_r+0x20f4>
   1290c:	02d00793          	li	a5,45
   12910:	0cf10fa3          	sb	a5,223(sp)
   12914:	ef4ff06f          	j	12008 <_vfprintf_r+0x1950>
   12918:	11010613          	addi	a2,sp,272
   1291c:	000b0593          	mv	a1,s6
   12920:	000b8513          	mv	a0,s7
   12924:	5b1080ef          	jal	ra,1b6d4 <__sprint_r>
   12928:	00050463          	beqz	a0,12930 <_vfprintf_r+0x2278>
   1292c:	ffdfd06f          	j	10928 <_vfprintf_r+0x270>
   12930:	0e812683          	lw	a3,232(sp)
   12934:	12013783          	ld	a5,288(sp)
   12938:	000c0313          	mv	t1,s8
   1293c:	a0cff06f          	j	11b48 <_vfprintf_r+0x1490>
   12940:	0df14783          	lbu	a5,223(sp)
   12944:	00d13823          	sd	a3,16(sp)
   12948:	04013c23          	sd	zero,88(sp)
   1294c:	06013423          	sd	zero,104(sp)
   12950:	06013023          	sd	zero,96(sp)
   12954:	000e8a93          	mv	s5,t4
   12958:	000e8c93          	mv	s9,t4
   1295c:	00000e93          	li	t4,0
   12960:	00078463          	beqz	a5,12968 <_vfprintf_r+0x22b0>
   12964:	8d0fe06f          	j	10a34 <_vfprintf_r+0x37c>
   12968:	f10fe06f          	j	11078 <_vfprintf_r+0x9c0>
   1296c:	11010613          	addi	a2,sp,272
   12970:	000b0593          	mv	a1,s6
   12974:	000b8513          	mv	a0,s7
   12978:	55d080ef          	jal	ra,1b6d4 <__sprint_r>
   1297c:	00050463          	beqz	a0,12984 <_vfprintf_r+0x22cc>
   12980:	fa9fd06f          	j	10928 <_vfprintf_r+0x270>
   12984:	0e812603          	lw	a2,232(sp)
   12988:	02813703          	ld	a4,40(sp)
   1298c:	12013783          	ld	a5,288(sp)
   12990:	000c0313          	mv	t1,s8
   12994:	40c7063b          	subw	a2,a4,a2
   12998:	9fcff06f          	j	11b94 <_vfprintf_r+0x14dc>
   1299c:	0b013783          	ld	a5,176(sp)
   129a0:	06013703          	ld	a4,96(sp)
   129a4:	0017f793          	andi	a5,a5,1
   129a8:	00fee7b3          	or	a5,t4,a5
   129ac:	0007879b          	sext.w	a5,a5
   129b0:	38e05863          	blez	a4,12d40 <_vfprintf_r+0x2688>
   129b4:	36079263          	bnez	a5,12d18 <_vfprintf_r+0x2660>
   129b8:	06013c83          	ld	s9,96(sp)
   129bc:	06600493          	li	s1,102
   129c0:	0b013783          	ld	a5,176(sp)
   129c4:	4007f793          	andi	a5,a5,1024
   129c8:	2a079a63          	bnez	a5,12c7c <_vfprintf_r+0x25c4>
   129cc:	fffcca93          	not	s5,s9
   129d0:	43fada93          	srai	s5,s5,0x3f
   129d4:	015cfab3          	and	s5,s9,s5
   129d8:	000a8a9b          	sext.w	s5,s5
   129dc:	e7dff06f          	j	12858 <_vfprintf_r+0x21a0>
   129e0:	02813703          	ld	a4,40(sp)
   129e4:	07813783          	ld	a5,120(sp)
   129e8:	06700493          	li	s1,103
   129ec:	00e78cbb          	addw	s9,a5,a4
   129f0:	06013703          	ld	a4,96(sp)
   129f4:	fce046e3          	bgtz	a4,129c0 <_vfprintf_r+0x2308>
   129f8:	40ec87bb          	subw	a5,s9,a4
   129fc:	0017879b          	addiw	a5,a5,1
   12a00:	00078c9b          	sext.w	s9,a5
   12a04:	fffcca93          	not	s5,s9
   12a08:	43fada93          	srai	s5,s5,0x3f
   12a0c:	0157f7b3          	and	a5,a5,s5
   12a10:	00078a9b          	sext.w	s5,a5
   12a14:	e45ff06f          	j	12858 <_vfprintf_r+0x21a0>
   12a18:	ff000613          	li	a2,-16
   12a1c:	40b004bb          	negw	s1,a1
   12a20:	06c5d463          	bge	a1,a2,12a88 <_vfprintf_r+0x23d0>
   12a24:	00700c93          	li	s9,7
   12a28:	00c0006f          	j	12a34 <_vfprintf_r+0x237c>
   12a2c:	ff04849b          	addiw	s1,s1,-16
   12a30:	049ddc63          	bge	s11,s1,12a88 <_vfprintf_r+0x23d0>
   12a34:	0016869b          	addiw	a3,a3,1
   12a38:	01078793          	addi	a5,a5,16
   12a3c:	01333023          	sd	s3,0(t1)
   12a40:	01b33423          	sd	s11,8(t1)
   12a44:	12f13023          	sd	a5,288(sp)
   12a48:	10d12c23          	sw	a3,280(sp)
   12a4c:	01030313          	addi	t1,t1,16
   12a50:	fcdcdee3          	bge	s9,a3,12a2c <_vfprintf_r+0x2374>
   12a54:	11010613          	addi	a2,sp,272
   12a58:	000b0593          	mv	a1,s6
   12a5c:	000b8513          	mv	a0,s7
   12a60:	475080ef          	jal	ra,1b6d4 <__sprint_r>
   12a64:	00050463          	beqz	a0,12a6c <_vfprintf_r+0x23b4>
   12a68:	ec1fd06f          	j	10928 <_vfprintf_r+0x270>
   12a6c:	12013783          	ld	a5,288(sp)
   12a70:	11812683          	lw	a3,280(sp)
   12a74:	000c0313          	mv	t1,s8
   12a78:	fb5ff06f          	j	12a2c <_vfprintf_r+0x2374>
   12a7c:	fff00793          	li	a5,-1
   12a80:	00f13423          	sd	a5,8(sp)
   12a84:	ec9fd06f          	j	1094c <_vfprintf_r+0x294>
   12a88:	0016869b          	addiw	a3,a3,1
   12a8c:	009787b3          	add	a5,a5,s1
   12a90:	01333023          	sd	s3,0(t1)
   12a94:	00933423          	sd	s1,8(t1)
   12a98:	12f13023          	sd	a5,288(sp)
   12a9c:	10d12c23          	sw	a3,280(sp)
   12aa0:	00700613          	li	a2,7
   12aa4:	c6d65063          	bge	a2,a3,11f04 <_vfprintf_r+0x184c>
   12aa8:	11010613          	addi	a2,sp,272
   12aac:	000b0593          	mv	a1,s6
   12ab0:	000b8513          	mv	a0,s7
   12ab4:	421080ef          	jal	ra,1b6d4 <__sprint_r>
   12ab8:	00050463          	beqz	a0,12ac0 <_vfprintf_r+0x2408>
   12abc:	e6dfd06f          	j	10928 <_vfprintf_r+0x270>
   12ac0:	12013783          	ld	a5,288(sp)
   12ac4:	11812683          	lw	a3,280(sp)
   12ac8:	000c0313          	mv	t1,s8
   12acc:	f88fe06f          	j	11254 <_vfprintf_r+0xb9c>
   12ad0:	01813703          	ld	a4,24(sp)
   12ad4:	00078693          	mv	a3,a5
   12ad8:	0ee13c23          	sd	a4,248(sp)
   12adc:	06013703          	ld	a4,96(sp)
   12ae0:	fff7c603          	lbu	a2,-1(a5)
   12ae4:	00f74583          	lbu	a1,15(a4)
   12ae8:	02c59063          	bne	a1,a2,12b08 <_vfprintf_r+0x2450>
   12aec:	03000513          	li	a0,48
   12af0:	fea68fa3          	sb	a0,-1(a3)
   12af4:	0f813683          	ld	a3,248(sp)
   12af8:	fff68613          	addi	a2,a3,-1
   12afc:	0ec13c23          	sd	a2,248(sp)
   12b00:	fff6c603          	lbu	a2,-1(a3)
   12b04:	fec586e3          	beq	a1,a2,12af0 <_vfprintf_r+0x2438>
   12b08:	0016059b          	addiw	a1,a2,1
   12b0c:	03900513          	li	a0,57
   12b10:	0ff5f593          	andi	a1,a1,255
   12b14:	00a60663          	beq	a2,a0,12b20 <_vfprintf_r+0x2468>
   12b18:	feb68fa3          	sb	a1,-1(a3)
   12b1c:	938fe06f          	j	10c54 <_vfprintf_r+0x59c>
   12b20:	06013703          	ld	a4,96(sp)
   12b24:	00a74583          	lbu	a1,10(a4)
   12b28:	feb68fa3          	sb	a1,-1(a3)
   12b2c:	928fe06f          	j	10c54 <_vfprintf_r+0x59c>
   12b30:	03000793          	li	a5,48
   12b34:	0ef10023          	sb	a5,224(sp)
   12b38:	07800713          	li	a4,120
   12b3c:	975ff06f          	j	124b0 <_vfprintf_r+0x1df8>
   12b40:	001e859b          	addiw	a1,t4,1
   12b44:	000b8513          	mv	a0,s7
   12b48:	02613023          	sd	t1,32(sp)
   12b4c:	01d13c23          	sd	t4,24(sp)
   12b50:	164040ef          	jal	ra,16cb4 <_malloc_r>
   12b54:	00050d13          	mv	s10,a0
   12b58:	01813e83          	ld	t4,24(sp)
   12b5c:	02013303          	ld	t1,32(sp)
   12b60:	26050063          	beqz	a0,12dc0 <_vfprintf_r+0x2708>
   12b64:	02a13023          	sd	a0,32(sp)
   12b68:	969ff06f          	j	124d0 <_vfprintf_r+0x1e18>
   12b6c:	001e8a9b          	addiw	s5,t4,1
   12b70:	000a8713          	mv	a4,s5
   12b74:	000f0593          	mv	a1,t5
   12b78:	0f810893          	addi	a7,sp,248
   12b7c:	0ec10813          	addi	a6,sp,236
   12b80:	0e810793          	addi	a5,sp,232
   12b84:	00200693          	li	a3,2
   12b88:	000c8613          	mv	a2,s9
   12b8c:	000b8513          	mv	a0,s7
   12b90:	03d13423          	sd	t4,40(sp)
   12b94:	01e13c23          	sd	t5,24(sp)
   12b98:	311020ef          	jal	ra,156a8 <_ldtoa_r>
   12b9c:	00050d13          	mv	s10,a0
   12ba0:	01813f03          	ld	t5,24(sp)
   12ba4:	02813e83          	ld	t4,40(sp)
   12ba8:	03813303          	ld	t1,56(sp)
   12bac:	015d0ab3          	add	s5,s10,s5
   12bb0:	c05ff06f          	j	127b4 <_vfprintf_r+0x20fc>
   12bb4:	00f72023          	sw	a5,0(a4)
   12bb8:	00090d13          	mv	s10,s2
   12bbc:	de0fe06f          	j	1119c <_vfprintf_r+0xae4>
   12bc0:	000e8463          	beqz	t4,12bc8 <_vfprintf_r+0x2510>
   12bc4:	fe5fd06f          	j	10ba8 <_vfprintf_r+0x4f0>
   12bc8:	00100e93          	li	t4,1
   12bcc:	fddfd06f          	j	10ba8 <_vfprintf_r+0x4f0>
   12bd0:	00600e93          	li	t4,6
   12bd4:	fd5fd06f          	j	10ba8 <_vfprintf_r+0x4f0>
   12bd8:	000f0513          	mv	a0,t5
   12bdc:	000c8593          	mv	a1,s9
   12be0:	02613c23          	sd	t1,56(sp)
   12be4:	03d13423          	sd	t4,40(sp)
   12be8:	42d0e0ef          	jal	ra,21814 <__trunctfdf2>
   12bec:	0e810593          	addi	a1,sp,232
   12bf0:	44d050ef          	jal	ra,1883c <frexp>
   12bf4:	3010e0ef          	jal	ra,216f4 <__extenddftf2>
   12bf8:	0000f797          	auipc	a5,0xf
   12bfc:	36878793          	addi	a5,a5,872 # 21f60 <zeroes.4541+0x30>
   12c00:	0087b683          	ld	a3,8(a5)
   12c04:	00000613          	li	a2,0
   12c08:	6000d0ef          	jal	ra,20208 <__multf3>
   12c0c:	00000613          	li	a2,0
   12c10:	00000693          	li	a3,0
   12c14:	00050c93          	mv	s9,a0
   12c18:	00b13c23          	sd	a1,24(sp)
   12c1c:	3440d0ef          	jal	ra,1ff60 <__eqtf2>
   12c20:	01813f83          	ld	t6,24(sp)
   12c24:	02813e83          	ld	t4,40(sp)
   12c28:	03813303          	ld	t1,56(sp)
   12c2c:	00051663          	bnez	a0,12c38 <_vfprintf_r+0x2580>
   12c30:	00100793          	li	a5,1
   12c34:	0ef12423          	sw	a5,232(sp)
   12c38:	0000f797          	auipc	a5,0xf
   12c3c:	35878793          	addi	a5,a5,856 # 21f90 <zeroes.4541+0x60>
   12c40:	06f13023          	sd	a5,96(sp)
   12c44:	92dff06f          	j	12570 <_vfprintf_r+0x1eb8>
   12c48:	0f210693          	addi	a3,sp,242
   12c4c:	00061863          	bnez	a2,12c5c <_vfprintf_r+0x25a4>
   12c50:	03000793          	li	a5,48
   12c54:	0ef10923          	sb	a5,242(sp)
   12c58:	0f310693          	addi	a3,sp,243
   12c5c:	21010713          	addi	a4,sp,528
   12c60:	030a879b          	addiw	a5,s5,48
   12c64:	40e68633          	sub	a2,a3,a4
   12c68:	00f68023          	sb	a5,0(a3)
   12c6c:	1216079b          	addiw	a5,a2,289
   12c70:	08f13823          	sd	a5,144(sp)
   12c74:	904fe06f          	j	10d78 <_vfprintf_r+0x6c0>
   12c78:	06700493          	li	s1,103
   12c7c:	07013783          	ld	a5,112(sp)
   12c80:	04013c23          	sd	zero,88(sp)
   12c84:	06013423          	sd	zero,104(sp)
   12c88:	0007c783          	lbu	a5,0(a5)
   12c8c:	0ff00593          	li	a1,255
   12c90:	04b78863          	beq	a5,a1,12ce0 <_vfprintf_r+0x2628>
   12c94:	06013703          	ld	a4,96(sp)
   12c98:	0007869b          	sext.w	a3,a5
   12c9c:	04e6d263          	bge	a3,a4,12ce0 <_vfprintf_r+0x2628>
   12ca0:	07013503          	ld	a0,112(sp)
   12ca4:	40d7073b          	subw	a4,a4,a3
   12ca8:	06e13023          	sd	a4,96(sp)
   12cac:	00154603          	lbu	a2,1(a0)
   12cb0:	02060063          	beqz	a2,12cd0 <_vfprintf_r+0x2618>
   12cb4:	06813783          	ld	a5,104(sp)
   12cb8:	0017879b          	addiw	a5,a5,1
   12cbc:	06f13423          	sd	a5,104(sp)
   12cc0:	00150793          	addi	a5,a0,1
   12cc4:	06f13823          	sd	a5,112(sp)
   12cc8:	00060793          	mv	a5,a2
   12ccc:	fc5ff06f          	j	12c90 <_vfprintf_r+0x25d8>
   12cd0:	05813703          	ld	a4,88(sp)
   12cd4:	0017071b          	addiw	a4,a4,1
   12cd8:	04e13c23          	sd	a4,88(sp)
   12cdc:	fb5ff06f          	j	12c90 <_vfprintf_r+0x25d8>
   12ce0:	06813783          	ld	a5,104(sp)
   12ce4:	05813703          	ld	a4,88(sp)
   12ce8:	08813583          	ld	a1,136(sp)
   12cec:	00613c23          	sd	t1,24(sp)
   12cf0:	00e7853b          	addw	a0,a5,a4
   12cf4:	6190e0ef          	jal	ra,21b0c <__muldi3>
   12cf8:	0195053b          	addw	a0,a0,s9
   12cfc:	00050c9b          	sext.w	s9,a0
   12d00:	fffcca93          	not	s5,s9
   12d04:	43fada93          	srai	s5,s5,0x3f
   12d08:	01557533          	and	a0,a0,s5
   12d0c:	00050a9b          	sext.w	s5,a0
   12d10:	01813303          	ld	t1,24(sp)
   12d14:	8b4fe06f          	j	10dc8 <_vfprintf_r+0x710>
   12d18:	07813783          	ld	a5,120(sp)
   12d1c:	06600493          	li	s1,102
   12d20:	00e78cbb          	addw	s9,a5,a4
   12d24:	01dc8cbb          	addw	s9,s9,t4
   12d28:	c99ff06f          	j	129c0 <_vfprintf_r+0x2308>
   12d2c:	0b013703          	ld	a4,176(sp)
   12d30:	00177693          	andi	a3,a4,1
   12d34:	00069463          	bnez	a3,12d3c <_vfprintf_r+0x2684>
   12d38:	864fe06f          	j	10d9c <_vfprintf_r+0x6e4>
   12d3c:	858fe06f          	j	10d94 <_vfprintf_r+0x6dc>
   12d40:	00079a63          	bnez	a5,12d54 <_vfprintf_r+0x269c>
   12d44:	00100a93          	li	s5,1
   12d48:	06600493          	li	s1,102
   12d4c:	00100c93          	li	s9,1
   12d50:	b09ff06f          	j	12858 <_vfprintf_r+0x21a0>
   12d54:	07813783          	ld	a5,120(sp)
   12d58:	06600493          	li	s1,102
   12d5c:	0017879b          	addiw	a5,a5,1
   12d60:	01d78ebb          	addw	t4,a5,t4
   12d64:	000e8c9b          	sext.w	s9,t4
   12d68:	fffcca93          	not	s5,s9
   12d6c:	43fada93          	srai	s5,s5,0x3f
   12d70:	015efeb3          	and	t4,t4,s5
   12d74:	000e8a9b          	sext.w	s5,t4
   12d78:	ae1ff06f          	j	12858 <_vfprintf_r+0x21a0>
   12d7c:	00030793          	mv	a5,t1
   12d80:	f99fe06f          	j	11d18 <_vfprintf_r+0x1660>
   12d84:	01013703          	ld	a4,16(sp)
   12d88:	00072e83          	lw	t4,0(a4)
   12d8c:	00870693          	addi	a3,a4,8
   12d90:	000ed463          	bgez	t4,12d98 <_vfprintf_r+0x26e0>
   12d94:	fff00e93          	li	t4,-1
   12d98:	00194483          	lbu	s1,1(s2)
   12d9c:	00d13823          	sd	a3,16(sp)
   12da0:	00078913          	mv	s2,a5
   12da4:	ab9fd06f          	j	1085c <_vfprintf_r+0x1a4>
   12da8:	000e8a93          	mv	s5,t4
   12dac:	015d0ab3          	add	s5,s10,s5
   12db0:	a05ff06f          	j	127b4 <_vfprintf_r+0x20fc>
   12db4:	00200793          	li	a5,2
   12db8:	08f13823          	sd	a5,144(sp)
   12dbc:	fbdfd06f          	j	10d78 <_vfprintf_r+0x6c0>
   12dc0:	010b5783          	lhu	a5,16(s6)
   12dc4:	0407e793          	ori	a5,a5,64
   12dc8:	00fb1823          	sh	a5,16(s6)
   12dcc:	b71fd06f          	j	1093c <_vfprintf_r+0x284>

0000000000012dd0 <vfprintf>:
   12dd0:	75818793          	addi	a5,gp,1880 # 24b78 <_impure_ptr>
   12dd4:	00060693          	mv	a3,a2
   12dd8:	00058613          	mv	a2,a1
   12ddc:	00050593          	mv	a1,a0
   12de0:	0007b503          	ld	a0,0(a5)
   12de4:	8d5fd06f          	j	106b8 <_vfprintf_r>

0000000000012de8 <__sbprintf>:
   12de8:	0105d783          	lhu	a5,16(a1)
   12dec:	0ac5ae03          	lw	t3,172(a1)
   12df0:	0125d303          	lhu	t1,18(a1)
   12df4:	0305b883          	ld	a7,48(a1)
   12df8:	0405b803          	ld	a6,64(a1)
   12dfc:	b3010113          	addi	sp,sp,-1232
   12e00:	ffd7f793          	andi	a5,a5,-3
   12e04:	40000713          	li	a4,1024
   12e08:	4c813023          	sd	s0,1216(sp)
   12e0c:	00f11823          	sh	a5,16(sp)
   12e10:	00058413          	mv	s0,a1
   12e14:	0b010793          	addi	a5,sp,176
   12e18:	00010593          	mv	a1,sp
   12e1c:	4a913c23          	sd	s1,1208(sp)
   12e20:	4b213823          	sd	s2,1200(sp)
   12e24:	4c113423          	sd	ra,1224(sp)
   12e28:	00050913          	mv	s2,a0
   12e2c:	0bc12623          	sw	t3,172(sp)
   12e30:	00611923          	sh	t1,18(sp)
   12e34:	03113823          	sd	a7,48(sp)
   12e38:	05013023          	sd	a6,64(sp)
   12e3c:	00f13023          	sd	a5,0(sp)
   12e40:	00f13c23          	sd	a5,24(sp)
   12e44:	00e12623          	sw	a4,12(sp)
   12e48:	02e12023          	sw	a4,32(sp)
   12e4c:	02012423          	sw	zero,40(sp)
   12e50:	869fd0ef          	jal	ra,106b8 <_vfprintf_r>
   12e54:	00050493          	mv	s1,a0
   12e58:	02055c63          	bgez	a0,12e90 <__sbprintf+0xa8>
   12e5c:	01015783          	lhu	a5,16(sp)
   12e60:	0407f793          	andi	a5,a5,64
   12e64:	00078863          	beqz	a5,12e74 <__sbprintf+0x8c>
   12e68:	01045783          	lhu	a5,16(s0)
   12e6c:	0407e793          	ori	a5,a5,64
   12e70:	00f41823          	sh	a5,16(s0)
   12e74:	4c813083          	ld	ra,1224(sp)
   12e78:	4c013403          	ld	s0,1216(sp)
   12e7c:	00048513          	mv	a0,s1
   12e80:	4b013903          	ld	s2,1200(sp)
   12e84:	4b813483          	ld	s1,1208(sp)
   12e88:	4d010113          	addi	sp,sp,1232
   12e8c:	00008067          	ret
   12e90:	00010593          	mv	a1,sp
   12e94:	00090513          	mv	a0,s2
   12e98:	5a4000ef          	jal	ra,1343c <_fflush_r>
   12e9c:	fc0500e3          	beqz	a0,12e5c <__sbprintf+0x74>
   12ea0:	fff00493          	li	s1,-1
   12ea4:	fb9ff06f          	j	12e5c <__sbprintf+0x74>

0000000000012ea8 <__swsetup_r>:
   12ea8:	75818793          	addi	a5,gp,1880 # 24b78 <_impure_ptr>
   12eac:	0007b783          	ld	a5,0(a5)
   12eb0:	fe010113          	addi	sp,sp,-32
   12eb4:	00813823          	sd	s0,16(sp)
   12eb8:	00913423          	sd	s1,8(sp)
   12ebc:	00113c23          	sd	ra,24(sp)
   12ec0:	00050493          	mv	s1,a0
   12ec4:	00058413          	mv	s0,a1
   12ec8:	00078663          	beqz	a5,12ed4 <__swsetup_r+0x2c>
   12ecc:	0507a703          	lw	a4,80(a5)
   12ed0:	08070663          	beqz	a4,12f5c <__swsetup_r+0xb4>
   12ed4:	01041703          	lh	a4,16(s0)
   12ed8:	03071793          	slli	a5,a4,0x30
   12edc:	0307d793          	srli	a5,a5,0x30
   12ee0:	0087f693          	andi	a3,a5,8
   12ee4:	08068a63          	beqz	a3,12f78 <__swsetup_r+0xd0>
   12ee8:	01843683          	ld	a3,24(s0)
   12eec:	0a068a63          	beqz	a3,12fa0 <__swsetup_r+0xf8>
   12ef0:	0017f713          	andi	a4,a5,1
   12ef4:	02070863          	beqz	a4,12f24 <__swsetup_r+0x7c>
   12ef8:	02042783          	lw	a5,32(s0)
   12efc:	00042623          	sw	zero,12(s0)
   12f00:	00000513          	li	a0,0
   12f04:	40f007bb          	negw	a5,a5
   12f08:	02f42423          	sw	a5,40(s0)
   12f0c:	02068a63          	beqz	a3,12f40 <__swsetup_r+0x98>
   12f10:	01813083          	ld	ra,24(sp)
   12f14:	01013403          	ld	s0,16(sp)
   12f18:	00813483          	ld	s1,8(sp)
   12f1c:	02010113          	addi	sp,sp,32
   12f20:	00008067          	ret
   12f24:	0027f793          	andi	a5,a5,2
   12f28:	00000713          	li	a4,0
   12f2c:	00079463          	bnez	a5,12f34 <__swsetup_r+0x8c>
   12f30:	02042703          	lw	a4,32(s0)
   12f34:	00e42623          	sw	a4,12(s0)
   12f38:	00000513          	li	a0,0
   12f3c:	fc069ae3          	bnez	a3,12f10 <__swsetup_r+0x68>
   12f40:	01041783          	lh	a5,16(s0)
   12f44:	0807f713          	andi	a4,a5,128
   12f48:	fc0704e3          	beqz	a4,12f10 <__swsetup_r+0x68>
   12f4c:	0407e793          	ori	a5,a5,64
   12f50:	00f41823          	sh	a5,16(s0)
   12f54:	fff00513          	li	a0,-1
   12f58:	fb9ff06f          	j	12f10 <__swsetup_r+0x68>
   12f5c:	00078513          	mv	a0,a5
   12f60:	085000ef          	jal	ra,137e4 <__sinit>
   12f64:	01041703          	lh	a4,16(s0)
   12f68:	03071793          	slli	a5,a4,0x30
   12f6c:	0307d793          	srli	a5,a5,0x30
   12f70:	0087f693          	andi	a3,a5,8
   12f74:	f6069ae3          	bnez	a3,12ee8 <__swsetup_r+0x40>
   12f78:	0107f693          	andi	a3,a5,16
   12f7c:	06068e63          	beqz	a3,12ff8 <__swsetup_r+0x150>
   12f80:	0047f793          	andi	a5,a5,4
   12f84:	04079063          	bnez	a5,12fc4 <__swsetup_r+0x11c>
   12f88:	01843683          	ld	a3,24(s0)
   12f8c:	00876793          	ori	a5,a4,8
   12f90:	00f41823          	sh	a5,16(s0)
   12f94:	03079793          	slli	a5,a5,0x30
   12f98:	0307d793          	srli	a5,a5,0x30
   12f9c:	f4069ae3          	bnez	a3,12ef0 <__swsetup_r+0x48>
   12fa0:	2807f713          	andi	a4,a5,640
   12fa4:	20000613          	li	a2,512
   12fa8:	f4c704e3          	beq	a4,a2,12ef0 <__swsetup_r+0x48>
   12fac:	00040593          	mv	a1,s0
   12fb0:	00048513          	mv	a0,s1
   12fb4:	3e1030ef          	jal	ra,16b94 <__smakebuf_r>
   12fb8:	01045783          	lhu	a5,16(s0)
   12fbc:	01843683          	ld	a3,24(s0)
   12fc0:	f31ff06f          	j	12ef0 <__swsetup_r+0x48>
   12fc4:	05843583          	ld	a1,88(s0)
   12fc8:	00058e63          	beqz	a1,12fe4 <__swsetup_r+0x13c>
   12fcc:	07440793          	addi	a5,s0,116
   12fd0:	00f58863          	beq	a1,a5,12fe0 <__swsetup_r+0x138>
   12fd4:	00048513          	mv	a0,s1
   12fd8:	18d000ef          	jal	ra,13964 <_free_r>
   12fdc:	01041703          	lh	a4,16(s0)
   12fe0:	04043c23          	sd	zero,88(s0)
   12fe4:	01843683          	ld	a3,24(s0)
   12fe8:	fdb77713          	andi	a4,a4,-37
   12fec:	00042423          	sw	zero,8(s0)
   12ff0:	00d43023          	sd	a3,0(s0)
   12ff4:	f99ff06f          	j	12f8c <__swsetup_r+0xe4>
   12ff8:	00900793          	li	a5,9
   12ffc:	00f4a023          	sw	a5,0(s1)
   13000:	04076713          	ori	a4,a4,64
   13004:	00e41823          	sh	a4,16(s0)
   13008:	fff00513          	li	a0,-1
   1300c:	f05ff06f          	j	12f10 <__swsetup_r+0x68>

0000000000013010 <__register_exitproc>:
   13010:	74818793          	addi	a5,gp,1864 # 24b68 <_global_impure_ptr>
   13014:	0007b703          	ld	a4,0(a5)
   13018:	1f873783          	ld	a5,504(a4)
   1301c:	06078063          	beqz	a5,1307c <__register_exitproc+0x6c>
   13020:	0087a703          	lw	a4,8(a5)
   13024:	01f00813          	li	a6,31
   13028:	08e84663          	blt	a6,a4,130b4 <__register_exitproc+0xa4>
   1302c:	02050863          	beqz	a0,1305c <__register_exitproc+0x4c>
   13030:	00371813          	slli	a6,a4,0x3
   13034:	01078833          	add	a6,a5,a6
   13038:	10c83823          	sd	a2,272(a6)
   1303c:	3107a883          	lw	a7,784(a5)
   13040:	00100613          	li	a2,1
   13044:	00e6163b          	sllw	a2,a2,a4
   13048:	00c8e8b3          	or	a7,a7,a2
   1304c:	3117a823          	sw	a7,784(a5)
   13050:	20d83823          	sd	a3,528(a6)
   13054:	00200693          	li	a3,2
   13058:	02d50863          	beq	a0,a3,13088 <__register_exitproc+0x78>
   1305c:	00270693          	addi	a3,a4,2
   13060:	00369693          	slli	a3,a3,0x3
   13064:	0017071b          	addiw	a4,a4,1
   13068:	00e7a423          	sw	a4,8(a5)
   1306c:	00d787b3          	add	a5,a5,a3
   13070:	00b7b023          	sd	a1,0(a5)
   13074:	00000513          	li	a0,0
   13078:	00008067          	ret
   1307c:	20070793          	addi	a5,a4,512
   13080:	1ef73c23          	sd	a5,504(a4)
   13084:	f9dff06f          	j	13020 <__register_exitproc+0x10>
   13088:	3147a683          	lw	a3,788(a5)
   1308c:	00000513          	li	a0,0
   13090:	00c6e633          	or	a2,a3,a2
   13094:	00270693          	addi	a3,a4,2
   13098:	00369693          	slli	a3,a3,0x3
   1309c:	0017071b          	addiw	a4,a4,1
   130a0:	30c7aa23          	sw	a2,788(a5)
   130a4:	00e7a423          	sw	a4,8(a5)
   130a8:	00d787b3          	add	a5,a5,a3
   130ac:	00b7b023          	sd	a1,0(a5)
   130b0:	00008067          	ret
   130b4:	fff00513          	li	a0,-1
   130b8:	00008067          	ret

00000000000130bc <__call_exitprocs>:
   130bc:	fb010113          	addi	sp,sp,-80
   130c0:	74818793          	addi	a5,gp,1864 # 24b68 <_global_impure_ptr>
   130c4:	01813023          	sd	s8,0(sp)
   130c8:	0007bc03          	ld	s8,0(a5)
   130cc:	03313423          	sd	s3,40(sp)
   130d0:	03413023          	sd	s4,32(sp)
   130d4:	01513c23          	sd	s5,24(sp)
   130d8:	01613823          	sd	s6,16(sp)
   130dc:	04113423          	sd	ra,72(sp)
   130e0:	04813023          	sd	s0,64(sp)
   130e4:	02913c23          	sd	s1,56(sp)
   130e8:	03213823          	sd	s2,48(sp)
   130ec:	01713423          	sd	s7,8(sp)
   130f0:	00050a93          	mv	s5,a0
   130f4:	00058b13          	mv	s6,a1
   130f8:	00100a13          	li	s4,1
   130fc:	fff00993          	li	s3,-1
   13100:	1f8c3903          	ld	s2,504(s8)
   13104:	02090863          	beqz	s2,13134 <__call_exitprocs+0x78>
   13108:	00892483          	lw	s1,8(s2)
   1310c:	fff4841b          	addiw	s0,s1,-1
   13110:	02044263          	bltz	s0,13134 <__call_exitprocs+0x78>
   13114:	00349493          	slli	s1,s1,0x3
   13118:	009904b3          	add	s1,s2,s1
   1311c:	040b0463          	beqz	s6,13164 <__call_exitprocs+0xa8>
   13120:	2084b783          	ld	a5,520(s1)
   13124:	05678063          	beq	a5,s6,13164 <__call_exitprocs+0xa8>
   13128:	fff4041b          	addiw	s0,s0,-1
   1312c:	ff848493          	addi	s1,s1,-8
   13130:	ff3416e3          	bne	s0,s3,1311c <__call_exitprocs+0x60>
   13134:	04813083          	ld	ra,72(sp)
   13138:	04013403          	ld	s0,64(sp)
   1313c:	03813483          	ld	s1,56(sp)
   13140:	03013903          	ld	s2,48(sp)
   13144:	02813983          	ld	s3,40(sp)
   13148:	02013a03          	ld	s4,32(sp)
   1314c:	01813a83          	ld	s5,24(sp)
   13150:	01013b03          	ld	s6,16(sp)
   13154:	00813b83          	ld	s7,8(sp)
   13158:	00013c03          	ld	s8,0(sp)
   1315c:	05010113          	addi	sp,sp,80
   13160:	00008067          	ret
   13164:	00892783          	lw	a5,8(s2)
   13168:	0084b703          	ld	a4,8(s1)
   1316c:	fff7879b          	addiw	a5,a5,-1
   13170:	04878e63          	beq	a5,s0,131cc <__call_exitprocs+0x110>
   13174:	0004b423          	sd	zero,8(s1)
   13178:	fa0708e3          	beqz	a4,13128 <__call_exitprocs+0x6c>
   1317c:	31092783          	lw	a5,784(s2)
   13180:	008a16bb          	sllw	a3,s4,s0
   13184:	00892b83          	lw	s7,8(s2)
   13188:	00d7f7b3          	and	a5,a5,a3
   1318c:	0007879b          	sext.w	a5,a5
   13190:	00079e63          	bnez	a5,131ac <__call_exitprocs+0xf0>
   13194:	000700e7          	jalr	a4
   13198:	00892783          	lw	a5,8(s2)
   1319c:	f77792e3          	bne	a5,s7,13100 <__call_exitprocs+0x44>
   131a0:	1f8c3783          	ld	a5,504(s8)
   131a4:	f92782e3          	beq	a5,s2,13128 <__call_exitprocs+0x6c>
   131a8:	f59ff06f          	j	13100 <__call_exitprocs+0x44>
   131ac:	31492783          	lw	a5,788(s2)
   131b0:	1084b583          	ld	a1,264(s1)
   131b4:	00d7f7b3          	and	a5,a5,a3
   131b8:	0007879b          	sext.w	a5,a5
   131bc:	00079c63          	bnez	a5,131d4 <__call_exitprocs+0x118>
   131c0:	000a8513          	mv	a0,s5
   131c4:	000700e7          	jalr	a4
   131c8:	fd1ff06f          	j	13198 <__call_exitprocs+0xdc>
   131cc:	00892423          	sw	s0,8(s2)
   131d0:	fa9ff06f          	j	13178 <__call_exitprocs+0xbc>
   131d4:	00058513          	mv	a0,a1
   131d8:	000700e7          	jalr	a4
   131dc:	fbdff06f          	j	13198 <__call_exitprocs+0xdc>

00000000000131e0 <__sflush_r>:
   131e0:	01059783          	lh	a5,16(a1)
   131e4:	fd010113          	addi	sp,sp,-48
   131e8:	02813023          	sd	s0,32(sp)
   131ec:	03079713          	slli	a4,a5,0x30
   131f0:	03075713          	srli	a4,a4,0x30
   131f4:	01313423          	sd	s3,8(sp)
   131f8:	02113423          	sd	ra,40(sp)
   131fc:	00913c23          	sd	s1,24(sp)
   13200:	01213823          	sd	s2,16(sp)
   13204:	00877693          	andi	a3,a4,8
   13208:	00058413          	mv	s0,a1
   1320c:	00050993          	mv	s3,a0
   13210:	10069a63          	bnez	a3,13324 <__sflush_r+0x144>
   13214:	00001737          	lui	a4,0x1
   13218:	80070713          	addi	a4,a4,-2048 # 800 <main-0xf8b0>
   1321c:	0085a683          	lw	a3,8(a1)
   13220:	00e7e7b3          	or	a5,a5,a4
   13224:	00f59823          	sh	a5,16(a1)
   13228:	18d05063          	blez	a3,133a8 <__sflush_r+0x1c8>
   1322c:	04843703          	ld	a4,72(s0)
   13230:	0c070a63          	beqz	a4,13304 <__sflush_r+0x124>
   13234:	03079793          	slli	a5,a5,0x30
   13238:	0307d793          	srli	a5,a5,0x30
   1323c:	0009a483          	lw	s1,0(s3)
   13240:	03379693          	slli	a3,a5,0x33
   13244:	0009a023          	sw	zero,0(s3)
   13248:	03043583          	ld	a1,48(s0)
   1324c:	1606c463          	bltz	a3,133b4 <__sflush_r+0x1d4>
   13250:	00000613          	li	a2,0
   13254:	00100693          	li	a3,1
   13258:	00098513          	mv	a0,s3
   1325c:	000700e7          	jalr	a4
   13260:	fff00793          	li	a5,-1
   13264:	00050613          	mv	a2,a0
   13268:	18f50663          	beq	a0,a5,133f4 <__sflush_r+0x214>
   1326c:	01045783          	lhu	a5,16(s0)
   13270:	04843703          	ld	a4,72(s0)
   13274:	03043583          	ld	a1,48(s0)
   13278:	0047f793          	andi	a5,a5,4
   1327c:	00078e63          	beqz	a5,13298 <__sflush_r+0xb8>
   13280:	00842683          	lw	a3,8(s0)
   13284:	05843783          	ld	a5,88(s0)
   13288:	40d60633          	sub	a2,a2,a3
   1328c:	00078663          	beqz	a5,13298 <__sflush_r+0xb8>
   13290:	07042783          	lw	a5,112(s0)
   13294:	40f60633          	sub	a2,a2,a5
   13298:	00000693          	li	a3,0
   1329c:	00098513          	mv	a0,s3
   132a0:	000700e7          	jalr	a4
   132a4:	fff00793          	li	a5,-1
   132a8:	10f51a63          	bne	a0,a5,133bc <__sflush_r+0x1dc>
   132ac:	0009a703          	lw	a4,0(s3)
   132b0:	01041783          	lh	a5,16(s0)
   132b4:	16070263          	beqz	a4,13418 <__sflush_r+0x238>
   132b8:	01d00693          	li	a3,29
   132bc:	00d70663          	beq	a4,a3,132c8 <__sflush_r+0xe8>
   132c0:	01600693          	li	a3,22
   132c4:	16d71463          	bne	a4,a3,1342c <__sflush_r+0x24c>
   132c8:	01843683          	ld	a3,24(s0)
   132cc:	fffff737          	lui	a4,0xfffff
   132d0:	7ff70713          	addi	a4,a4,2047 # fffffffffffff7ff <__BSS_END__+0xfffffffffffdabdf>
   132d4:	00e7f7b3          	and	a5,a5,a4
   132d8:	00f41823          	sh	a5,16(s0)
   132dc:	00042423          	sw	zero,8(s0)
   132e0:	00d43023          	sd	a3,0(s0)
   132e4:	05843583          	ld	a1,88(s0)
   132e8:	0099a023          	sw	s1,0(s3)
   132ec:	00058c63          	beqz	a1,13304 <__sflush_r+0x124>
   132f0:	07440793          	addi	a5,s0,116
   132f4:	00f58663          	beq	a1,a5,13300 <__sflush_r+0x120>
   132f8:	00098513          	mv	a0,s3
   132fc:	668000ef          	jal	ra,13964 <_free_r>
   13300:	04043c23          	sd	zero,88(s0)
   13304:	00000513          	li	a0,0
   13308:	02813083          	ld	ra,40(sp)
   1330c:	02013403          	ld	s0,32(sp)
   13310:	01813483          	ld	s1,24(sp)
   13314:	01013903          	ld	s2,16(sp)
   13318:	00813983          	ld	s3,8(sp)
   1331c:	03010113          	addi	sp,sp,48
   13320:	00008067          	ret
   13324:	0185b903          	ld	s2,24(a1)
   13328:	fc090ee3          	beqz	s2,13304 <__sflush_r+0x124>
   1332c:	0005b483          	ld	s1,0(a1)
   13330:	00377713          	andi	a4,a4,3
   13334:	0125b023          	sd	s2,0(a1)
   13338:	412484bb          	subw	s1,s1,s2
   1333c:	00000793          	li	a5,0
   13340:	00071463          	bnez	a4,13348 <__sflush_r+0x168>
   13344:	0205a783          	lw	a5,32(a1)
   13348:	00f42623          	sw	a5,12(s0)
   1334c:	00904863          	bgtz	s1,1335c <__sflush_r+0x17c>
   13350:	fb5ff06f          	j	13304 <__sflush_r+0x124>
   13354:	00a90933          	add	s2,s2,a0
   13358:	fa9056e3          	blez	s1,13304 <__sflush_r+0x124>
   1335c:	04043783          	ld	a5,64(s0)
   13360:	03043583          	ld	a1,48(s0)
   13364:	00048693          	mv	a3,s1
   13368:	00090613          	mv	a2,s2
   1336c:	00098513          	mv	a0,s3
   13370:	000780e7          	jalr	a5
   13374:	40a484bb          	subw	s1,s1,a0
   13378:	fca04ee3          	bgtz	a0,13354 <__sflush_r+0x174>
   1337c:	01045783          	lhu	a5,16(s0)
   13380:	02813083          	ld	ra,40(sp)
   13384:	01813483          	ld	s1,24(sp)
   13388:	0407e793          	ori	a5,a5,64
   1338c:	00f41823          	sh	a5,16(s0)
   13390:	02013403          	ld	s0,32(sp)
   13394:	01013903          	ld	s2,16(sp)
   13398:	00813983          	ld	s3,8(sp)
   1339c:	fff00513          	li	a0,-1
   133a0:	03010113          	addi	sp,sp,48
   133a4:	00008067          	ret
   133a8:	0705a703          	lw	a4,112(a1)
   133ac:	e8e040e3          	bgtz	a4,1322c <__sflush_r+0x4c>
   133b0:	f55ff06f          	j	13304 <__sflush_r+0x124>
   133b4:	09043603          	ld	a2,144(s0)
   133b8:	ec1ff06f          	j	13278 <__sflush_r+0x98>
   133bc:	01045783          	lhu	a5,16(s0)
   133c0:	fffff737          	lui	a4,0xfffff
   133c4:	7ff70713          	addi	a4,a4,2047 # fffffffffffff7ff <__BSS_END__+0xfffffffffffdabdf>
   133c8:	00e7f7b3          	and	a5,a5,a4
   133cc:	01843683          	ld	a3,24(s0)
   133d0:	0107979b          	slliw	a5,a5,0x10
   133d4:	4107d79b          	sraiw	a5,a5,0x10
   133d8:	00f41823          	sh	a5,16(s0)
   133dc:	00042423          	sw	zero,8(s0)
   133e0:	00d43023          	sd	a3,0(s0)
   133e4:	03379713          	slli	a4,a5,0x33
   133e8:	ee075ee3          	bgez	a4,132e4 <__sflush_r+0x104>
   133ec:	08a43823          	sd	a0,144(s0)
   133f0:	ef5ff06f          	j	132e4 <__sflush_r+0x104>
   133f4:	0009a783          	lw	a5,0(s3)
   133f8:	e6078ae3          	beqz	a5,1326c <__sflush_r+0x8c>
   133fc:	01d00713          	li	a4,29
   13400:	00e78663          	beq	a5,a4,1340c <__sflush_r+0x22c>
   13404:	01600713          	li	a4,22
   13408:	f6e79ae3          	bne	a5,a4,1337c <__sflush_r+0x19c>
   1340c:	0099a023          	sw	s1,0(s3)
   13410:	00000513          	li	a0,0
   13414:	ef5ff06f          	j	13308 <__sflush_r+0x128>
   13418:	fffff737          	lui	a4,0xfffff
   1341c:	7ff70713          	addi	a4,a4,2047 # fffffffffffff7ff <__BSS_END__+0xfffffffffffdabdf>
   13420:	01843683          	ld	a3,24(s0)
   13424:	00e7f7b3          	and	a5,a5,a4
   13428:	fb1ff06f          	j	133d8 <__sflush_r+0x1f8>
   1342c:	0407e793          	ori	a5,a5,64
   13430:	00f41823          	sh	a5,16(s0)
   13434:	fff00513          	li	a0,-1
   13438:	ed1ff06f          	j	13308 <__sflush_r+0x128>

000000000001343c <_fflush_r>:
   1343c:	fe010113          	addi	sp,sp,-32
   13440:	00813823          	sd	s0,16(sp)
   13444:	00113c23          	sd	ra,24(sp)
   13448:	00050413          	mv	s0,a0
   1344c:	00050663          	beqz	a0,13458 <_fflush_r+0x1c>
   13450:	05052783          	lw	a5,80(a0)
   13454:	02078063          	beqz	a5,13474 <_fflush_r+0x38>
   13458:	01059783          	lh	a5,16(a1)
   1345c:	02079663          	bnez	a5,13488 <_fflush_r+0x4c>
   13460:	01813083          	ld	ra,24(sp)
   13464:	01013403          	ld	s0,16(sp)
   13468:	00000513          	li	a0,0
   1346c:	02010113          	addi	sp,sp,32
   13470:	00008067          	ret
   13474:	00b13423          	sd	a1,8(sp)
   13478:	36c000ef          	jal	ra,137e4 <__sinit>
   1347c:	00813583          	ld	a1,8(sp)
   13480:	01059783          	lh	a5,16(a1)
   13484:	fc078ee3          	beqz	a5,13460 <_fflush_r+0x24>
   13488:	00040513          	mv	a0,s0
   1348c:	01013403          	ld	s0,16(sp)
   13490:	01813083          	ld	ra,24(sp)
   13494:	02010113          	addi	sp,sp,32
   13498:	d49ff06f          	j	131e0 <__sflush_r>

000000000001349c <fflush>:
   1349c:	00050593          	mv	a1,a0
   134a0:	00050863          	beqz	a0,134b0 <fflush+0x14>
   134a4:	75818793          	addi	a5,gp,1880 # 24b78 <_impure_ptr>
   134a8:	0007b503          	ld	a0,0(a5)
   134ac:	f91ff06f          	j	1343c <_fflush_r>
   134b0:	74818793          	addi	a5,gp,1864 # 24b68 <_global_impure_ptr>
   134b4:	0007b503          	ld	a0,0(a5)
   134b8:	00000597          	auipc	a1,0x0
   134bc:	f8458593          	addi	a1,a1,-124 # 1343c <_fflush_r>
   134c0:	0c10006f          	j	13d80 <_fwalk_reent>

00000000000134c4 <__fp_lock>:
   134c4:	00000513          	li	a0,0
   134c8:	00008067          	ret

00000000000134cc <_cleanup_r>:
   134cc:	00009597          	auipc	a1,0x9
   134d0:	63858593          	addi	a1,a1,1592 # 1cb04 <_fclose_r>
   134d4:	0ad0006f          	j	13d80 <_fwalk_reent>

00000000000134d8 <__sinit.part.0>:
   134d8:	fc010113          	addi	sp,sp,-64
   134dc:	02113c23          	sd	ra,56(sp)
   134e0:	02813823          	sd	s0,48(sp)
   134e4:	02913423          	sd	s1,40(sp)
   134e8:	03213023          	sd	s2,32(sp)
   134ec:	01313c23          	sd	s3,24(sp)
   134f0:	01413823          	sd	s4,16(sp)
   134f4:	01513423          	sd	s5,8(sp)
   134f8:	01613023          	sd	s6,0(sp)
   134fc:	00853403          	ld	s0,8(a0)
   13500:	00000717          	auipc	a4,0x0
   13504:	fcc70713          	addi	a4,a4,-52 # 134cc <_cleanup_r>
   13508:	04e53c23          	sd	a4,88(a0)
   1350c:	53850793          	addi	a5,a0,1336
   13510:	00300713          	li	a4,3
   13514:	52e52423          	sw	a4,1320(a0)
   13518:	52f53823          	sd	a5,1328(a0)
   1351c:	52053023          	sd	zero,1312(a0)
   13520:	00400793          	li	a5,4
   13524:	00050913          	mv	s2,a0
   13528:	00f42823          	sw	a5,16(s0)
   1352c:	00800613          	li	a2,8
   13530:	00000593          	li	a1,0
   13534:	0a042623          	sw	zero,172(s0)
   13538:	00043023          	sd	zero,0(s0)
   1353c:	00043423          	sd	zero,8(s0)
   13540:	00043c23          	sd	zero,24(s0)
   13544:	02042023          	sw	zero,32(s0)
   13548:	02042423          	sw	zero,40(s0)
   1354c:	0a440513          	addi	a0,s0,164
   13550:	ff5fc0ef          	jal	ra,10544 <memset>
   13554:	01093483          	ld	s1,16(s2)
   13558:	00005b17          	auipc	s6,0x5
   1355c:	490b0b13          	addi	s6,s6,1168 # 189e8 <__sread>
   13560:	00005a97          	auipc	s5,0x5
   13564:	4eca8a93          	addi	s5,s5,1260 # 18a4c <__swrite>
   13568:	00005a17          	auipc	s4,0x5
   1356c:	56ca0a13          	addi	s4,s4,1388 # 18ad4 <__sseek>
   13570:	00005997          	auipc	s3,0x5
   13574:	5cc98993          	addi	s3,s3,1484 # 18b3c <__sclose>
   13578:	000107b7          	lui	a5,0x10
   1357c:	03643c23          	sd	s6,56(s0)
   13580:	05543023          	sd	s5,64(s0)
   13584:	05443423          	sd	s4,72(s0)
   13588:	05343823          	sd	s3,80(s0)
   1358c:	02843823          	sd	s0,48(s0)
   13590:	00978793          	addi	a5,a5,9 # 10009 <main-0xa7>
   13594:	00f4a823          	sw	a5,16(s1)
   13598:	00800613          	li	a2,8
   1359c:	00000593          	li	a1,0
   135a0:	0a04a623          	sw	zero,172(s1)
   135a4:	0004b023          	sd	zero,0(s1)
   135a8:	0004b423          	sd	zero,8(s1)
   135ac:	0004bc23          	sd	zero,24(s1)
   135b0:	0204a023          	sw	zero,32(s1)
   135b4:	0204a423          	sw	zero,40(s1)
   135b8:	0a448513          	addi	a0,s1,164
   135bc:	f89fc0ef          	jal	ra,10544 <memset>
   135c0:	01893403          	ld	s0,24(s2)
   135c4:	000207b7          	lui	a5,0x20
   135c8:	0364bc23          	sd	s6,56(s1)
   135cc:	0554b023          	sd	s5,64(s1)
   135d0:	0544b423          	sd	s4,72(s1)
   135d4:	0534b823          	sd	s3,80(s1)
   135d8:	0294b823          	sd	s1,48(s1)
   135dc:	01278793          	addi	a5,a5,18 # 20012 <__eqtf2+0xb2>
   135e0:	00f42823          	sw	a5,16(s0)
   135e4:	0a042623          	sw	zero,172(s0)
   135e8:	00043023          	sd	zero,0(s0)
   135ec:	00043423          	sd	zero,8(s0)
   135f0:	00043c23          	sd	zero,24(s0)
   135f4:	02042023          	sw	zero,32(s0)
   135f8:	02042423          	sw	zero,40(s0)
   135fc:	0a440513          	addi	a0,s0,164
   13600:	00800613          	li	a2,8
   13604:	00000593          	li	a1,0
   13608:	f3dfc0ef          	jal	ra,10544 <memset>
   1360c:	03813083          	ld	ra,56(sp)
   13610:	03643c23          	sd	s6,56(s0)
   13614:	05543023          	sd	s5,64(s0)
   13618:	05443423          	sd	s4,72(s0)
   1361c:	05343823          	sd	s3,80(s0)
   13620:	02843823          	sd	s0,48(s0)
   13624:	03013403          	ld	s0,48(sp)
   13628:	00100793          	li	a5,1
   1362c:	04f92823          	sw	a5,80(s2)
   13630:	02813483          	ld	s1,40(sp)
   13634:	02013903          	ld	s2,32(sp)
   13638:	01813983          	ld	s3,24(sp)
   1363c:	01013a03          	ld	s4,16(sp)
   13640:	00813a83          	ld	s5,8(sp)
   13644:	00013b03          	ld	s6,0(sp)
   13648:	04010113          	addi	sp,sp,64
   1364c:	00008067          	ret

0000000000013650 <__fp_unlock>:
   13650:	00000513          	li	a0,0
   13654:	00008067          	ret

0000000000013658 <__sfmoreglue>:
   13658:	fe010113          	addi	sp,sp,-32
   1365c:	fff5861b          	addiw	a2,a1,-1
   13660:	00813823          	sd	s0,16(sp)
   13664:	00161413          	slli	s0,a2,0x1
   13668:	00c40433          	add	s0,s0,a2
   1366c:	00241413          	slli	s0,s0,0x2
   13670:	40c40433          	sub	s0,s0,a2
   13674:	00441413          	slli	s0,s0,0x4
   13678:	01213023          	sd	s2,0(sp)
   1367c:	00058913          	mv	s2,a1
   13680:	0c840593          	addi	a1,s0,200
   13684:	00913423          	sd	s1,8(sp)
   13688:	00113c23          	sd	ra,24(sp)
   1368c:	628030ef          	jal	ra,16cb4 <_malloc_r>
   13690:	00050493          	mv	s1,a0
   13694:	02050063          	beqz	a0,136b4 <__sfmoreglue+0x5c>
   13698:	01850513          	addi	a0,a0,24
   1369c:	0004b023          	sd	zero,0(s1)
   136a0:	0124a423          	sw	s2,8(s1)
   136a4:	00a4b823          	sd	a0,16(s1)
   136a8:	0b040613          	addi	a2,s0,176
   136ac:	00000593          	li	a1,0
   136b0:	e95fc0ef          	jal	ra,10544 <memset>
   136b4:	01813083          	ld	ra,24(sp)
   136b8:	01013403          	ld	s0,16(sp)
   136bc:	00048513          	mv	a0,s1
   136c0:	00013903          	ld	s2,0(sp)
   136c4:	00813483          	ld	s1,8(sp)
   136c8:	02010113          	addi	sp,sp,32
   136cc:	00008067          	ret

00000000000136d0 <__sfp>:
   136d0:	fd010113          	addi	sp,sp,-48
   136d4:	74818793          	addi	a5,gp,1864 # 24b68 <_global_impure_ptr>
   136d8:	01213823          	sd	s2,16(sp)
   136dc:	0007b903          	ld	s2,0(a5)
   136e0:	01313423          	sd	s3,8(sp)
   136e4:	02113423          	sd	ra,40(sp)
   136e8:	05092783          	lw	a5,80(s2)
   136ec:	02813023          	sd	s0,32(sp)
   136f0:	00913c23          	sd	s1,24(sp)
   136f4:	00050993          	mv	s3,a0
   136f8:	0a078463          	beqz	a5,137a0 <__sfp+0xd0>
   136fc:	52090913          	addi	s2,s2,1312
   13700:	fff00493          	li	s1,-1
   13704:	00892783          	lw	a5,8(s2)
   13708:	01093403          	ld	s0,16(s2)
   1370c:	fff7879b          	addiw	a5,a5,-1
   13710:	0007da63          	bgez	a5,13724 <__sfp+0x54>
   13714:	07c0006f          	j	13790 <__sfp+0xc0>
   13718:	fff7879b          	addiw	a5,a5,-1
   1371c:	0b040413          	addi	s0,s0,176
   13720:	06978863          	beq	a5,s1,13790 <__sfp+0xc0>
   13724:	01041703          	lh	a4,16(s0)
   13728:	fe0718e3          	bnez	a4,13718 <__sfp+0x48>
   1372c:	ffff07b7          	lui	a5,0xffff0
   13730:	00178793          	addi	a5,a5,1 # ffffffffffff0001 <__BSS_END__+0xfffffffffffcb3e1>
   13734:	0a042623          	sw	zero,172(s0)
   13738:	00043023          	sd	zero,0(s0)
   1373c:	00043423          	sd	zero,8(s0)
   13740:	00f42823          	sw	a5,16(s0)
   13744:	00043c23          	sd	zero,24(s0)
   13748:	02042023          	sw	zero,32(s0)
   1374c:	02042423          	sw	zero,40(s0)
   13750:	00800613          	li	a2,8
   13754:	00000593          	li	a1,0
   13758:	0a440513          	addi	a0,s0,164
   1375c:	de9fc0ef          	jal	ra,10544 <memset>
   13760:	04043c23          	sd	zero,88(s0)
   13764:	06042023          	sw	zero,96(s0)
   13768:	06043c23          	sd	zero,120(s0)
   1376c:	08042023          	sw	zero,128(s0)
   13770:	00040513          	mv	a0,s0
   13774:	02813083          	ld	ra,40(sp)
   13778:	02013403          	ld	s0,32(sp)
   1377c:	01813483          	ld	s1,24(sp)
   13780:	01013903          	ld	s2,16(sp)
   13784:	00813983          	ld	s3,8(sp)
   13788:	03010113          	addi	sp,sp,48
   1378c:	00008067          	ret
   13790:	00093403          	ld	s0,0(s2)
   13794:	00040c63          	beqz	s0,137ac <__sfp+0xdc>
   13798:	00040913          	mv	s2,s0
   1379c:	f69ff06f          	j	13704 <__sfp+0x34>
   137a0:	00090513          	mv	a0,s2
   137a4:	d35ff0ef          	jal	ra,134d8 <__sinit.part.0>
   137a8:	f55ff06f          	j	136fc <__sfp+0x2c>
   137ac:	00400593          	li	a1,4
   137b0:	00098513          	mv	a0,s3
   137b4:	ea5ff0ef          	jal	ra,13658 <__sfmoreglue>
   137b8:	00a93023          	sd	a0,0(s2)
   137bc:	00050413          	mv	s0,a0
   137c0:	fc051ce3          	bnez	a0,13798 <__sfp+0xc8>
   137c4:	00c00793          	li	a5,12
   137c8:	00f9a023          	sw	a5,0(s3)
   137cc:	fa5ff06f          	j	13770 <__sfp+0xa0>

00000000000137d0 <_cleanup>:
   137d0:	74818793          	addi	a5,gp,1864 # 24b68 <_global_impure_ptr>
   137d4:	0007b503          	ld	a0,0(a5)
   137d8:	00009597          	auipc	a1,0x9
   137dc:	32c58593          	addi	a1,a1,812 # 1cb04 <_fclose_r>
   137e0:	5a00006f          	j	13d80 <_fwalk_reent>

00000000000137e4 <__sinit>:
   137e4:	05052783          	lw	a5,80(a0)
   137e8:	00078463          	beqz	a5,137f0 <__sinit+0xc>
   137ec:	00008067          	ret
   137f0:	ce9ff06f          	j	134d8 <__sinit.part.0>

00000000000137f4 <__sfp_lock_acquire>:
   137f4:	00008067          	ret

00000000000137f8 <__sfp_lock_release>:
   137f8:	00008067          	ret

00000000000137fc <__sinit_lock_acquire>:
   137fc:	00008067          	ret

0000000000013800 <__sinit_lock_release>:
   13800:	00008067          	ret

0000000000013804 <__fp_lock_all>:
   13804:	75818793          	addi	a5,gp,1880 # 24b78 <_impure_ptr>
   13808:	0007b503          	ld	a0,0(a5)
   1380c:	00000597          	auipc	a1,0x0
   13810:	cb858593          	addi	a1,a1,-840 # 134c4 <__fp_lock>
   13814:	4980006f          	j	13cac <_fwalk>

0000000000013818 <__fp_unlock_all>:
   13818:	75818793          	addi	a5,gp,1880 # 24b78 <_impure_ptr>
   1381c:	0007b503          	ld	a0,0(a5)
   13820:	00000597          	auipc	a1,0x0
   13824:	e3058593          	addi	a1,a1,-464 # 13650 <__fp_unlock>
   13828:	4840006f          	j	13cac <_fwalk>

000000000001382c <_malloc_trim_r>:
   1382c:	fd010113          	addi	sp,sp,-48
   13830:	02813023          	sd	s0,32(sp)
   13834:	00913c23          	sd	s1,24(sp)
   13838:	01213823          	sd	s2,16(sp)
   1383c:	01313423          	sd	s3,8(sp)
   13840:	00058413          	mv	s0,a1
   13844:	02113423          	sd	ra,40(sp)
   13848:	00011997          	auipc	s3,0x11
   1384c:	ae098993          	addi	s3,s3,-1312 # 24328 <__malloc_av_>
   13850:	00050913          	mv	s2,a0
   13854:	61d030ef          	jal	ra,17670 <__malloc_lock>
   13858:	0109b683          	ld	a3,16(s3)
   1385c:	00001737          	lui	a4,0x1
   13860:	fdf70793          	addi	a5,a4,-33 # fdf <main-0xf0d1>
   13864:	0086b483          	ld	s1,8(a3)
   13868:	40878433          	sub	s0,a5,s0
   1386c:	ffc4f493          	andi	s1,s1,-4
   13870:	00940433          	add	s0,s0,s1
   13874:	00c45413          	srli	s0,s0,0xc
   13878:	fff40413          	addi	s0,s0,-1
   1387c:	00c41413          	slli	s0,s0,0xc
   13880:	00e44e63          	blt	s0,a4,1389c <_malloc_trim_r+0x70>
   13884:	00000593          	li	a1,0
   13888:	00090513          	mv	a0,s2
   1388c:	755040ef          	jal	ra,187e0 <_sbrk_r>
   13890:	0109b783          	ld	a5,16(s3)
   13894:	009787b3          	add	a5,a5,s1
   13898:	02f50663          	beq	a0,a5,138c4 <_malloc_trim_r+0x98>
   1389c:	00090513          	mv	a0,s2
   138a0:	5d5030ef          	jal	ra,17674 <__malloc_unlock>
   138a4:	02813083          	ld	ra,40(sp)
   138a8:	02013403          	ld	s0,32(sp)
   138ac:	01813483          	ld	s1,24(sp)
   138b0:	01013903          	ld	s2,16(sp)
   138b4:	00813983          	ld	s3,8(sp)
   138b8:	00000513          	li	a0,0
   138bc:	03010113          	addi	sp,sp,48
   138c0:	00008067          	ret
   138c4:	408005b3          	neg	a1,s0
   138c8:	00090513          	mv	a0,s2
   138cc:	715040ef          	jal	ra,187e0 <_sbrk_r>
   138d0:	fff00793          	li	a5,-1
   138d4:	04f50a63          	beq	a0,a5,13928 <_malloc_trim_r+0xfc>
   138d8:	00011797          	auipc	a5,0x11
   138dc:	31878793          	addi	a5,a5,792 # 24bf0 <__malloc_current_mallinfo>
   138e0:	0007a783          	lw	a5,0(a5)
   138e4:	0109b703          	ld	a4,16(s3)
   138e8:	408484b3          	sub	s1,s1,s0
   138ec:	0014e493          	ori	s1,s1,1
   138f0:	4087843b          	subw	s0,a5,s0
   138f4:	00090513          	mv	a0,s2
   138f8:	00973423          	sd	s1,8(a4)
   138fc:	00011797          	auipc	a5,0x11
   13900:	2e87aa23          	sw	s0,756(a5) # 24bf0 <__malloc_current_mallinfo>
   13904:	571030ef          	jal	ra,17674 <__malloc_unlock>
   13908:	02813083          	ld	ra,40(sp)
   1390c:	02013403          	ld	s0,32(sp)
   13910:	01813483          	ld	s1,24(sp)
   13914:	01013903          	ld	s2,16(sp)
   13918:	00813983          	ld	s3,8(sp)
   1391c:	00100513          	li	a0,1
   13920:	03010113          	addi	sp,sp,48
   13924:	00008067          	ret
   13928:	00000593          	li	a1,0
   1392c:	00090513          	mv	a0,s2
   13930:	6b1040ef          	jal	ra,187e0 <_sbrk_r>
   13934:	0109b703          	ld	a4,16(s3)
   13938:	01f00693          	li	a3,31
   1393c:	40e507b3          	sub	a5,a0,a4
   13940:	f4f6dee3          	bge	a3,a5,1389c <_malloc_trim_r+0x70>
   13944:	76018693          	addi	a3,gp,1888 # 24b80 <__malloc_sbrk_base>
   13948:	0006b683          	ld	a3,0(a3)
   1394c:	0017e793          	ori	a5,a5,1
   13950:	00f73423          	sd	a5,8(a4)
   13954:	40d50533          	sub	a0,a0,a3
   13958:	00011797          	auipc	a5,0x11
   1395c:	28a7ac23          	sw	a0,664(a5) # 24bf0 <__malloc_current_mallinfo>
   13960:	f3dff06f          	j	1389c <_malloc_trim_r+0x70>

0000000000013964 <_free_r>:
   13964:	14058263          	beqz	a1,13aa8 <_free_r+0x144>
   13968:	fe010113          	addi	sp,sp,-32
   1396c:	00813823          	sd	s0,16(sp)
   13970:	00913423          	sd	s1,8(sp)
   13974:	00058413          	mv	s0,a1
   13978:	00050493          	mv	s1,a0
   1397c:	00113c23          	sd	ra,24(sp)
   13980:	4f1030ef          	jal	ra,17670 <__malloc_lock>
   13984:	ff843583          	ld	a1,-8(s0)
   13988:	ff040713          	addi	a4,s0,-16
   1398c:	00011517          	auipc	a0,0x11
   13990:	99c50513          	addi	a0,a0,-1636 # 24328 <__malloc_av_>
   13994:	ffe5f793          	andi	a5,a1,-2
   13998:	00f70633          	add	a2,a4,a5
   1399c:	00863683          	ld	a3,8(a2)
   139a0:	01053803          	ld	a6,16(a0)
   139a4:	ffc6f693          	andi	a3,a3,-4
   139a8:	1ac80c63          	beq	a6,a2,13b60 <_free_r+0x1fc>
   139ac:	00d63423          	sd	a3,8(a2)
   139b0:	0015f593          	andi	a1,a1,1
   139b4:	00d60833          	add	a6,a2,a3
   139b8:	0a059863          	bnez	a1,13a68 <_free_r+0x104>
   139bc:	ff043303          	ld	t1,-16(s0)
   139c0:	00883583          	ld	a1,8(a6)
   139c4:	00011897          	auipc	a7,0x11
   139c8:	97488893          	addi	a7,a7,-1676 # 24338 <__malloc_av_+0x10>
   139cc:	40670733          	sub	a4,a4,t1
   139d0:	01073803          	ld	a6,16(a4)
   139d4:	006787b3          	add	a5,a5,t1
   139d8:	0015f593          	andi	a1,a1,1
   139dc:	15180c63          	beq	a6,a7,13b34 <_free_r+0x1d0>
   139e0:	01873303          	ld	t1,24(a4)
   139e4:	00683c23          	sd	t1,24(a6)
   139e8:	01033823          	sd	a6,16(t1)
   139ec:	1e058c63          	beqz	a1,13be4 <_free_r+0x280>
   139f0:	0017e693          	ori	a3,a5,1
   139f4:	00d73423          	sd	a3,8(a4)
   139f8:	00f63023          	sd	a5,0(a2)
   139fc:	1ff00693          	li	a3,511
   13a00:	0cf6e063          	bltu	a3,a5,13ac0 <_free_r+0x15c>
   13a04:	0037d793          	srli	a5,a5,0x3
   13a08:	0007879b          	sext.w	a5,a5
   13a0c:	0017869b          	addiw	a3,a5,1
   13a10:	0016969b          	slliw	a3,a3,0x1
   13a14:	00369693          	slli	a3,a3,0x3
   13a18:	00853583          	ld	a1,8(a0)
   13a1c:	00d50533          	add	a0,a0,a3
   13a20:	00053603          	ld	a2,0(a0)
   13a24:	00100693          	li	a3,1
   13a28:	4027d79b          	sraiw	a5,a5,0x2
   13a2c:	00f697b3          	sll	a5,a3,a5
   13a30:	00b7e7b3          	or	a5,a5,a1
   13a34:	ff050693          	addi	a3,a0,-16
   13a38:	00d73c23          	sd	a3,24(a4)
   13a3c:	00c73823          	sd	a2,16(a4)
   13a40:	00011697          	auipc	a3,0x11
   13a44:	8ef6b823          	sd	a5,-1808(a3) # 24330 <__malloc_av_+0x8>
   13a48:	00e53023          	sd	a4,0(a0)
   13a4c:	00e63c23          	sd	a4,24(a2)
   13a50:	01013403          	ld	s0,16(sp)
   13a54:	01813083          	ld	ra,24(sp)
   13a58:	00048513          	mv	a0,s1
   13a5c:	00813483          	ld	s1,8(sp)
   13a60:	02010113          	addi	sp,sp,32
   13a64:	4110306f          	j	17674 <__malloc_unlock>
   13a68:	00883583          	ld	a1,8(a6)
   13a6c:	0015f593          	andi	a1,a1,1
   13a70:	02059e63          	bnez	a1,13aac <_free_r+0x148>
   13a74:	00d787b3          	add	a5,a5,a3
   13a78:	00011897          	auipc	a7,0x11
   13a7c:	8c088893          	addi	a7,a7,-1856 # 24338 <__malloc_av_+0x10>
   13a80:	01063683          	ld	a3,16(a2)
   13a84:	0017e813          	ori	a6,a5,1
   13a88:	00f705b3          	add	a1,a4,a5
   13a8c:	17168c63          	beq	a3,a7,13c04 <_free_r+0x2a0>
   13a90:	01863603          	ld	a2,24(a2)
   13a94:	00c6bc23          	sd	a2,24(a3)
   13a98:	00d63823          	sd	a3,16(a2)
   13a9c:	01073423          	sd	a6,8(a4)
   13aa0:	00f5b023          	sd	a5,0(a1)
   13aa4:	f59ff06f          	j	139fc <_free_r+0x98>
   13aa8:	00008067          	ret
   13aac:	0017e693          	ori	a3,a5,1
   13ab0:	fed43c23          	sd	a3,-8(s0)
   13ab4:	00f63023          	sd	a5,0(a2)
   13ab8:	1ff00693          	li	a3,511
   13abc:	f4f6f4e3          	bgeu	a3,a5,13a04 <_free_r+0xa0>
   13ac0:	0097d693          	srli	a3,a5,0x9
   13ac4:	00400613          	li	a2,4
   13ac8:	0ed66863          	bltu	a2,a3,13bb8 <_free_r+0x254>
   13acc:	0067d693          	srli	a3,a5,0x6
   13ad0:	0006869b          	sext.w	a3,a3
   13ad4:	0396859b          	addiw	a1,a3,57
   13ad8:	0015959b          	slliw	a1,a1,0x1
   13adc:	0386861b          	addiw	a2,a3,56
   13ae0:	00359593          	slli	a1,a1,0x3
   13ae4:	00b505b3          	add	a1,a0,a1
   13ae8:	0005b683          	ld	a3,0(a1)
   13aec:	ff058593          	addi	a1,a1,-16
   13af0:	12d58c63          	beq	a1,a3,13c28 <_free_r+0x2c4>
   13af4:	0086b603          	ld	a2,8(a3)
   13af8:	ffc67613          	andi	a2,a2,-4
   13afc:	00c7f663          	bgeu	a5,a2,13b08 <_free_r+0x1a4>
   13b00:	0106b683          	ld	a3,16(a3)
   13b04:	fed598e3          	bne	a1,a3,13af4 <_free_r+0x190>
   13b08:	0186b583          	ld	a1,24(a3)
   13b0c:	00b73c23          	sd	a1,24(a4)
   13b10:	00d73823          	sd	a3,16(a4)
   13b14:	01013403          	ld	s0,16(sp)
   13b18:	00e5b823          	sd	a4,16(a1)
   13b1c:	01813083          	ld	ra,24(sp)
   13b20:	00048513          	mv	a0,s1
   13b24:	00813483          	ld	s1,8(sp)
   13b28:	00e6bc23          	sd	a4,24(a3)
   13b2c:	02010113          	addi	sp,sp,32
   13b30:	3450306f          	j	17674 <__malloc_unlock>
   13b34:	16059463          	bnez	a1,13c9c <_free_r+0x338>
   13b38:	01063583          	ld	a1,16(a2)
   13b3c:	01863603          	ld	a2,24(a2)
   13b40:	00f687b3          	add	a5,a3,a5
   13b44:	0017e693          	ori	a3,a5,1
   13b48:	00c5bc23          	sd	a2,24(a1)
   13b4c:	00b63823          	sd	a1,16(a2)
   13b50:	00d73423          	sd	a3,8(a4)
   13b54:	00f70733          	add	a4,a4,a5
   13b58:	00f73023          	sd	a5,0(a4)
   13b5c:	ef5ff06f          	j	13a50 <_free_r+0xec>
   13b60:	0015f593          	andi	a1,a1,1
   13b64:	00d787b3          	add	a5,a5,a3
   13b68:	02059063          	bnez	a1,13b88 <_free_r+0x224>
   13b6c:	ff043583          	ld	a1,-16(s0)
   13b70:	40b70733          	sub	a4,a4,a1
   13b74:	01873683          	ld	a3,24(a4)
   13b78:	01073603          	ld	a2,16(a4)
   13b7c:	00b787b3          	add	a5,a5,a1
   13b80:	00d63c23          	sd	a3,24(a2)
   13b84:	00c6b823          	sd	a2,16(a3)
   13b88:	76818693          	addi	a3,gp,1896 # 24b88 <__malloc_trim_threshold>
   13b8c:	0017e613          	ori	a2,a5,1
   13b90:	0006b683          	ld	a3,0(a3)
   13b94:	00c73423          	sd	a2,8(a4)
   13b98:	00010617          	auipc	a2,0x10
   13b9c:	7ae63023          	sd	a4,1952(a2) # 24338 <__malloc_av_+0x10>
   13ba0:	ead7e8e3          	bltu	a5,a3,13a50 <_free_r+0xec>
   13ba4:	78818793          	addi	a5,gp,1928 # 24ba8 <__malloc_top_pad>
   13ba8:	0007b583          	ld	a1,0(a5)
   13bac:	00048513          	mv	a0,s1
   13bb0:	c7dff0ef          	jal	ra,1382c <_malloc_trim_r>
   13bb4:	e9dff06f          	j	13a50 <_free_r+0xec>
   13bb8:	01400613          	li	a2,20
   13bbc:	02d67863          	bgeu	a2,a3,13bec <_free_r+0x288>
   13bc0:	05400613          	li	a2,84
   13bc4:	08d66263          	bltu	a2,a3,13c48 <_free_r+0x2e4>
   13bc8:	00c7d693          	srli	a3,a5,0xc
   13bcc:	0006869b          	sext.w	a3,a3
   13bd0:	06f6859b          	addiw	a1,a3,111
   13bd4:	0015959b          	slliw	a1,a1,0x1
   13bd8:	06e6861b          	addiw	a2,a3,110
   13bdc:	00359593          	slli	a1,a1,0x3
   13be0:	f05ff06f          	j	13ae4 <_free_r+0x180>
   13be4:	00d787b3          	add	a5,a5,a3
   13be8:	e99ff06f          	j	13a80 <_free_r+0x11c>
   13bec:	0006869b          	sext.w	a3,a3
   13bf0:	05c6859b          	addiw	a1,a3,92
   13bf4:	0015959b          	slliw	a1,a1,0x1
   13bf8:	05b6861b          	addiw	a2,a3,91
   13bfc:	00359593          	slli	a1,a1,0x3
   13c00:	ee5ff06f          	j	13ae4 <_free_r+0x180>
   13c04:	00010697          	auipc	a3,0x10
   13c08:	74e6b623          	sd	a4,1868(a3) # 24350 <__malloc_av_+0x28>
   13c0c:	00010697          	auipc	a3,0x10
   13c10:	72e6be23          	sd	a4,1852(a3) # 24348 <__malloc_av_+0x20>
   13c14:	01173c23          	sd	a7,24(a4)
   13c18:	01173823          	sd	a7,16(a4)
   13c1c:	01073423          	sd	a6,8(a4)
   13c20:	00f5b023          	sd	a5,0(a1)
   13c24:	e2dff06f          	j	13a50 <_free_r+0xec>
   13c28:	00853503          	ld	a0,8(a0)
   13c2c:	00100793          	li	a5,1
   13c30:	4026561b          	sraiw	a2,a2,0x2
   13c34:	00c79633          	sll	a2,a5,a2
   13c38:	00a66633          	or	a2,a2,a0
   13c3c:	00010797          	auipc	a5,0x10
   13c40:	6ec7ba23          	sd	a2,1780(a5) # 24330 <__malloc_av_+0x8>
   13c44:	ec9ff06f          	j	13b0c <_free_r+0x1a8>
   13c48:	15400613          	li	a2,340
   13c4c:	02d66063          	bltu	a2,a3,13c6c <_free_r+0x308>
   13c50:	00f7d693          	srli	a3,a5,0xf
   13c54:	0006869b          	sext.w	a3,a3
   13c58:	0786859b          	addiw	a1,a3,120
   13c5c:	0015959b          	slliw	a1,a1,0x1
   13c60:	0776861b          	addiw	a2,a3,119
   13c64:	00359593          	slli	a1,a1,0x3
   13c68:	e7dff06f          	j	13ae4 <_free_r+0x180>
   13c6c:	55400613          	li	a2,1364
   13c70:	02d66063          	bltu	a2,a3,13c90 <_free_r+0x32c>
   13c74:	0127d693          	srli	a3,a5,0x12
   13c78:	0006869b          	sext.w	a3,a3
   13c7c:	07d6859b          	addiw	a1,a3,125
   13c80:	0015959b          	slliw	a1,a1,0x1
   13c84:	07c6861b          	addiw	a2,a3,124
   13c88:	00359593          	slli	a1,a1,0x3
   13c8c:	e59ff06f          	j	13ae4 <_free_r+0x180>
   13c90:	7f000593          	li	a1,2032
   13c94:	07e00613          	li	a2,126
   13c98:	e4dff06f          	j	13ae4 <_free_r+0x180>
   13c9c:	0017e693          	ori	a3,a5,1
   13ca0:	00d73423          	sd	a3,8(a4)
   13ca4:	00f63023          	sd	a5,0(a2)
   13ca8:	da9ff06f          	j	13a50 <_free_r+0xec>

0000000000013cac <_fwalk>:
   13cac:	fc010113          	addi	sp,sp,-64
   13cb0:	01313c23          	sd	s3,24(sp)
   13cb4:	02113c23          	sd	ra,56(sp)
   13cb8:	02813823          	sd	s0,48(sp)
   13cbc:	02913423          	sd	s1,40(sp)
   13cc0:	03213023          	sd	s2,32(sp)
   13cc4:	01413823          	sd	s4,16(sp)
   13cc8:	01513423          	sd	s5,8(sp)
   13ccc:	01613023          	sd	s6,0(sp)
   13cd0:	52050993          	addi	s3,a0,1312
   13cd4:	0a098263          	beqz	s3,13d78 <_fwalk+0xcc>
   13cd8:	00058a93          	mv	s5,a1
   13cdc:	00000913          	li	s2,0
   13ce0:	00100b13          	li	s6,1
   13ce4:	fff00a13          	li	s4,-1
   13ce8:	0089a783          	lw	a5,8(s3)
   13cec:	0109b403          	ld	s0,16(s3)
   13cf0:	04f05a63          	blez	a5,13d44 <_fwalk+0x98>
   13cf4:	fff7879b          	addiw	a5,a5,-1
   13cf8:	02079493          	slli	s1,a5,0x20
   13cfc:	0204d493          	srli	s1,s1,0x20
   13d00:	00148793          	addi	a5,s1,1
   13d04:	00179493          	slli	s1,a5,0x1
   13d08:	00f484b3          	add	s1,s1,a5
   13d0c:	00249493          	slli	s1,s1,0x2
   13d10:	40f484b3          	sub	s1,s1,a5
   13d14:	00449493          	slli	s1,s1,0x4
   13d18:	009404b3          	add	s1,s0,s1
   13d1c:	01045783          	lhu	a5,16(s0)
   13d20:	00fb7e63          	bgeu	s6,a5,13d3c <_fwalk+0x90>
   13d24:	01241783          	lh	a5,18(s0)
   13d28:	00040513          	mv	a0,s0
   13d2c:	01478863          	beq	a5,s4,13d3c <_fwalk+0x90>
   13d30:	000a80e7          	jalr	s5
   13d34:	01256933          	or	s2,a0,s2
   13d38:	0009091b          	sext.w	s2,s2
   13d3c:	0b040413          	addi	s0,s0,176
   13d40:	fc941ee3          	bne	s0,s1,13d1c <_fwalk+0x70>
   13d44:	0009b983          	ld	s3,0(s3)
   13d48:	fa0990e3          	bnez	s3,13ce8 <_fwalk+0x3c>
   13d4c:	03813083          	ld	ra,56(sp)
   13d50:	03013403          	ld	s0,48(sp)
   13d54:	00090513          	mv	a0,s2
   13d58:	02813483          	ld	s1,40(sp)
   13d5c:	02013903          	ld	s2,32(sp)
   13d60:	01813983          	ld	s3,24(sp)
   13d64:	01013a03          	ld	s4,16(sp)
   13d68:	00813a83          	ld	s5,8(sp)
   13d6c:	00013b03          	ld	s6,0(sp)
   13d70:	04010113          	addi	sp,sp,64
   13d74:	00008067          	ret
   13d78:	00000913          	li	s2,0
   13d7c:	fd1ff06f          	j	13d4c <_fwalk+0xa0>

0000000000013d80 <_fwalk_reent>:
   13d80:	fb010113          	addi	sp,sp,-80
   13d84:	03213823          	sd	s2,48(sp)
   13d88:	04113423          	sd	ra,72(sp)
   13d8c:	04813023          	sd	s0,64(sp)
   13d90:	02913c23          	sd	s1,56(sp)
   13d94:	03313423          	sd	s3,40(sp)
   13d98:	03413023          	sd	s4,32(sp)
   13d9c:	01513c23          	sd	s5,24(sp)
   13da0:	01613823          	sd	s6,16(sp)
   13da4:	01713423          	sd	s7,8(sp)
   13da8:	52050913          	addi	s2,a0,1312
   13dac:	0a090863          	beqz	s2,13e5c <_fwalk_reent+0xdc>
   13db0:	00058a93          	mv	s5,a1
   13db4:	00050993          	mv	s3,a0
   13db8:	00000b13          	li	s6,0
   13dbc:	00100b93          	li	s7,1
   13dc0:	fff00a13          	li	s4,-1
   13dc4:	00892783          	lw	a5,8(s2)
   13dc8:	01093403          	ld	s0,16(s2)
   13dcc:	04f05c63          	blez	a5,13e24 <_fwalk_reent+0xa4>
   13dd0:	fff7879b          	addiw	a5,a5,-1
   13dd4:	02079493          	slli	s1,a5,0x20
   13dd8:	0204d493          	srli	s1,s1,0x20
   13ddc:	00148793          	addi	a5,s1,1
   13de0:	00179493          	slli	s1,a5,0x1
   13de4:	00f484b3          	add	s1,s1,a5
   13de8:	00249493          	slli	s1,s1,0x2
   13dec:	40f484b3          	sub	s1,s1,a5
   13df0:	00449493          	slli	s1,s1,0x4
   13df4:	009404b3          	add	s1,s0,s1
   13df8:	01045783          	lhu	a5,16(s0)
   13dfc:	02fbf063          	bgeu	s7,a5,13e1c <_fwalk_reent+0x9c>
   13e00:	01241783          	lh	a5,18(s0)
   13e04:	00040593          	mv	a1,s0
   13e08:	00098513          	mv	a0,s3
   13e0c:	01478863          	beq	a5,s4,13e1c <_fwalk_reent+0x9c>
   13e10:	000a80e7          	jalr	s5
   13e14:	01656b33          	or	s6,a0,s6
   13e18:	000b0b1b          	sext.w	s6,s6
   13e1c:	0b040413          	addi	s0,s0,176
   13e20:	fc941ce3          	bne	s0,s1,13df8 <_fwalk_reent+0x78>
   13e24:	00093903          	ld	s2,0(s2)
   13e28:	f8091ee3          	bnez	s2,13dc4 <_fwalk_reent+0x44>
   13e2c:	04813083          	ld	ra,72(sp)
   13e30:	04013403          	ld	s0,64(sp)
   13e34:	000b0513          	mv	a0,s6
   13e38:	03813483          	ld	s1,56(sp)
   13e3c:	03013903          	ld	s2,48(sp)
   13e40:	02813983          	ld	s3,40(sp)
   13e44:	02013a03          	ld	s4,32(sp)
   13e48:	01813a83          	ld	s5,24(sp)
   13e4c:	01013b03          	ld	s6,16(sp)
   13e50:	00813b83          	ld	s7,8(sp)
   13e54:	05010113          	addi	sp,sp,80
   13e58:	00008067          	ret
   13e5c:	00000b13          	li	s6,0
   13e60:	fcdff06f          	j	13e2c <_fwalk_reent+0xac>

0000000000013e64 <eshdn1>:
   13e64:	00450693          	addi	a3,a0,4
   13e68:	00000793          	li	a5,0
   13e6c:	01a50513          	addi	a0,a0,26
   13e70:	ffff8837          	lui	a6,0xffff8
   13e74:	01c0006f          	j	13e90 <eshdn1+0x2c>
   13e78:	0017979b          	slliw	a5,a5,0x1
   13e7c:	00e69023          	sh	a4,0(a3)
   13e80:	03079793          	slli	a5,a5,0x30
   13e84:	00268693          	addi	a3,a3,2
   13e88:	0307d793          	srli	a5,a5,0x30
   13e8c:	02d50e63          	beq	a0,a3,13ec8 <eshdn1+0x64>
   13e90:	0006d703          	lhu	a4,0(a3)
   13e94:	00177613          	andi	a2,a4,1
   13e98:	00060463          	beqz	a2,13ea0 <eshdn1+0x3c>
   13e9c:	0017e793          	ori	a5,a5,1
   13ea0:	00175713          	srli	a4,a4,0x1
   13ea4:	0027f613          	andi	a2,a5,2
   13ea8:	010765b3          	or	a1,a4,a6
   13eac:	fc0606e3          	beqz	a2,13e78 <eshdn1+0x14>
   13eb0:	0017979b          	slliw	a5,a5,0x1
   13eb4:	00b69023          	sh	a1,0(a3)
   13eb8:	03079793          	slli	a5,a5,0x30
   13ebc:	00268693          	addi	a3,a3,2
   13ec0:	0307d793          	srli	a5,a5,0x30
   13ec4:	fcd516e3          	bne	a0,a3,13e90 <eshdn1+0x2c>
   13ec8:	00008067          	ret

0000000000013ecc <eshup1>:
   13ecc:	01850693          	addi	a3,a0,24
   13ed0:	00000713          	li	a4,0
   13ed4:	00250513          	addi	a0,a0,2
   13ed8:	01c0006f          	j	13ef4 <eshup1+0x28>
   13edc:	0017171b          	slliw	a4,a4,0x1
   13ee0:	00f69023          	sh	a5,0(a3)
   13ee4:	03071713          	slli	a4,a4,0x30
   13ee8:	ffe68693          	addi	a3,a3,-2
   13eec:	03075713          	srli	a4,a4,0x30
   13ef0:	04d50663          	beq	a0,a3,13f3c <eshup1+0x70>
   13ef4:	0006d783          	lhu	a5,0(a3)
   13ef8:	0107961b          	slliw	a2,a5,0x10
   13efc:	4106561b          	sraiw	a2,a2,0x10
   13f00:	02061593          	slli	a1,a2,0x20
   13f04:	0017979b          	slliw	a5,a5,0x1
   13f08:	0005d463          	bgez	a1,13f10 <eshup1+0x44>
   13f0c:	00176713          	ori	a4,a4,1
   13f10:	03079793          	slli	a5,a5,0x30
   13f14:	0307d793          	srli	a5,a5,0x30
   13f18:	00277613          	andi	a2,a4,2
   13f1c:	0017e593          	ori	a1,a5,1
   13f20:	fa060ee3          	beqz	a2,13edc <eshup1+0x10>
   13f24:	0017171b          	slliw	a4,a4,0x1
   13f28:	00b69023          	sh	a1,0(a3)
   13f2c:	03071713          	slli	a4,a4,0x30
   13f30:	ffe68693          	addi	a3,a3,-2
   13f34:	03075713          	srli	a4,a4,0x30
   13f38:	fad51ee3          	bne	a0,a3,13ef4 <eshup1+0x28>
   13f3c:	00008067          	ret

0000000000013f40 <m16m>:
   13f40:	fa010113          	addi	sp,sp,-96
   13f44:	03413823          	sd	s4,48(sp)
   13f48:	00010a37          	lui	s4,0x10
   13f4c:	04813823          	sd	s0,80(sp)
   13f50:	04913423          	sd	s1,72(sp)
   13f54:	05213023          	sd	s2,64(sp)
   13f58:	03313c23          	sd	s3,56(sp)
   13f5c:	03513423          	sd	s5,40(sp)
   13f60:	04113c23          	sd	ra,88(sp)
   13f64:	00050a93          	mv	s5,a0
   13f68:	00060493          	mv	s1,a2
   13f6c:	00011b23          	sh	zero,22(sp)
   13f70:	00011c23          	sh	zero,24(sp)
   13f74:	01858913          	addi	s2,a1,24
   13f78:	01810413          	addi	s0,sp,24
   13f7c:	00410993          	addi	s3,sp,4
   13f80:	fffa0a13          	addi	s4,s4,-1 # ffff <main-0xb1>
   13f84:	00095783          	lhu	a5,0(s2)
   13f88:	000a8593          	mv	a1,s5
   13f8c:	ffe40413          	addi	s0,s0,-2
   13f90:	ffe90913          	addi	s2,s2,-2
   13f94:	00078513          	mv	a0,a5
   13f98:	04079663          	bnez	a5,13fe4 <m16m+0xa4>
   13f9c:	fe041f23          	sh	zero,-2(s0)
   13fa0:	ff3412e3          	bne	s0,s3,13f84 <m16m+0x44>
   13fa4:	00448613          	addi	a2,s1,4
   13fa8:	01a10713          	addi	a4,sp,26
   13fac:	00045783          	lhu	a5,0(s0)
   13fb0:	00260613          	addi	a2,a2,2
   13fb4:	00240413          	addi	s0,s0,2
   13fb8:	fef61f23          	sh	a5,-2(a2)
   13fbc:	fee418e3          	bne	s0,a4,13fac <m16m+0x6c>
   13fc0:	05813083          	ld	ra,88(sp)
   13fc4:	05013403          	ld	s0,80(sp)
   13fc8:	04813483          	ld	s1,72(sp)
   13fcc:	04013903          	ld	s2,64(sp)
   13fd0:	03813983          	ld	s3,56(sp)
   13fd4:	03013a03          	ld	s4,48(sp)
   13fd8:	02813a83          	ld	s5,40(sp)
   13fdc:	06010113          	addi	sp,sp,96
   13fe0:	00008067          	ret
   13fe4:	3290d0ef          	jal	ra,21b0c <__muldi3>
   13fe8:	00245703          	lhu	a4,2(s0)
   13fec:	00045683          	lhu	a3,0(s0)
   13ff0:	014577b3          	and	a5,a0,s4
   13ff4:	00e787b3          	add	a5,a5,a4
   13ff8:	01055513          	srli	a0,a0,0x10
   13ffc:	0107d713          	srli	a4,a5,0x10
   14000:	00d50533          	add	a0,a0,a3
   14004:	00e50533          	add	a0,a0,a4
   14008:	01055713          	srli	a4,a0,0x10
   1400c:	00f41123          	sh	a5,2(s0)
   14010:	00a41023          	sh	a0,0(s0)
   14014:	fee41f23          	sh	a4,-2(s0)
   14018:	f73416e3          	bne	s0,s3,13f84 <m16m+0x44>
   1401c:	f89ff06f          	j	13fa4 <m16m+0x64>

0000000000014020 <eisnan.part.0>:
   14020:	01250713          	addi	a4,a0,18
   14024:	00250513          	addi	a0,a0,2
   14028:	ffe55783          	lhu	a5,-2(a0)
   1402c:	00079863          	bnez	a5,1403c <eisnan.part.0+0x1c>
   14030:	fea71ae3          	bne	a4,a0,14024 <eisnan.part.0+0x4>
   14034:	00000513          	li	a0,0
   14038:	00008067          	ret
   1403c:	00100513          	li	a0,1
   14040:	00008067          	ret

0000000000014044 <eneg>:
   14044:	fe010113          	addi	sp,sp,-32
   14048:	00813823          	sd	s0,16(sp)
   1404c:	01255403          	lhu	s0,18(a0)
   14050:	00913423          	sd	s1,8(sp)
   14054:	00113c23          	sd	ra,24(sp)
   14058:	fff44793          	not	a5,s0
   1405c:	03179713          	slli	a4,a5,0x31
   14060:	00050493          	mv	s1,a0
   14064:	00071663          	bnez	a4,14070 <eneg+0x2c>
   14068:	fb9ff0ef          	jal	ra,14020 <eisnan.part.0>
   1406c:	00051863          	bnez	a0,1407c <eneg+0x38>
   14070:	ffff87b7          	lui	a5,0xffff8
   14074:	00f44433          	xor	s0,s0,a5
   14078:	00849923          	sh	s0,18(s1)
   1407c:	01813083          	ld	ra,24(sp)
   14080:	01013403          	ld	s0,16(sp)
   14084:	00813483          	ld	s1,8(sp)
   14088:	02010113          	addi	sp,sp,32
   1408c:	00008067          	ret

0000000000014090 <eisneg>:
   14090:	ff010113          	addi	sp,sp,-16
   14094:	00813023          	sd	s0,0(sp)
   14098:	01255403          	lhu	s0,18(a0)
   1409c:	00113423          	sd	ra,8(sp)
   140a0:	fff44793          	not	a5,s0
   140a4:	03179713          	slli	a4,a5,0x31
   140a8:	00071863          	bnez	a4,140b8 <eisneg+0x28>
   140ac:	f75ff0ef          	jal	ra,14020 <eisnan.part.0>
   140b0:	00000793          	li	a5,0
   140b4:	00051463          	bnez	a0,140bc <eisneg+0x2c>
   140b8:	00f45793          	srli	a5,s0,0xf
   140bc:	00813083          	ld	ra,8(sp)
   140c0:	00013403          	ld	s0,0(sp)
   140c4:	00078513          	mv	a0,a5
   140c8:	01010113          	addi	sp,sp,16
   140cc:	00008067          	ret

00000000000140d0 <emovi>:
   140d0:	01255783          	lhu	a5,18(a0)
   140d4:	fe010113          	addi	sp,sp,-32
   140d8:	00813823          	sd	s0,16(sp)
   140dc:	00f7d79b          	srliw	a5,a5,0xf
   140e0:	00913423          	sd	s1,8(sp)
   140e4:	00113c23          	sd	ra,24(sp)
   140e8:	01213023          	sd	s2,0(sp)
   140ec:	40f007bb          	negw	a5,a5
   140f0:	00f59023          	sh	a5,0(a1)
   140f4:	01255783          	lhu	a5,18(a0)
   140f8:	000086b7          	lui	a3,0x8
   140fc:	fff68693          	addi	a3,a3,-1 # 7fff <main-0x80b1>
   14100:	00f6f7b3          	and	a5,a3,a5
   14104:	00f59123          	sh	a5,2(a1)
   14108:	0007879b          	sext.w	a5,a5
   1410c:	00050493          	mv	s1,a0
   14110:	01050413          	addi	s0,a0,16
   14114:	04d78063          	beq	a5,a3,14154 <emovi+0x84>
   14118:	00658793          	addi	a5,a1,6
   1411c:	00059223          	sh	zero,4(a1)
   14120:	ffe50513          	addi	a0,a0,-2
   14124:	ffe40413          	addi	s0,s0,-2
   14128:	00245703          	lhu	a4,2(s0)
   1412c:	00278793          	addi	a5,a5,2 # ffffffffffff8002 <__BSS_END__+0xfffffffffffd33e2>
   14130:	fee79f23          	sh	a4,-2(a5)
   14134:	fea418e3          	bne	s0,a0,14124 <emovi+0x54>
   14138:	00059c23          	sh	zero,24(a1)
   1413c:	01813083          	ld	ra,24(sp)
   14140:	01013403          	ld	s0,16(sp)
   14144:	00813483          	ld	s1,8(sp)
   14148:	00013903          	ld	s2,0(sp)
   1414c:	02010113          	addi	sp,sp,32
   14150:	00008067          	ret
   14154:	01255703          	lhu	a4,18(a0)
   14158:	00058913          	mv	s2,a1
   1415c:	00e7f733          	and	a4,a5,a4
   14160:	02f71863          	bne	a4,a5,14190 <emovi+0xc0>
   14164:	ebdff0ef          	jal	ra,14020 <eisnan.part.0>
   14168:	02050463          	beqz	a0,14190 <emovi+0xc0>
   1416c:	00690713          	addi	a4,s2,6
   14170:	00091223          	sh	zero,4(s2)
   14174:	ffc48793          	addi	a5,s1,-4
   14178:	ffe40413          	addi	s0,s0,-2
   1417c:	00245683          	lhu	a3,2(s0)
   14180:	00270713          	addi	a4,a4,2
   14184:	fed71f23          	sh	a3,-2(a4)
   14188:	fe8798e3          	bne	a5,s0,14178 <emovi+0xa8>
   1418c:	fb1ff06f          	j	1413c <emovi+0x6c>
   14190:	00490793          	addi	a5,s2,4
   14194:	01a90593          	addi	a1,s2,26
   14198:	00278793          	addi	a5,a5,2
   1419c:	fe079f23          	sh	zero,-2(a5)
   141a0:	fef59ce3          	bne	a1,a5,14198 <emovi+0xc8>
   141a4:	01813083          	ld	ra,24(sp)
   141a8:	01013403          	ld	s0,16(sp)
   141ac:	00813483          	ld	s1,8(sp)
   141b0:	00013903          	ld	s2,0(sp)
   141b4:	02010113          	addi	sp,sp,32
   141b8:	00008067          	ret

00000000000141bc <ecmp>:
   141bc:	01255783          	lhu	a5,18(a0)
   141c0:	fa010113          	addi	sp,sp,-96
   141c4:	04813823          	sd	s0,80(sp)
   141c8:	fff7c793          	not	a5,a5
   141cc:	04913423          	sd	s1,72(sp)
   141d0:	04113c23          	sd	ra,88(sp)
   141d4:	03179713          	slli	a4,a5,0x31
   141d8:	00050493          	mv	s1,a0
   141dc:	00058413          	mv	s0,a1
   141e0:	00071663          	bnez	a4,141ec <ecmp+0x30>
   141e4:	e3dff0ef          	jal	ra,14020 <eisnan.part.0>
   141e8:	08051263          	bnez	a0,1426c <ecmp+0xb0>
   141ec:	01245783          	lhu	a5,18(s0)
   141f0:	fff7c793          	not	a5,a5
   141f4:	03179713          	slli	a4,a5,0x31
   141f8:	06070463          	beqz	a4,14260 <ecmp+0xa4>
   141fc:	00010593          	mv	a1,sp
   14200:	00048513          	mv	a0,s1
   14204:	ecdff0ef          	jal	ra,140d0 <emovi>
   14208:	02010593          	addi	a1,sp,32
   1420c:	00040513          	mv	a0,s0
   14210:	ec1ff0ef          	jal	ra,140d0 <emovi>
   14214:	00015583          	lhu	a1,0(sp)
   14218:	02015783          	lhu	a5,32(sp)
   1421c:	04b78c63          	beq	a5,a1,14274 <ecmp+0xb8>
   14220:	00210793          	addi	a5,sp,2
   14224:	02210713          	addi	a4,sp,34
   14228:	01810613          	addi	a2,sp,24
   1422c:	0007d683          	lhu	a3,0(a5)
   14230:	00278793          	addi	a5,a5,2
   14234:	08069663          	bnez	a3,142c0 <ecmp+0x104>
   14238:	00075683          	lhu	a3,0(a4)
   1423c:	00270713          	addi	a4,a4,2
   14240:	08069063          	bnez	a3,142c0 <ecmp+0x104>
   14244:	fec794e3          	bne	a5,a2,1422c <ecmp+0x70>
   14248:	00000513          	li	a0,0
   1424c:	05813083          	ld	ra,88(sp)
   14250:	05013403          	ld	s0,80(sp)
   14254:	04813483          	ld	s1,72(sp)
   14258:	06010113          	addi	sp,sp,96
   1425c:	00008067          	ret
   14260:	00040513          	mv	a0,s0
   14264:	dbdff0ef          	jal	ra,14020 <eisnan.part.0>
   14268:	f8050ae3          	beqz	a0,141fc <ecmp+0x40>
   1426c:	ffe00513          	li	a0,-2
   14270:	fddff06f          	j	1424c <ecmp+0x90>
   14274:	00100513          	li	a0,1
   14278:	04059c63          	bnez	a1,142d0 <ecmp+0x114>
   1427c:	00210713          	addi	a4,sp,2
   14280:	02210793          	addi	a5,sp,34
   14284:	00278793          	addi	a5,a5,2
   14288:	00270713          	addi	a4,a4,2
   1428c:	ffe75603          	lhu	a2,-2(a4)
   14290:	ffe7d683          	lhu	a3,-2(a5)
   14294:	03810593          	addi	a1,sp,56
   14298:	00d61e63          	bne	a2,a3,142b4 <ecmp+0xf8>
   1429c:	fab786e3          	beq	a5,a1,14248 <ecmp+0x8c>
   142a0:	00278793          	addi	a5,a5,2
   142a4:	00270713          	addi	a4,a4,2
   142a8:	ffe75603          	lhu	a2,-2(a4)
   142ac:	ffe7d683          	lhu	a3,-2(a5)
   142b0:	fed606e3          	beq	a2,a3,1429c <ecmp+0xe0>
   142b4:	f8c6ece3          	bltu	a3,a2,1424c <ecmp+0x90>
   142b8:	40a0053b          	negw	a0,a0
   142bc:	f91ff06f          	j	1424c <ecmp+0x90>
   142c0:	00100513          	li	a0,1
   142c4:	f80584e3          	beqz	a1,1424c <ecmp+0x90>
   142c8:	fff00513          	li	a0,-1
   142cc:	f81ff06f          	j	1424c <ecmp+0x90>
   142d0:	fff00513          	li	a0,-1
   142d4:	fa9ff06f          	j	1427c <ecmp+0xc0>

00000000000142d8 <eisinf.part.1>:
   142d8:	ff010113          	addi	sp,sp,-16
   142dc:	00113423          	sd	ra,8(sp)
   142e0:	d41ff0ef          	jal	ra,14020 <eisnan.part.0>
   142e4:	00813083          	ld	ra,8(sp)
   142e8:	00153513          	seqz	a0,a0
   142ec:	01010113          	addi	sp,sp,16
   142f0:	00008067          	ret

00000000000142f4 <eshift.part.3>:
   142f4:	fe010113          	addi	sp,sp,-32
   142f8:	00813823          	sd	s0,16(sp)
   142fc:	01213023          	sd	s2,0(sp)
   14300:	00113c23          	sd	ra,24(sp)
   14304:	00913423          	sd	s1,8(sp)
   14308:	00058913          	mv	s2,a1
   1430c:	00050413          	mv	s0,a0
   14310:	0a05c263          	bltz	a1,143b4 <eshift.part.3+0xc0>
   14314:	00f00793          	li	a5,15
   14318:	00058613          	mv	a2,a1
   1431c:	00450513          	addi	a0,a0,4
   14320:	01840693          	addi	a3,s0,24
   14324:	00f00593          	li	a1,15
   14328:	0327d463          	bge	a5,s2,14350 <eshift.part.3+0x5c>
   1432c:	00050793          	mv	a5,a0
   14330:	00278793          	addi	a5,a5,2
   14334:	0007d703          	lhu	a4,0(a5)
   14338:	fee79f23          	sh	a4,-2(a5)
   1433c:	fed79ae3          	bne	a5,a3,14330 <eshift.part.3+0x3c>
   14340:	00041c23          	sh	zero,24(s0)
   14344:	ff06061b          	addiw	a2,a2,-16
   14348:	fec5c2e3          	blt	a1,a2,1432c <eshift.part.3+0x38>
   1434c:	00f97913          	andi	s2,s2,15
   14350:	00700793          	li	a5,7
   14354:	0327d863          	bge	a5,s2,14384 <eshift.part.3+0x90>
   14358:	01840793          	addi	a5,s0,24
   1435c:	00240593          	addi	a1,s0,2
   14360:	00000713          	li	a4,0
   14364:	0007d683          	lhu	a3,0(a5)
   14368:	ffe78793          	addi	a5,a5,-2
   1436c:	00869613          	slli	a2,a3,0x8
   14370:	00c76733          	or	a4,a4,a2
   14374:	00e79123          	sh	a4,2(a5)
   14378:	0086d713          	srli	a4,a3,0x8
   1437c:	feb794e3          	bne	a5,a1,14364 <eshift.part.3+0x70>
   14380:	ff89091b          	addiw	s2,s2,-8
   14384:	00090a63          	beqz	s2,14398 <eshift.part.3+0xa4>
   14388:	fff9091b          	addiw	s2,s2,-1
   1438c:	00040513          	mv	a0,s0
   14390:	b3dff0ef          	jal	ra,13ecc <eshup1>
   14394:	fe091ae3          	bnez	s2,14388 <eshift.part.3+0x94>
   14398:	01813083          	ld	ra,24(sp)
   1439c:	01013403          	ld	s0,16(sp)
   143a0:	00813483          	ld	s1,8(sp)
   143a4:	00013903          	ld	s2,0(sp)
   143a8:	00000513          	li	a0,0
   143ac:	02010113          	addi	sp,sp,32
   143b0:	00008067          	ret
   143b4:	ff100793          	li	a5,-15
   143b8:	40b004bb          	negw	s1,a1
   143bc:	0cf5d463          	bge	a1,a5,14484 <eshift.part.3+0x190>
   143c0:	01850593          	addi	a1,a0,24
   143c4:	00000913          	li	s2,0
   143c8:	00450693          	addi	a3,a0,4
   143cc:	00f00613          	li	a2,15
   143d0:	01845703          	lhu	a4,24(s0)
   143d4:	00058793          	mv	a5,a1
   143d8:	00e96933          	or	s2,s2,a4
   143dc:	ffe78793          	addi	a5,a5,-2
   143e0:	0007d703          	lhu	a4,0(a5)
   143e4:	00e79123          	sh	a4,2(a5)
   143e8:	fed79ae3          	bne	a5,a3,143dc <eshift.part.3+0xe8>
   143ec:	00041223          	sh	zero,4(s0)
   143f0:	ff04849b          	addiw	s1,s1,-16
   143f4:	fc964ee3          	blt	a2,s1,143d0 <eshift.part.3+0xdc>
   143f8:	00700793          	li	a5,7
   143fc:	0497d663          	bge	a5,s1,14448 <eshift.part.3+0x154>
   14400:	0109191b          	slliw	s2,s2,0x10
   14404:	4109591b          	sraiw	s2,s2,0x10
   14408:	01844783          	lbu	a5,24(s0)
   1440c:	01a40593          	addi	a1,s0,26
   14410:	00000713          	li	a4,0
   14414:	00f96933          	or	s2,s2,a5
   14418:	03091913          	slli	s2,s2,0x30
   1441c:	03095913          	srli	s2,s2,0x30
   14420:	0006d783          	lhu	a5,0(a3)
   14424:	00268693          	addi	a3,a3,2
   14428:	0087d61b          	srliw	a2,a5,0x8
   1442c:	00c76733          	or	a4,a4,a2
   14430:	0087979b          	slliw	a5,a5,0x8
   14434:	fee69f23          	sh	a4,-2(a3)
   14438:	03079713          	slli	a4,a5,0x30
   1443c:	03075713          	srli	a4,a4,0x30
   14440:	feb690e3          	bne	a3,a1,14420 <eshift.part.3+0x12c>
   14444:	ff84849b          	addiw	s1,s1,-8
   14448:	02048063          	beqz	s1,14468 <eshift.part.3+0x174>
   1444c:	01845783          	lhu	a5,24(s0)
   14450:	fff4849b          	addiw	s1,s1,-1
   14454:	00040513          	mv	a0,s0
   14458:	0017f793          	andi	a5,a5,1
   1445c:	0127e933          	or	s2,a5,s2
   14460:	a05ff0ef          	jal	ra,13e64 <eshdn1>
   14464:	fe0494e3          	bnez	s1,1444c <eshift.part.3+0x158>
   14468:	01813083          	ld	ra,24(sp)
   1446c:	01013403          	ld	s0,16(sp)
   14470:	01203533          	snez	a0,s2
   14474:	00813483          	ld	s1,8(sp)
   14478:	00013903          	ld	s2,0(sp)
   1447c:	02010113          	addi	sp,sp,32
   14480:	00008067          	ret
   14484:	ff900793          	li	a5,-7
   14488:	00f5c663          	blt	a1,a5,14494 <eshift.part.3+0x1a0>
   1448c:	00000913          	li	s2,0
   14490:	fbdff06f          	j	1444c <eshift.part.3+0x158>
   14494:	00000913          	li	s2,0
   14498:	00440693          	addi	a3,s0,4
   1449c:	f6dff06f          	j	14408 <eshift.part.3+0x114>

00000000000144a0 <enormlz>:
   144a0:	00455783          	lhu	a5,4(a0)
   144a4:	fe010113          	addi	sp,sp,-32
   144a8:	00913423          	sd	s1,8(sp)
   144ac:	00113c23          	sd	ra,24(sp)
   144b0:	00813823          	sd	s0,16(sp)
   144b4:	01213023          	sd	s2,0(sp)
   144b8:	00050493          	mv	s1,a0
   144bc:	0e079063          	bnez	a5,1459c <enormlz+0xfc>
   144c0:	00655703          	lhu	a4,6(a0)
   144c4:	00000413          	li	s0,0
   144c8:	0107179b          	slliw	a5,a4,0x10
   144cc:	4107d79b          	sraiw	a5,a5,0x10
   144d0:	02079693          	slli	a3,a5,0x20
   144d4:	0a06c663          	bltz	a3,14580 <enormlz+0xe0>
   144d8:	01a50693          	addi	a3,a0,26
   144dc:	0a000613          	li	a2,160
   144e0:	02071863          	bnez	a4,14510 <enormlz+0x70>
   144e4:	00648793          	addi	a5,s1,6
   144e8:	0080006f          	j	144f0 <enormlz+0x50>
   144ec:	0007d703          	lhu	a4,0(a5)
   144f0:	00278793          	addi	a5,a5,2
   144f4:	fee79e23          	sh	a4,-4(a5)
   144f8:	fef69ae3          	bne	a3,a5,144ec <enormlz+0x4c>
   144fc:	00049c23          	sh	zero,24(s1)
   14500:	0104041b          	addiw	s0,s0,16
   14504:	06c40e63          	beq	s0,a2,14580 <enormlz+0xe0>
   14508:	0064d703          	lhu	a4,6(s1)
   1450c:	fc070ce3          	beqz	a4,144e4 <enormlz+0x44>
   14510:	f0077793          	andi	a5,a4,-256
   14514:	04079063          	bnez	a5,14554 <enormlz+0xb4>
   14518:	01848513          	addi	a0,s1,24
   1451c:	00248593          	addi	a1,s1,2
   14520:	00000713          	li	a4,0
   14524:	00050793          	mv	a5,a0
   14528:	0007d683          	lhu	a3,0(a5)
   1452c:	ffe78793          	addi	a5,a5,-2
   14530:	00869613          	slli	a2,a3,0x8
   14534:	00c76733          	or	a4,a4,a2
   14538:	00e79123          	sh	a4,2(a5)
   1453c:	0086d713          	srli	a4,a3,0x8
   14540:	fef594e3          	bne	a1,a5,14528 <enormlz+0x88>
   14544:	0064d703          	lhu	a4,6(s1)
   14548:	0084041b          	addiw	s0,s0,8
   1454c:	f0077793          	andi	a5,a4,-256
   14550:	fc0788e3          	beqz	a5,14520 <enormlz+0x80>
   14554:	0a000913          	li	s2,160
   14558:	0140006f          	j	1456c <enormlz+0xcc>
   1455c:	0014041b          	addiw	s0,s0,1
   14560:	96dff0ef          	jal	ra,13ecc <eshup1>
   14564:	00894e63          	blt	s2,s0,14580 <enormlz+0xe0>
   14568:	0064d703          	lhu	a4,6(s1)
   1456c:	0107171b          	slliw	a4,a4,0x10
   14570:	4107571b          	sraiw	a4,a4,0x10
   14574:	02071793          	slli	a5,a4,0x20
   14578:	00048513          	mv	a0,s1
   1457c:	fe07d0e3          	bgez	a5,1455c <enormlz+0xbc>
   14580:	00040513          	mv	a0,s0
   14584:	01813083          	ld	ra,24(sp)
   14588:	01013403          	ld	s0,16(sp)
   1458c:	00813483          	ld	s1,8(sp)
   14590:	00013903          	ld	s2,0(sp)
   14594:	02010113          	addi	sp,sp,32
   14598:	00008067          	ret
   1459c:	f007f713          	andi	a4,a5,-256
   145a0:	00000413          	li	s0,0
   145a4:	04071063          	bnez	a4,145e4 <enormlz+0x144>
   145a8:	f6f00913          	li	s2,-145
   145ac:	0140006f          	j	145c0 <enormlz+0x120>
   145b0:	fff4041b          	addiw	s0,s0,-1
   145b4:	8b1ff0ef          	jal	ra,13e64 <eshdn1>
   145b8:	fd2404e3          	beq	s0,s2,14580 <enormlz+0xe0>
   145bc:	0044d783          	lhu	a5,4(s1)
   145c0:	00048513          	mv	a0,s1
   145c4:	fe0796e3          	bnez	a5,145b0 <enormlz+0x110>
   145c8:	00040513          	mv	a0,s0
   145cc:	01813083          	ld	ra,24(sp)
   145d0:	01013403          	ld	s0,16(sp)
   145d4:	00813483          	ld	s1,8(sp)
   145d8:	00013903          	ld	s2,0(sp)
   145dc:	02010113          	addi	sp,sp,32
   145e0:	00008067          	ret
   145e4:	00450693          	addi	a3,a0,4
   145e8:	01a50593          	addi	a1,a0,26
   145ec:	00000713          	li	a4,0
   145f0:	0080006f          	j	145f8 <enormlz+0x158>
   145f4:	0006d783          	lhu	a5,0(a3)
   145f8:	0087d61b          	srliw	a2,a5,0x8
   145fc:	00c76733          	or	a4,a4,a2
   14600:	0087979b          	slliw	a5,a5,0x8
   14604:	00e69023          	sh	a4,0(a3)
   14608:	03079713          	slli	a4,a5,0x30
   1460c:	00268693          	addi	a3,a3,2
   14610:	03075713          	srli	a4,a4,0x30
   14614:	feb690e3          	bne	a3,a1,145f4 <enormlz+0x154>
   14618:	0044d783          	lhu	a5,4(s1)
   1461c:	ff800413          	li	s0,-8
   14620:	f89ff06f          	j	145a8 <enormlz+0x108>

0000000000014624 <emdnorm>:
   14624:	fc010113          	addi	sp,sp,-64
   14628:	02813823          	sd	s0,48(sp)
   1462c:	02913423          	sd	s1,40(sp)
   14630:	03213023          	sd	s2,32(sp)
   14634:	01313c23          	sd	s3,24(sp)
   14638:	01413823          	sd	s4,16(sp)
   1463c:	01513423          	sd	s5,8(sp)
   14640:	00068913          	mv	s2,a3
   14644:	00078493          	mv	s1,a5
   14648:	02113c23          	sd	ra,56(sp)
   1464c:	00050413          	mv	s0,a0
   14650:	00058993          	mv	s3,a1
   14654:	00060a13          	mv	s4,a2
   14658:	00070a93          	mv	s5,a4
   1465c:	e45ff0ef          	jal	ra,144a0 <enormlz>
   14660:	09000793          	li	a5,144
   14664:	40a90933          	sub	s2,s2,a0
   14668:	08a7d063          	bge	a5,a0,146e8 <emdnorm+0xc4>
   1466c:	000087b7          	lui	a5,0x8
   14670:	ffe78793          	addi	a5,a5,-2 # 7ffe <main-0x80b2>
   14674:	2327dc63          	bge	a5,s2,148ac <emdnorm+0x288>
   14678:	200a8663          	beqz	s5,14884 <emdnorm+0x260>
   1467c:	0044a503          	lw	a0,4(s1)
   14680:	0004a783          	lw	a5,0(s1)
   14684:	0ea78e63          	beq	a5,a0,14780 <emdnorm+0x15c>
   14688:	01a48713          	addi	a4,s1,26
   1468c:	03448793          	addi	a5,s1,52
   14690:	00270713          	addi	a4,a4,2
   14694:	fe071f23          	sh	zero,-2(a4)
   14698:	fef71ce3          	bne	a4,a5,14690 <emdnorm+0x6c>
   1469c:	03800793          	li	a5,56
   146a0:	38f50263          	beq	a0,a5,14a24 <emdnorm+0x400>
   146a4:	06a7d463          	bge	a5,a0,1470c <emdnorm+0xe8>
   146a8:	04000793          	li	a5,64
   146ac:	30f50c63          	beq	a0,a5,149c4 <emdnorm+0x3a0>
   146b0:	07100793          	li	a5,113
   146b4:	32f51e63          	bne	a0,a5,149f0 <emdnorm+0x3cc>
   146b8:	00a00793          	li	a5,10
   146bc:	40008737          	lui	a4,0x40008
   146c0:	fff70713          	addi	a4,a4,-1 # 40007fff <__BSS_END__+0x3ffe33df>
   146c4:	02079793          	slli	a5,a5,0x20
   146c8:	00a78793          	addi	a5,a5,10
   146cc:	00e4aa23          	sw	a4,20(s1)
   146d0:	ffff8737          	lui	a4,0xffff8
   146d4:	00e49c23          	sh	a4,24(s1)
   146d8:	00f4b423          	sd	a5,8(s1)
   146dc:	00008737          	lui	a4,0x8
   146e0:	00a00793          	li	a5,10
   146e4:	0640006f          	j	14748 <emdnorm+0x124>
   146e8:	20095263          	bgez	s2,148ec <emdnorm+0x2c8>
   146ec:	f7000793          	li	a5,-144
   146f0:	1cf95a63          	bge	s2,a5,148c4 <emdnorm+0x2a0>
   146f4:	00240793          	addi	a5,s0,2
   146f8:	01a40413          	addi	s0,s0,26
   146fc:	00278793          	addi	a5,a5,2
   14700:	fe079f23          	sh	zero,-2(a5)
   14704:	fe879ce3          	bne	a5,s0,146fc <emdnorm+0xd8>
   14708:	1580006f          	j	14860 <emdnorm+0x23c>
   1470c:	01800793          	li	a5,24
   14710:	28f50463          	beq	a0,a5,14998 <emdnorm+0x374>
   14714:	03500793          	li	a5,53
   14718:	2cf51c63          	bne	a0,a5,149f0 <emdnorm+0x3cc>
   1471c:	040006b7          	lui	a3,0x4000
   14720:	00001737          	lui	a4,0x1
   14724:	7ff68693          	addi	a3,a3,2047 # 40007ff <__BSS_END__+0x3fdbbdf>
   14728:	00600793          	li	a5,6
   1472c:	80070713          	addi	a4,a4,-2048 # 800 <main-0xf8b0>
   14730:	00d4aa23          	sw	a3,20(s1)
   14734:	02079793          	slli	a5,a5,0x20
   14738:	00678793          	addi	a5,a5,6
   1473c:	00f4b423          	sd	a5,8(s1)
   14740:	00e49c23          	sh	a4,24(s1)
   14744:	00600793          	li	a5,6
   14748:	00878793          	addi	a5,a5,8
   1474c:	00179793          	slli	a5,a5,0x1
   14750:	00f487b3          	add	a5,s1,a5
   14754:	00e79523          	sh	a4,10(a5)
   14758:	00a4a023          	sw	a0,0(s1)
   1475c:	03204263          	bgtz	s2,14780 <emdnorm+0x15c>
   14760:	09000793          	li	a5,144
   14764:	20f50663          	beq	a0,a5,14970 <emdnorm+0x34c>
   14768:	01845783          	lhu	a5,24(s0)
   1476c:	00040513          	mv	a0,s0
   14770:	0017f793          	andi	a5,a5,1
   14774:	00f9e9b3          	or	s3,s3,a5
   14778:	eecff0ef          	jal	ra,13e64 <eshdn1>
   1477c:	0044a503          	lw	a0,4(s1)
   14780:	0084a683          	lw	a3,8(s1)
   14784:	0144d603          	lhu	a2,20(s1)
   14788:	08f00793          	li	a5,143
   1478c:	00169713          	slli	a4,a3,0x1
   14790:	00e40833          	add	a6,s0,a4
   14794:	00085883          	lhu	a7,0(a6) # ffffffffffff8000 <__BSS_END__+0xfffffffffffd33e0>
   14798:	00c8f5b3          	and	a1,a7,a2
   1479c:	04a7c863          	blt	a5,a0,147ec <emdnorm+0x1c8>
   147a0:	00b00793          	li	a5,11
   147a4:	04d7c463          	blt	a5,a3,147ec <emdnorm+0x1c8>
   147a8:	40d787bb          	subw	a5,a5,a3
   147ac:	02079793          	slli	a5,a5,0x20
   147b0:	0207d793          	srli	a5,a5,0x20
   147b4:	00d787b3          	add	a5,a5,a3
   147b8:	00179693          	slli	a3,a5,0x1
   147bc:	00270713          	addi	a4,a4,2
   147c0:	00440793          	addi	a5,s0,4
   147c4:	00e40733          	add	a4,s0,a4
   147c8:	00f687b3          	add	a5,a3,a5
   147cc:	00075683          	lhu	a3,0(a4)
   147d0:	00068463          	beqz	a3,147d8 <emdnorm+0x1b4>
   147d4:	0015e593          	ori	a1,a1,1
   147d8:	00071023          	sh	zero,0(a4)
   147dc:	00270713          	addi	a4,a4,2
   147e0:	fee796e3          	bne	a5,a4,147cc <emdnorm+0x1a8>
   147e4:	00085883          	lhu	a7,0(a6)
   147e8:	0144d603          	lhu	a2,20(s1)
   147ec:	fff64613          	not	a2,a2
   147f0:	01167633          	and	a2,a2,a7
   147f4:	00c81023          	sh	a2,0(a6)
   147f8:	0164d783          	lhu	a5,22(s1)
   147fc:	00b7f733          	and	a4,a5,a1
   14800:	04070063          	beqz	a4,14840 <emdnorm+0x21c>
   14804:	12b78263          	beq	a5,a1,14928 <emdnorm+0x304>
   14808:	03248613          	addi	a2,s1,50
   1480c:	01840713          	addi	a4,s0,24
   14810:	01c48493          	addi	s1,s1,28
   14814:	00000693          	li	a3,0
   14818:	00065783          	lhu	a5,0(a2)
   1481c:	00075583          	lhu	a1,0(a4)
   14820:	ffe70713          	addi	a4,a4,-2
   14824:	ffe60613          	addi	a2,a2,-2
   14828:	00b787b3          	add	a5,a5,a1
   1482c:	00d787b3          	add	a5,a5,a3
   14830:	00f71123          	sh	a5,2(a4)
   14834:	0107d793          	srli	a5,a5,0x10
   14838:	0017f693          	andi	a3,a5,1
   1483c:	fc961ee3          	bne	a2,s1,14818 <emdnorm+0x1f4>
   14840:	11205663          	blez	s2,1494c <emdnorm+0x328>
   14844:	00445783          	lhu	a5,4(s0)
   14848:	0a079c63          	bnez	a5,14900 <emdnorm+0x2dc>
   1484c:	000087b7          	lui	a5,0x8
   14850:	00041c23          	sh	zero,24(s0)
   14854:	ffe78793          	addi	a5,a5,-2 # 7ffe <main-0x80b2>
   14858:	0327c863          	blt	a5,s2,14888 <emdnorm+0x264>
   1485c:	01241123          	sh	s2,2(s0)
   14860:	03813083          	ld	ra,56(sp)
   14864:	03013403          	ld	s0,48(sp)
   14868:	02813483          	ld	s1,40(sp)
   1486c:	02013903          	ld	s2,32(sp)
   14870:	01813983          	ld	s3,24(sp)
   14874:	01013a03          	ld	s4,16(sp)
   14878:	00813a83          	ld	s5,8(sp)
   1487c:	04010113          	addi	sp,sp,64
   14880:	00008067          	ret
   14884:	00041c23          	sh	zero,24(s0)
   14888:	ffff87b7          	lui	a5,0xffff8
   1488c:	fff7c793          	not	a5,a5
   14890:	00f41123          	sh	a5,2(s0)
   14894:	00440793          	addi	a5,s0,4
   14898:	01840413          	addi	s0,s0,24
   1489c:	00079023          	sh	zero,0(a5) # ffffffffffff8000 <__BSS_END__+0xfffffffffffd33e0>
   148a0:	00278793          	addi	a5,a5,2
   148a4:	fef41ce3          	bne	s0,a5,1489c <emdnorm+0x278>
   148a8:	fb9ff06f          	j	14860 <emdnorm+0x23c>
   148ac:	00240793          	addi	a5,s0,2
   148b0:	01a40413          	addi	s0,s0,26
   148b4:	00278793          	addi	a5,a5,2
   148b8:	fe079f23          	sh	zero,-2(a5)
   148bc:	fe879ce3          	bne	a5,s0,148b4 <emdnorm+0x290>
   148c0:	fa1ff06f          	j	14860 <emdnorm+0x23c>
   148c4:	0009059b          	sext.w	a1,s2
   148c8:	00040513          	mv	a0,s0
   148cc:	a29ff0ef          	jal	ra,142f4 <eshift.part.3>
   148d0:	00050463          	beqz	a0,148d8 <emdnorm+0x2b4>
   148d4:	00100993          	li	s3,1
   148d8:	0a0a8a63          	beqz	s5,1498c <emdnorm+0x368>
   148dc:	0044a503          	lw	a0,4(s1)
   148e0:	0004a783          	lw	a5,0(s1)
   148e4:	daa792e3          	bne	a5,a0,14688 <emdnorm+0x64>
   148e8:	e79ff06f          	j	14760 <emdnorm+0x13c>
   148ec:	f60a80e3          	beqz	s5,1484c <emdnorm+0x228>
   148f0:	0044a503          	lw	a0,4(s1)
   148f4:	0004a783          	lw	a5,0(s1)
   148f8:	d8a798e3          	bne	a5,a0,14688 <emdnorm+0x64>
   148fc:	e61ff06f          	j	1475c <emdnorm+0x138>
   14900:	00040513          	mv	a0,s0
   14904:	d60ff0ef          	jal	ra,13e64 <eshdn1>
   14908:	000087b7          	lui	a5,0x8
   1490c:	00190913          	addi	s2,s2,1
   14910:	00041c23          	sh	zero,24(s0)
   14914:	ffe78793          	addi	a5,a5,-2 # 7ffe <main-0x80b2>
   14918:	f727c8e3          	blt	a5,s2,14888 <emdnorm+0x264>
   1491c:	f40950e3          	bgez	s2,1485c <emdnorm+0x238>
   14920:	00041123          	sh	zero,2(s0)
   14924:	f3dff06f          	j	14860 <emdnorm+0x23c>
   14928:	0e099a63          	bnez	s3,14a1c <emdnorm+0x3f8>
   1492c:	00c4a783          	lw	a5,12(s1)
   14930:	0184d703          	lhu	a4,24(s1)
   14934:	00179793          	slli	a5,a5,0x1
   14938:	00f407b3          	add	a5,s0,a5
   1493c:	0007d783          	lhu	a5,0(a5)
   14940:	00e7f7b3          	and	a5,a5,a4
   14944:	ec0792e3          	bnez	a5,14808 <emdnorm+0x1e4>
   14948:	ef204ee3          	bgtz	s2,14844 <emdnorm+0x220>
   1494c:	09000793          	li	a5,144
   14950:	00f50663          	beq	a0,a5,1495c <emdnorm+0x338>
   14954:	00040513          	mv	a0,s0
   14958:	d74ff0ef          	jal	ra,13ecc <eshup1>
   1495c:	00445783          	lhu	a5,4(s0)
   14960:	fa0790e3          	bnez	a5,14900 <emdnorm+0x2dc>
   14964:	00041c23          	sh	zero,24(s0)
   14968:	fa094ce3          	bltz	s2,14920 <emdnorm+0x2fc>
   1496c:	ef1ff06f          	j	1485c <emdnorm+0x238>
   14970:	0084a803          	lw	a6,8(s1)
   14974:	0144d603          	lhu	a2,20(s1)
   14978:	00181813          	slli	a6,a6,0x1
   1497c:	01040833          	add	a6,s0,a6
   14980:	00085883          	lhu	a7,0(a6)
   14984:	011675b3          	and	a1,a2,a7
   14988:	e65ff06f          	j	147ec <emdnorm+0x1c8>
   1498c:	00041c23          	sh	zero,24(s0)
   14990:	00041123          	sh	zero,2(s0)
   14994:	ecdff06f          	j	14860 <emdnorm+0x23c>
   14998:	00400793          	li	a5,4
   1499c:	00800737          	lui	a4,0x800
   149a0:	0ff70713          	addi	a4,a4,255 # 8000ff <__BSS_END__+0x7db4df>
   149a4:	02079793          	slli	a5,a5,0x20
   149a8:	00478793          	addi	a5,a5,4
   149ac:	00e4aa23          	sw	a4,20(s1)
   149b0:	10000713          	li	a4,256
   149b4:	00f4b423          	sd	a5,8(s1)
   149b8:	00e49c23          	sh	a4,24(s1)
   149bc:	00400793          	li	a5,4
   149c0:	d89ff06f          	j	14748 <emdnorm+0x124>
   149c4:	00300793          	li	a5,3
   149c8:	80010737          	lui	a4,0x80010
   149cc:	fff70713          	addi	a4,a4,-1 # ffffffff8000ffff <__BSS_END__+0xffffffff7ffeb3df>
   149d0:	02179793          	slli	a5,a5,0x21
   149d4:	00778793          	addi	a5,a5,7
   149d8:	00e4aa23          	sw	a4,20(s1)
   149dc:	00100713          	li	a4,1
   149e0:	00f4b423          	sd	a5,8(s1)
   149e4:	00e49c23          	sh	a4,24(s1)
   149e8:	00600793          	li	a5,6
   149ec:	d5dff06f          	j	14748 <emdnorm+0x124>
   149f0:	00b00793          	li	a5,11
   149f4:	80010737          	lui	a4,0x80010
   149f8:	fff70713          	addi	a4,a4,-1 # ffffffff8000ffff <__BSS_END__+0xffffffff7ffeb3df>
   149fc:	02079793          	slli	a5,a5,0x20
   14a00:	00c78793          	addi	a5,a5,12
   14a04:	00e4aa23          	sw	a4,20(s1)
   14a08:	00100713          	li	a4,1
   14a0c:	00f4b423          	sd	a5,8(s1)
   14a10:	00e49c23          	sh	a4,24(s1)
   14a14:	00b00793          	li	a5,11
   14a18:	d31ff06f          	j	14748 <emdnorm+0x124>
   14a1c:	de0a06e3          	beqz	s4,14808 <emdnorm+0x1e4>
   14a20:	e21ff06f          	j	14840 <emdnorm+0x21c>
   14a24:	00800737          	lui	a4,0x800
   14a28:	0ff70713          	addi	a4,a4,255 # 8000ff <__BSS_END__+0x7db4df>
   14a2c:	00e4aa23          	sw	a4,20(s1)
   14a30:	00600793          	li	a5,6
   14a34:	10000713          	li	a4,256
   14a38:	cfdff06f          	j	14734 <emdnorm+0x110>

0000000000014a3c <eiremain>:
   14a3c:	fa010113          	addi	sp,sp,-96
   14a40:	03313c23          	sd	s3,56(sp)
   14a44:	00255983          	lhu	s3,2(a0)
   14a48:	04913423          	sd	s1,72(sp)
   14a4c:	00058493          	mv	s1,a1
   14a50:	04113c23          	sd	ra,88(sp)
   14a54:	04813823          	sd	s0,80(sp)
   14a58:	05213023          	sd	s2,64(sp)
   14a5c:	03413823          	sd	s4,48(sp)
   14a60:	00060913          	mv	s2,a2
   14a64:	03513423          	sd	s5,40(sp)
   14a68:	03613023          	sd	s6,32(sp)
   14a6c:	01713c23          	sd	s7,24(sp)
   14a70:	01813823          	sd	s8,16(sp)
   14a74:	01913423          	sd	s9,8(sp)
   14a78:	01a13023          	sd	s10,0(sp)
   14a7c:	00050a13          	mv	s4,a0
   14a80:	a21ff0ef          	jal	ra,144a0 <enormlz>
   14a84:	0024d403          	lhu	s0,2(s1)
   14a88:	40a989b3          	sub	s3,s3,a0
   14a8c:	00048513          	mv	a0,s1
   14a90:	a11ff0ef          	jal	ra,144a0 <enormlz>
   14a94:	03490a93          	addi	s5,s2,52
   14a98:	40a40433          	sub	s0,s0,a0
   14a9c:	04e90713          	addi	a4,s2,78
   14aa0:	000a8793          	mv	a5,s5
   14aa4:	00278793          	addi	a5,a5,2
   14aa8:	fe079f23          	sh	zero,-2(a5)
   14aac:	fee79ce3          	bne	a5,a4,14aa4 <eiremain+0x68>
   14ab0:	09344a63          	blt	s0,s3,14b44 <eiremain+0x108>
   14ab4:	004a0b93          	addi	s7,s4,4
   14ab8:	00448b13          	addi	s6,s1,4
   14abc:	fff98993          	addi	s3,s3,-1
   14ac0:	01aa0c93          	addi	s9,s4,26
   14ac4:	00248c13          	addi	s8,s1,2
   14ac8:	000b0713          	mv	a4,s6
   14acc:	000b8793          	mv	a5,s7
   14ad0:	00278793          	addi	a5,a5,2
   14ad4:	00270713          	addi	a4,a4,2
   14ad8:	ffe7d603          	lhu	a2,-2(a5)
   14adc:	ffe75683          	lhu	a3,-2(a4)
   14ae0:	0ad61a63          	bne	a2,a3,14b94 <eiremain+0x158>
   14ae4:	fefc96e3          	bne	s9,a5,14ad0 <eiremain+0x94>
   14ae8:	018a0693          	addi	a3,s4,24
   14aec:	01848713          	addi	a4,s1,24
   14af0:	00000613          	li	a2,0
   14af4:	00075783          	lhu	a5,0(a4)
   14af8:	0006d583          	lhu	a1,0(a3)
   14afc:	ffe70713          	addi	a4,a4,-2
   14b00:	40c787b3          	sub	a5,a5,a2
   14b04:	40b787b3          	sub	a5,a5,a1
   14b08:	00f71123          	sh	a5,2(a4)
   14b0c:	0107d793          	srli	a5,a5,0x10
   14b10:	ffe68693          	addi	a3,a3,-2
   14b14:	0017f613          	andi	a2,a5,1
   14b18:	fcec1ee3          	bne	s8,a4,14af4 <eiremain+0xb8>
   14b1c:	00100d13          	li	s10,1
   14b20:	000a8513          	mv	a0,s5
   14b24:	ba8ff0ef          	jal	ra,13ecc <eshup1>
   14b28:	04c95783          	lhu	a5,76(s2)
   14b2c:	fff40413          	addi	s0,s0,-1
   14b30:	00048513          	mv	a0,s1
   14b34:	00fd6d33          	or	s10,s10,a5
   14b38:	05a91623          	sh	s10,76(s2)
   14b3c:	b90ff0ef          	jal	ra,13ecc <eshup1>
   14b40:	f93414e3          	bne	s0,s3,14ac8 <eiremain+0x8c>
   14b44:	00040693          	mv	a3,s0
   14b48:	05013403          	ld	s0,80(sp)
   14b4c:	05813083          	ld	ra,88(sp)
   14b50:	03813983          	ld	s3,56(sp)
   14b54:	03013a03          	ld	s4,48(sp)
   14b58:	02813a83          	ld	s5,40(sp)
   14b5c:	02013b03          	ld	s6,32(sp)
   14b60:	01813b83          	ld	s7,24(sp)
   14b64:	01013c03          	ld	s8,16(sp)
   14b68:	00813c83          	ld	s9,8(sp)
   14b6c:	00013d03          	ld	s10,0(sp)
   14b70:	00090793          	mv	a5,s2
   14b74:	00048513          	mv	a0,s1
   14b78:	04013903          	ld	s2,64(sp)
   14b7c:	04813483          	ld	s1,72(sp)
   14b80:	00000713          	li	a4,0
   14b84:	00000613          	li	a2,0
   14b88:	00000593          	li	a1,0
   14b8c:	06010113          	addi	sp,sp,96
   14b90:	a95ff06f          	j	14624 <emdnorm>
   14b94:	00000d13          	li	s10,0
   14b98:	f8c6e4e3          	bltu	a3,a2,14b20 <eiremain+0xe4>
   14b9c:	f4dff06f          	j	14ae8 <eiremain+0xac>

0000000000014ba0 <emovo.isra.6>:
   14ba0:	00055703          	lhu	a4,0(a0)
   14ba4:	00255783          	lhu	a5,2(a0)
   14ba8:	00070663          	beqz	a4,14bb4 <emovo.isra.6+0x14>
   14bac:	00008737          	lui	a4,0x8
   14bb0:	00e7e7b3          	or	a5,a5,a4
   14bb4:	00f59923          	sh	a5,18(a1)
   14bb8:	00255703          	lhu	a4,2(a0)
   14bbc:	000087b7          	lui	a5,0x8
   14bc0:	fff78793          	addi	a5,a5,-1 # 7fff <main-0x80b1>
   14bc4:	02f70463          	beq	a4,a5,14bec <emovo.isra.6+0x4c>
   14bc8:	00650793          	addi	a5,a0,6
   14bcc:	01058593          	addi	a1,a1,16
   14bd0:	01850513          	addi	a0,a0,24
   14bd4:	00278793          	addi	a5,a5,2
   14bd8:	ffe7d703          	lhu	a4,-2(a5)
   14bdc:	ffe58593          	addi	a1,a1,-2
   14be0:	00e59123          	sh	a4,2(a1)
   14be4:	fea798e3          	bne	a5,a0,14bd4 <emovo.isra.6+0x34>
   14be8:	00008067          	ret
   14bec:	00650793          	addi	a5,a0,6
   14bf0:	01a50513          	addi	a0,a0,26
   14bf4:	0007d703          	lhu	a4,0(a5)
   14bf8:	00278793          	addi	a5,a5,2
   14bfc:	02071a63          	bnez	a4,14c30 <emovo.isra.6+0x90>
   14c00:	fea79ae3          	bne	a5,a0,14bf4 <emovo.isra.6+0x54>
   14c04:	01258713          	addi	a4,a1,18
   14c08:	00058793          	mv	a5,a1
   14c0c:	00278793          	addi	a5,a5,2
   14c10:	fe079f23          	sh	zero,-2(a5)
   14c14:	fef71ce3          	bne	a4,a5,14c0c <emovo.isra.6+0x6c>
   14c18:	0125d783          	lhu	a5,18(a1)
   14c1c:	00008737          	lui	a4,0x8
   14c20:	fff70713          	addi	a4,a4,-1 # 7fff <main-0x80b1>
   14c24:	00e7e7b3          	or	a5,a5,a4
   14c28:	00f59923          	sh	a5,18(a1)
   14c2c:	00008067          	ret
   14c30:	01058713          	addi	a4,a1,16
   14c34:	00058793          	mv	a5,a1
   14c38:	00278793          	addi	a5,a5,2
   14c3c:	fe079f23          	sh	zero,-2(a5)
   14c40:	fef71ce3          	bne	a4,a5,14c38 <emovo.isra.6+0x98>
   14c44:	7fffc7b7          	lui	a5,0x7fffc
   14c48:	00f5a823          	sw	a5,16(a1)
   14c4c:	00008067          	ret

0000000000014c50 <emul>:
   14c50:	f4010113          	addi	sp,sp,-192
   14c54:	09513423          	sd	s5,136(sp)
   14c58:	01255a83          	lhu	s5,18(a0)
   14c5c:	000087b7          	lui	a5,0x8
   14c60:	fff78793          	addi	a5,a5,-1 # 7fff <main-0x80b1>
   14c64:	0a813823          	sd	s0,176(sp)
   14c68:	0a913423          	sd	s1,168(sp)
   14c6c:	0b213023          	sd	s2,160(sp)
   14c70:	09313c23          	sd	s3,152(sp)
   14c74:	09613023          	sd	s6,128(sp)
   14c78:	0a113c23          	sd	ra,184(sp)
   14c7c:	09413823          	sd	s4,144(sp)
   14c80:	07713c23          	sd	s7,120(sp)
   14c84:	07813823          	sd	s8,112(sp)
   14c88:	07913423          	sd	s9,104(sp)
   14c8c:	0157fb33          	and	s6,a5,s5
   14c90:	00050493          	mv	s1,a0
   14c94:	00058913          	mv	s2,a1
   14c98:	00060413          	mv	s0,a2
   14c9c:	00068993          	mv	s3,a3
   14ca0:	0afb1863          	bne	s6,a5,14d50 <emul+0x100>
   14ca4:	b7cff0ef          	jal	ra,14020 <eisnan.part.0>
   14ca8:	20051c63          	bnez	a0,14ec0 <emul+0x270>
   14cac:	01295a03          	lhu	s4,18(s2)
   14cb0:	014b77b3          	and	a5,s6,s4
   14cb4:	23679463          	bne	a5,s6,14edc <emul+0x28c>
   14cb8:	00090513          	mv	a0,s2
   14cbc:	b64ff0ef          	jal	ra,14020 <eisnan.part.0>
   14cc0:	0a051463          	bnez	a0,14d68 <emul+0x118>
   14cc4:	00048513          	mv	a0,s1
   14cc8:	e10ff0ef          	jal	ra,142d8 <eisinf.part.1>
   14ccc:	20051e63          	bnez	a0,14ee8 <emul+0x298>
   14cd0:	000087b7          	lui	a5,0x8
   14cd4:	fff78793          	addi	a5,a5,-1 # 7fff <main-0x80b1>
   14cd8:	0147fa33          	and	s4,a5,s4
   14cdc:	030a1a13          	slli	s4,s4,0x30
   14ce0:	030a5a13          	srli	s4,s4,0x30
   14ce4:	2cfa1663          	bne	s4,a5,14fb0 <emul+0x360>
   14ce8:	00090513          	mv	a0,s2
   14cec:	decff0ef          	jal	ra,142d8 <eisinf.part.1>
   14cf0:	32051263          	bnez	a0,15014 <emul+0x3c4>
   14cf4:	0124d783          	lhu	a5,18(s1)
   14cf8:	00fa77b3          	and	a5,s4,a5
   14cfc:	21478463          	beq	a5,s4,14f04 <emul+0x2b4>
   14d00:	00048513          	mv	a0,s1
   14d04:	00010593          	mv	a1,sp
   14d08:	bc8ff0ef          	jal	ra,140d0 <emovi>
   14d0c:	00090513          	mv	a0,s2
   14d10:	02010593          	addi	a1,sp,32
   14d14:	bbcff0ef          	jal	ra,140d0 <emovi>
   14d18:	00215483          	lhu	s1,2(sp)
   14d1c:	02215903          	lhu	s2,34(sp)
   14d20:	08049a63          	bnez	s1,14db4 <emul+0x164>
   14d24:	00410793          	addi	a5,sp,4
   14d28:	01810693          	addi	a3,sp,24
   14d2c:	2cd78063          	beq	a5,a3,14fec <emul+0x39c>
   14d30:	00278793          	addi	a5,a5,2
   14d34:	ffe7d703          	lhu	a4,-2(a5)
   14d38:	fe070ae3          	beqz	a4,14d2c <emul+0xdc>
   14d3c:	00010513          	mv	a0,sp
   14d40:	f60ff0ef          	jal	ra,144a0 <enormlz>
   14d44:	40a004b3          	neg	s1,a0
   14d48:	02215703          	lhu	a4,34(sp)
   14d4c:	06c0006f          	j	14db8 <emul+0x168>
   14d50:	0125da03          	lhu	s4,18(a1)
   14d54:	0147f733          	and	a4,a5,s4
   14d58:	faf714e3          	bne	a4,a5,14d00 <emul+0xb0>
   14d5c:	00058513          	mv	a0,a1
   14d60:	ac0ff0ef          	jal	ra,14020 <eisnan.part.0>
   14d64:	f60506e3          	beqz	a0,14cd0 <emul+0x80>
   14d68:	01490713          	addi	a4,s2,20
   14d6c:	00290913          	addi	s2,s2,2
   14d70:	ffe95783          	lhu	a5,-2(s2)
   14d74:	00240413          	addi	s0,s0,2
   14d78:	fef41f23          	sh	a5,-2(s0)
   14d7c:	fee918e3          	bne	s2,a4,14d6c <emul+0x11c>
   14d80:	0b813083          	ld	ra,184(sp)
   14d84:	0b013403          	ld	s0,176(sp)
   14d88:	0a813483          	ld	s1,168(sp)
   14d8c:	0a013903          	ld	s2,160(sp)
   14d90:	09813983          	ld	s3,152(sp)
   14d94:	09013a03          	ld	s4,144(sp)
   14d98:	08813a83          	ld	s5,136(sp)
   14d9c:	08013b03          	ld	s6,128(sp)
   14da0:	07813b83          	ld	s7,120(sp)
   14da4:	07013c03          	ld	s8,112(sp)
   14da8:	06813c83          	ld	s9,104(sp)
   14dac:	0c010113          	addi	sp,sp,192
   14db0:	00008067          	ret
   14db4:	00090713          	mv	a4,s2
   14db8:	00090b13          	mv	s6,s2
   14dbc:	02410793          	addi	a5,sp,36
   14dc0:	03810693          	addi	a3,sp,56
   14dc4:	02071263          	bnez	a4,14de8 <emul+0x198>
   14dc8:	22f68c63          	beq	a3,a5,15000 <emul+0x3b0>
   14dcc:	00278793          	addi	a5,a5,2
   14dd0:	ffe7d703          	lhu	a4,-2(a5)
   14dd4:	fe070ae3          	beqz	a4,14dc8 <emul+0x178>
   14dd8:	02010513          	addi	a0,sp,32
   14ddc:	ec4ff0ef          	jal	ra,144a0 <enormlz>
   14de0:	02215703          	lhu	a4,34(sp)
   14de4:	40a90b33          	sub	s6,s2,a0
   14de8:	02015783          	lhu	a5,32(sp)
   14dec:	03898a93          	addi	s5,s3,56
   14df0:	02e99b23          	sh	a4,54(s3)
   14df4:	02f99a23          	sh	a5,52(s3)
   14df8:	04e98713          	addi	a4,s3,78
   14dfc:	000a8793          	mv	a5,s5
   14e00:	00079023          	sh	zero,0(a5)
   14e04:	00278793          	addi	a5,a5,2
   14e08:	fef71ce3          	bne	a4,a5,14e00 <emul+0x1b0>
   14e0c:	04c98b93          	addi	s7,s3,76
   14e10:	00000a13          	li	s4,0
   14e14:	01810913          	addi	s2,sp,24
   14e18:	00410c93          	addi	s9,sp,4
   14e1c:	04210c13          	addi	s8,sp,66
   14e20:	00095503          	lhu	a0,0(s2)
   14e24:	ffe90913          	addi	s2,s2,-2
   14e28:	14051263          	bnez	a0,14f6c <emul+0x31c>
   14e2c:	04c9d703          	lhu	a4,76(s3)
   14e30:	000b8793          	mv	a5,s7
   14e34:	00ea6a33          	or	s4,s4,a4
   14e38:	ffe78793          	addi	a5,a5,-2
   14e3c:	0007d703          	lhu	a4,0(a5)
   14e40:	00e79123          	sh	a4,2(a5)
   14e44:	ff579ae3          	bne	a5,s5,14e38 <emul+0x1e8>
   14e48:	02099c23          	sh	zero,56(s3)
   14e4c:	fd991ae3          	bne	s2,s9,14e20 <emul+0x1d0>
   14e50:	03498713          	addi	a4,s3,52
   14e54:	02010793          	addi	a5,sp,32
   14e58:	03a10693          	addi	a3,sp,58
   14e5c:	00075603          	lhu	a2,0(a4)
   14e60:	00278793          	addi	a5,a5,2
   14e64:	00270713          	addi	a4,a4,2
   14e68:	fec79f23          	sh	a2,-2(a5)
   14e6c:	fef698e3          	bne	a3,a5,14e5c <emul+0x20c>
   14e70:	ffffc6b7          	lui	a3,0xffffc
   14e74:	016484b3          	add	s1,s1,s6
   14e78:	00268693          	addi	a3,a3,2 # ffffffffffffc002 <__BSS_END__+0xfffffffffffd73e2>
   14e7c:	000a0593          	mv	a1,s4
   14e80:	02010513          	addi	a0,sp,32
   14e84:	00098793          	mv	a5,s3
   14e88:	04000713          	li	a4,64
   14e8c:	00d486b3          	add	a3,s1,a3
   14e90:	00000613          	li	a2,0
   14e94:	f90ff0ef          	jal	ra,14624 <emdnorm>
   14e98:	02015703          	lhu	a4,32(sp)
   14e9c:	00015783          	lhu	a5,0(sp)
   14ea0:	00040593          	mv	a1,s0
   14ea4:	02010513          	addi	a0,sp,32
   14ea8:	40e787b3          	sub	a5,a5,a4
   14eac:	00f037b3          	snez	a5,a5
   14eb0:	40f007bb          	negw	a5,a5
   14eb4:	02f11023          	sh	a5,32(sp)
   14eb8:	ce9ff0ef          	jal	ra,14ba0 <emovo.isra.6>
   14ebc:	ec5ff06f          	j	14d80 <emul+0x130>
   14ec0:	01448713          	addi	a4,s1,20
   14ec4:	00248493          	addi	s1,s1,2
   14ec8:	ffe4d783          	lhu	a5,-2(s1)
   14ecc:	00240413          	addi	s0,s0,2
   14ed0:	fef41f23          	sh	a5,-2(s0)
   14ed4:	fee498e3          	bne	s1,a4,14ec4 <emul+0x274>
   14ed8:	ea9ff06f          	j	14d80 <emul+0x130>
   14edc:	00048513          	mv	a0,s1
   14ee0:	bf8ff0ef          	jal	ra,142d8 <eisinf.part.1>
   14ee4:	0c050863          	beqz	a0,14fb4 <emul+0x364>
   14ee8:	0000d597          	auipc	a1,0xd
   14eec:	0e858593          	addi	a1,a1,232 # 21fd0 <ezero>
   14ef0:	00090513          	mv	a0,s2
   14ef4:	ac8ff0ef          	jal	ra,141bc <ecmp>
   14ef8:	14050063          	beqz	a0,15038 <emul+0x3e8>
   14efc:	01295a03          	lhu	s4,18(s2)
   14f00:	dd1ff06f          	j	14cd0 <emul+0x80>
   14f04:	00048513          	mv	a0,s1
   14f08:	bd0ff0ef          	jal	ra,142d8 <eisinf.part.1>
   14f0c:	00051863          	bnez	a0,14f1c <emul+0x2cc>
   14f10:	00090513          	mv	a0,s2
   14f14:	bc4ff0ef          	jal	ra,142d8 <eisinf.part.1>
   14f18:	de0504e3          	beqz	a0,14d00 <emul+0xb0>
   14f1c:	00048513          	mv	a0,s1
   14f20:	970ff0ef          	jal	ra,14090 <eisneg>
   14f24:	00050493          	mv	s1,a0
   14f28:	00090513          	mv	a0,s2
   14f2c:	964ff0ef          	jal	ra,14090 <eisneg>
   14f30:	40a48533          	sub	a0,s1,a0
   14f34:	00a03533          	snez	a0,a0
   14f38:	00f51513          	slli	a0,a0,0xf
   14f3c:	00a41923          	sh	a0,18(s0)
   14f40:	01240713          	addi	a4,s0,18
   14f44:	00040793          	mv	a5,s0
   14f48:	00278793          	addi	a5,a5,2
   14f4c:	fe079f23          	sh	zero,-2(a5)
   14f50:	fee79ce3          	bne	a5,a4,14f48 <emul+0x2f8>
   14f54:	01245783          	lhu	a5,18(s0)
   14f58:	00008737          	lui	a4,0x8
   14f5c:	fff70713          	addi	a4,a4,-1 # 7fff <main-0x80b1>
   14f60:	00e7e7b3          	or	a5,a5,a4
   14f64:	00f41923          	sh	a5,18(s0)
   14f68:	e19ff06f          	j	14d80 <emul+0x130>
   14f6c:	04010613          	addi	a2,sp,64
   14f70:	02010593          	addi	a1,sp,32
   14f74:	fcdfe0ef          	jal	ra,13f40 <m16m>
   14f78:	000b8613          	mv	a2,s7
   14f7c:	00000593          	li	a1,0
   14f80:	05810713          	addi	a4,sp,88
   14f84:	00065503          	lhu	a0,0(a2)
   14f88:	00075783          	lhu	a5,0(a4)
   14f8c:	ffe60613          	addi	a2,a2,-2
   14f90:	ffe70713          	addi	a4,a4,-2
   14f94:	00a787b3          	add	a5,a5,a0
   14f98:	00b787b3          	add	a5,a5,a1
   14f9c:	00f61123          	sh	a5,2(a2)
   14fa0:	0107d793          	srli	a5,a5,0x10
   14fa4:	0017f593          	andi	a1,a5,1
   14fa8:	fd871ee3          	bne	a4,s8,14f84 <emul+0x334>
   14fac:	e81ff06f          	j	14e2c <emul+0x1dc>
   14fb0:	0124da83          	lhu	s5,18(s1)
   14fb4:	000087b7          	lui	a5,0x8
   14fb8:	fff78793          	addi	a5,a5,-1 # 7fff <main-0x80b1>
   14fbc:	0157fab3          	and	s5,a5,s5
   14fc0:	030a9a93          	slli	s5,s5,0x30
   14fc4:	030ada93          	srli	s5,s5,0x30
   14fc8:	d2fa9ce3          	bne	s5,a5,14d00 <emul+0xb0>
   14fcc:	00048513          	mv	a0,s1
   14fd0:	b08ff0ef          	jal	ra,142d8 <eisinf.part.1>
   14fd4:	f40514e3          	bnez	a0,14f1c <emul+0x2cc>
   14fd8:	01295783          	lhu	a5,18(s2)
   14fdc:	fff7c793          	not	a5,a5
   14fe0:	03179713          	slli	a4,a5,0x31
   14fe4:	d0071ee3          	bnez	a4,14d00 <emul+0xb0>
   14fe8:	f29ff06f          	j	14f10 <emul+0x2c0>
   14fec:	01440793          	addi	a5,s0,20
   14ff0:	00240413          	addi	s0,s0,2
   14ff4:	fe041f23          	sh	zero,-2(s0)
   14ff8:	fe879ce3          	bne	a5,s0,14ff0 <emul+0x3a0>
   14ffc:	d85ff06f          	j	14d80 <emul+0x130>
   15000:	01440793          	addi	a5,s0,20
   15004:	00240413          	addi	s0,s0,2
   15008:	fe041f23          	sh	zero,-2(s0)
   1500c:	fef41ce3          	bne	s0,a5,15004 <emul+0x3b4>
   15010:	d71ff06f          	j	14d80 <emul+0x130>
   15014:	0000d597          	auipc	a1,0xd
   15018:	fbc58593          	addi	a1,a1,-68 # 21fd0 <ezero>
   1501c:	00048513          	mv	a0,s1
   15020:	99cff0ef          	jal	ra,141bc <ecmp>
   15024:	00050a63          	beqz	a0,15038 <emul+0x3e8>
   15028:	0124d783          	lhu	a5,18(s1)
   1502c:	00fa77b3          	and	a5,s4,a5
   15030:	f9478ee3          	beq	a5,s4,14fcc <emul+0x37c>
   15034:	fa5ff06f          	j	14fd8 <emul+0x388>
   15038:	01040713          	addi	a4,s0,16
   1503c:	00040793          	mv	a5,s0
   15040:	00278793          	addi	a5,a5,2
   15044:	fe079f23          	sh	zero,-2(a5)
   15048:	fee79ce3          	bne	a5,a4,15040 <emul+0x3f0>
   1504c:	7fffc7b7          	lui	a5,0x7fffc
   15050:	00f42823          	sw	a5,16(s0)
   15054:	d2dff06f          	j	14d80 <emul+0x130>

0000000000015058 <ediv>:
   15058:	01255783          	lhu	a5,18(a0)
   1505c:	f2010113          	addi	sp,sp,-224
   15060:	0c813823          	sd	s0,208(sp)
   15064:	fff7c793          	not	a5,a5
   15068:	0c913423          	sd	s1,200(sp)
   1506c:	0d213023          	sd	s2,192(sp)
   15070:	09813823          	sd	s8,144(sp)
   15074:	0c113c23          	sd	ra,216(sp)
   15078:	0b313c23          	sd	s3,184(sp)
   1507c:	0b413823          	sd	s4,176(sp)
   15080:	0b513423          	sd	s5,168(sp)
   15084:	0b613023          	sd	s6,160(sp)
   15088:	09713c23          	sd	s7,152(sp)
   1508c:	09913423          	sd	s9,136(sp)
   15090:	09a13023          	sd	s10,128(sp)
   15094:	07b13c23          	sd	s11,120(sp)
   15098:	03179713          	slli	a4,a5,0x31
   1509c:	00050493          	mv	s1,a0
   150a0:	00058913          	mv	s2,a1
   150a4:	00060413          	mv	s0,a2
   150a8:	00068c13          	mv	s8,a3
   150ac:	00071663          	bnez	a4,150b8 <ediv+0x60>
   150b0:	f71fe0ef          	jal	ra,14020 <eisnan.part.0>
   150b4:	38051463          	bnez	a0,1543c <ediv+0x3e4>
   150b8:	01295783          	lhu	a5,18(s2)
   150bc:	fff7c793          	not	a5,a5
   150c0:	03179713          	slli	a4,a5,0x31
   150c4:	08070e63          	beqz	a4,15160 <ediv+0x108>
   150c8:	0000d597          	auipc	a1,0xd
   150cc:	f0858593          	addi	a1,a1,-248 # 21fd0 <ezero>
   150d0:	00048513          	mv	a0,s1
   150d4:	8e8ff0ef          	jal	ra,141bc <ecmp>
   150d8:	10050463          	beqz	a0,151e0 <ediv+0x188>
   150dc:	0124d983          	lhu	s3,18(s1)
   150e0:	01295703          	lhu	a4,18(s2)
   150e4:	000087b7          	lui	a5,0x8
   150e8:	fff78793          	addi	a5,a5,-1 # 7fff <main-0x80b1>
   150ec:	0137f9b3          	and	s3,a5,s3
   150f0:	00e7fa33          	and	s4,a5,a4
   150f4:	08f99a63          	bne	s3,a5,15188 <ediv+0x130>
   150f8:	00048513          	mv	a0,s1
   150fc:	9dcff0ef          	jal	ra,142d8 <eisinf.part.1>
   15100:	10050a63          	beqz	a0,15214 <ediv+0x1bc>
   15104:	013a1863          	bne	s4,s3,15114 <ediv+0xbc>
   15108:	00090513          	mv	a0,s2
   1510c:	9ccff0ef          	jal	ra,142d8 <eisinf.part.1>
   15110:	0e051263          	bnez	a0,151f4 <ediv+0x19c>
   15114:	01440793          	addi	a5,s0,20
   15118:	00240413          	addi	s0,s0,2
   1511c:	fe041f23          	sh	zero,-2(s0)
   15120:	fef41ce3          	bne	s0,a5,15118 <ediv+0xc0>
   15124:	0d813083          	ld	ra,216(sp)
   15128:	0d013403          	ld	s0,208(sp)
   1512c:	0c813483          	ld	s1,200(sp)
   15130:	0c013903          	ld	s2,192(sp)
   15134:	0b813983          	ld	s3,184(sp)
   15138:	0b013a03          	ld	s4,176(sp)
   1513c:	0a813a83          	ld	s5,168(sp)
   15140:	0a013b03          	ld	s6,160(sp)
   15144:	09813b83          	ld	s7,152(sp)
   15148:	09013c03          	ld	s8,144(sp)
   1514c:	08813c83          	ld	s9,136(sp)
   15150:	08013d03          	ld	s10,128(sp)
   15154:	07813d83          	ld	s11,120(sp)
   15158:	0e010113          	addi	sp,sp,224
   1515c:	00008067          	ret
   15160:	00090513          	mv	a0,s2
   15164:	ebdfe0ef          	jal	ra,14020 <eisnan.part.0>
   15168:	f60500e3          	beqz	a0,150c8 <ediv+0x70>
   1516c:	01490713          	addi	a4,s2,20
   15170:	00290913          	addi	s2,s2,2
   15174:	ffe95783          	lhu	a5,-2(s2)
   15178:	00240413          	addi	s0,s0,2
   1517c:	fef41f23          	sh	a5,-2(s0)
   15180:	fee918e3          	bne	s2,a4,15170 <ediv+0x118>
   15184:	fa1ff06f          	j	15124 <ediv+0xcc>
   15188:	08fa0863          	beq	s4,a5,15218 <ediv+0x1c0>
   1518c:	01010593          	addi	a1,sp,16
   15190:	00048513          	mv	a0,s1
   15194:	f3dfe0ef          	jal	ra,140d0 <emovi>
   15198:	00090513          	mv	a0,s2
   1519c:	03010593          	addi	a1,sp,48
   151a0:	f31fe0ef          	jal	ra,140d0 <emovi>
   151a4:	03215c83          	lhu	s9,50(sp)
   151a8:	01215903          	lhu	s2,18(sp)
   151ac:	0c0c9463          	bnez	s9,15274 <ediv+0x21c>
   151b0:	03410793          	addi	a5,sp,52
   151b4:	04810493          	addi	s1,sp,72
   151b8:	34f48a63          	beq	s1,a5,1550c <ediv+0x4b4>
   151bc:	00278793          	addi	a5,a5,2
   151c0:	ffe7d703          	lhu	a4,-2(a5)
   151c4:	fe070ae3          	beqz	a4,151b8 <ediv+0x160>
   151c8:	03010513          	addi	a0,sp,48
   151cc:	ad4ff0ef          	jal	ra,144a0 <enormlz>
   151d0:	40a007b3          	neg	a5,a0
   151d4:	00f13423          	sd	a5,8(sp)
   151d8:	01215603          	lhu	a2,18(sp)
   151dc:	0a00006f          	j	1527c <ediv+0x224>
   151e0:	0000d597          	auipc	a1,0xd
   151e4:	df058593          	addi	a1,a1,-528 # 21fd0 <ezero>
   151e8:	00090513          	mv	a0,s2
   151ec:	fd1fe0ef          	jal	ra,141bc <ecmp>
   151f0:	ee0516e3          	bnez	a0,150dc <ediv+0x84>
   151f4:	01040713          	addi	a4,s0,16
   151f8:	00040793          	mv	a5,s0
   151fc:	00278793          	addi	a5,a5,2
   15200:	fe079f23          	sh	zero,-2(a5)
   15204:	fee79ce3          	bne	a5,a4,151fc <ediv+0x1a4>
   15208:	7fffc7b7          	lui	a5,0x7fffc
   1520c:	00f42823          	sw	a5,16(s0)
   15210:	f15ff06f          	j	15124 <ediv+0xcc>
   15214:	f73a1ce3          	bne	s4,s3,1518c <ediv+0x134>
   15218:	00090513          	mv	a0,s2
   1521c:	8bcff0ef          	jal	ra,142d8 <eisinf.part.1>
   15220:	f60506e3          	beqz	a0,1518c <ediv+0x134>
   15224:	00048513          	mv	a0,s1
   15228:	e69fe0ef          	jal	ra,14090 <eisneg>
   1522c:	00050493          	mv	s1,a0
   15230:	00090513          	mv	a0,s2
   15234:	e5dfe0ef          	jal	ra,14090 <eisneg>
   15238:	40a48533          	sub	a0,s1,a0
   1523c:	00a03533          	snez	a0,a0
   15240:	00f51513          	slli	a0,a0,0xf
   15244:	00a41923          	sh	a0,18(s0)
   15248:	01240713          	addi	a4,s0,18
   1524c:	00040793          	mv	a5,s0
   15250:	00278793          	addi	a5,a5,2 # 7fffc002 <__BSS_END__+0x7ffd73e2>
   15254:	fe079f23          	sh	zero,-2(a5)
   15258:	fee79ce3          	bne	a5,a4,15250 <ediv+0x1f8>
   1525c:	01245783          	lhu	a5,18(s0)
   15260:	00008737          	lui	a4,0x8
   15264:	fff70713          	addi	a4,a4,-1 # 7fff <main-0x80b1>
   15268:	00e7e7b3          	or	a5,a5,a4
   1526c:	00f41923          	sh	a5,18(s0)
   15270:	eb5ff06f          	j	15124 <ediv+0xcc>
   15274:	01913423          	sd	s9,8(sp)
   15278:	00090613          	mv	a2,s2
   1527c:	01213023          	sd	s2,0(sp)
   15280:	01410793          	addi	a5,sp,20
   15284:	02810693          	addi	a3,sp,40
   15288:	02061263          	bnez	a2,152ac <ediv+0x254>
   1528c:	28f68a63          	beq	a3,a5,15520 <ediv+0x4c8>
   15290:	00278793          	addi	a5,a5,2
   15294:	ffe7d703          	lhu	a4,-2(a5)
   15298:	fe070ae3          	beqz	a4,1528c <ediv+0x234>
   1529c:	01010513          	addi	a0,sp,16
   152a0:	a00ff0ef          	jal	ra,144a0 <enormlz>
   152a4:	40a907b3          	sub	a5,s2,a0
   152a8:	00f13023          	sd	a5,0(sp)
   152ac:	03012703          	lw	a4,48(sp)
   152b0:	038c0d93          	addi	s11,s8,56
   152b4:	000d8793          	mv	a5,s11
   152b8:	02ec2a23          	sw	a4,52(s8)
   152bc:	04ec0993          	addi	s3,s8,78
   152c0:	00278793          	addi	a5,a5,2
   152c4:	fe079f23          	sh	zero,-2(a5)
   152c8:	fef99ce3          	bne	s3,a5,152c0 <ediv+0x268>
   152cc:	03010513          	addi	a0,sp,48
   152d0:	b95fe0ef          	jal	ra,13e64 <eshdn1>
   152d4:	01615d03          	lhu	s10,22(sp)
   152d8:	00010ab7          	lui	s5,0x10
   152dc:	04810493          	addi	s1,sp,72
   152e0:	010d1b13          	slli	s6,s10,0x10
   152e4:	41ab0b33          	sub	s6,s6,s10
   152e8:	03210b93          	addi	s7,sp,50
   152ec:	fffa8a93          	addi	s5,s5,-1 # ffff <main-0xb1>
   152f0:	06a10913          	addi	s2,sp,106
   152f4:	05210a13          	addi	s4,sp,82
   152f8:	03415503          	lhu	a0,52(sp)
   152fc:	03615783          	lhu	a5,54(sp)
   15300:	000a8c93          	mv	s9,s5
   15304:	01051513          	slli	a0,a0,0x10
   15308:	00f50533          	add	a0,a0,a5
   1530c:	00ab6a63          	bltu	s6,a0,15320 <ediv+0x2c8>
   15310:	000d0593          	mv	a1,s10
   15314:	0650c0ef          	jal	ra,21b78 <__udivdi3>
   15318:	03051c93          	slli	s9,a0,0x30
   1531c:	030cdc93          	srli	s9,s9,0x30
   15320:	05010613          	addi	a2,sp,80
   15324:	01010593          	addi	a1,sp,16
   15328:	000c8513          	mv	a0,s9
   1532c:	c15fe0ef          	jal	ra,13f40 <m16m>
   15330:	03410613          	addi	a2,sp,52
   15334:	05410793          	addi	a5,sp,84
   15338:	00278793          	addi	a5,a5,2
   1533c:	00260613          	addi	a2,a2,2
   15340:	ffe7d503          	lhu	a0,-2(a5)
   15344:	ffe65583          	lhu	a1,-2(a2)
   15348:	10b51863          	bne	a0,a1,15458 <ediv+0x400>
   1534c:	ff2796e3          	bne	a5,s2,15338 <ediv+0x2e0>
   15350:	00000513          	li	a0,0
   15354:	06810593          	addi	a1,sp,104
   15358:	00048613          	mv	a2,s1
   1535c:	00065783          	lhu	a5,0(a2)
   15360:	0005d803          	lhu	a6,0(a1)
   15364:	ffe60613          	addi	a2,a2,-2
   15368:	40a787b3          	sub	a5,a5,a0
   1536c:	410787b3          	sub	a5,a5,a6
   15370:	00f61123          	sh	a5,2(a2)
   15374:	0107d793          	srli	a5,a5,0x10
   15378:	ffe58593          	addi	a1,a1,-2
   1537c:	0017f513          	andi	a0,a5,1
   15380:	fd761ee3          	bne	a2,s7,1535c <ediv+0x304>
   15384:	019d9023          	sh	s9,0(s11)
   15388:	03410793          	addi	a5,sp,52
   1538c:	00278793          	addi	a5,a5,2
   15390:	0007d683          	lhu	a3,0(a5)
   15394:	fed79f23          	sh	a3,-2(a5)
   15398:	fe979ae3          	bne	a5,s1,1538c <ediv+0x334>
   1539c:	04011423          	sh	zero,72(sp)
   153a0:	002d8d93          	addi	s11,s11,2
   153a4:	f5b99ae3          	bne	s3,s11,152f8 <ediv+0x2a0>
   153a8:	00000593          	li	a1,0
   153ac:	03410793          	addi	a5,sp,52
   153b0:	04a10693          	addi	a3,sp,74
   153b4:	00278793          	addi	a5,a5,2
   153b8:	ffe7d703          	lhu	a4,-2(a5)
   153bc:	00e5e5b3          	or	a1,a1,a4
   153c0:	fed79ae3          	bne	a5,a3,153b4 <ediv+0x35c>
   153c4:	0005859b          	sext.w	a1,a1
   153c8:	00b035b3          	snez	a1,a1
   153cc:	034c0713          	addi	a4,s8,52
   153d0:	03010793          	addi	a5,sp,48
   153d4:	00075603          	lhu	a2,0(a4)
   153d8:	00278793          	addi	a5,a5,2
   153dc:	00270713          	addi	a4,a4,2
   153e0:	fec79f23          	sh	a2,-2(a5)
   153e4:	fef698e3          	bne	a3,a5,153d4 <ediv+0x37c>
   153e8:	00813783          	ld	a5,8(sp)
   153ec:	00013703          	ld	a4,0(sp)
   153f0:	000046b7          	lui	a3,0x4
   153f4:	fff68693          	addi	a3,a3,-1 # 3fff <main-0xc0b1>
   153f8:	40e78cb3          	sub	s9,a5,a4
   153fc:	03010513          	addi	a0,sp,48
   15400:	000c0793          	mv	a5,s8
   15404:	04000713          	li	a4,64
   15408:	00dc86b3          	add	a3,s9,a3
   1540c:	00000613          	li	a2,0
   15410:	a14ff0ef          	jal	ra,14624 <emdnorm>
   15414:	03015703          	lhu	a4,48(sp)
   15418:	01015783          	lhu	a5,16(sp)
   1541c:	00040593          	mv	a1,s0
   15420:	03010513          	addi	a0,sp,48
   15424:	40e787b3          	sub	a5,a5,a4
   15428:	00f037b3          	snez	a5,a5
   1542c:	40f007bb          	negw	a5,a5
   15430:	02f11823          	sh	a5,48(sp)
   15434:	f6cff0ef          	jal	ra,14ba0 <emovo.isra.6>
   15438:	cedff06f          	j	15124 <ediv+0xcc>
   1543c:	01448713          	addi	a4,s1,20
   15440:	00248493          	addi	s1,s1,2
   15444:	ffe4d783          	lhu	a5,-2(s1)
   15448:	00240413          	addi	s0,s0,2
   1544c:	fef41f23          	sh	a5,-2(s0)
   15450:	fee498e3          	bne	s1,a4,15440 <ediv+0x3e8>
   15454:	cd1ff06f          	j	15124 <ediv+0xcc>
   15458:	eea5fce3          	bgeu	a1,a0,15350 <ediv+0x2f8>
   1545c:	fffc879b          	addiw	a5,s9,-1
   15460:	03079893          	slli	a7,a5,0x30
   15464:	0308d893          	srli	a7,a7,0x30
   15468:	00000513          	li	a0,0
   1546c:	02810593          	addi	a1,sp,40
   15470:	06810613          	addi	a2,sp,104
   15474:	00065783          	lhu	a5,0(a2)
   15478:	0005d803          	lhu	a6,0(a1)
   1547c:	ffe60613          	addi	a2,a2,-2
   15480:	40a787b3          	sub	a5,a5,a0
   15484:	410787b3          	sub	a5,a5,a6
   15488:	00f61123          	sh	a5,2(a2)
   1548c:	0107d793          	srli	a5,a5,0x10
   15490:	ffe58593          	addi	a1,a1,-2
   15494:	0017f513          	andi	a0,a5,1
   15498:	fd461ee3          	bne	a2,s4,15474 <ediv+0x41c>
   1549c:	03410613          	addi	a2,sp,52
   154a0:	05410793          	addi	a5,sp,84
   154a4:	00278793          	addi	a5,a5,2
   154a8:	00260613          	addi	a2,a2,2
   154ac:	ffe7d503          	lhu	a0,-2(a5)
   154b0:	ffe65583          	lhu	a1,-2(a2)
   154b4:	00b51863          	bne	a0,a1,154c4 <ediv+0x46c>
   154b8:	ff2796e3          	bne	a5,s2,154a4 <ediv+0x44c>
   154bc:	00088c93          	mv	s9,a7
   154c0:	e91ff06f          	j	15350 <ediv+0x2f8>
   154c4:	fea5fce3          	bgeu	a1,a0,154bc <ediv+0x464>
   154c8:	ffec869b          	addiw	a3,s9,-2
   154cc:	03069c93          	slli	s9,a3,0x30
   154d0:	030cdc93          	srli	s9,s9,0x30
   154d4:	00000513          	li	a0,0
   154d8:	02810593          	addi	a1,sp,40
   154dc:	06810613          	addi	a2,sp,104
   154e0:	00065783          	lhu	a5,0(a2)
   154e4:	0005d803          	lhu	a6,0(a1)
   154e8:	ffe60613          	addi	a2,a2,-2
   154ec:	40a787b3          	sub	a5,a5,a0
   154f0:	410787b3          	sub	a5,a5,a6
   154f4:	00f61123          	sh	a5,2(a2)
   154f8:	0107d793          	srli	a5,a5,0x10
   154fc:	ffe58593          	addi	a1,a1,-2
   15500:	0017f513          	andi	a0,a5,1
   15504:	fd461ee3          	bne	a2,s4,154e0 <ediv+0x488>
   15508:	e49ff06f          	j	15350 <ediv+0x2f8>
   1550c:	01440793          	addi	a5,s0,20
   15510:	00240413          	addi	s0,s0,2
   15514:	fe041f23          	sh	zero,-2(s0)
   15518:	fe879ce3          	bne	a5,s0,15510 <ediv+0x4b8>
   1551c:	c09ff06f          	j	15124 <ediv+0xcc>
   15520:	01015703          	lhu	a4,16(sp)
   15524:	03015783          	lhu	a5,48(sp)
   15528:	00f70463          	beq	a4,a5,15530 <ediv+0x4d8>
   1552c:	00008637          	lui	a2,0x8
   15530:	00c41923          	sh	a2,18(s0)
   15534:	01240713          	addi	a4,s0,18
   15538:	00040793          	mv	a5,s0
   1553c:	00278793          	addi	a5,a5,2
   15540:	fe079f23          	sh	zero,-2(a5)
   15544:	fef71ce3          	bne	a4,a5,1553c <ediv+0x4e4>
   15548:	01245783          	lhu	a5,18(s0)
   1554c:	00008737          	lui	a4,0x8
   15550:	fff70713          	addi	a4,a4,-1 # 7fff <main-0x80b1>
   15554:	00e7e7b3          	or	a5,a5,a4
   15558:	00f41923          	sh	a5,18(s0)
   1555c:	bc9ff06f          	j	15124 <ediv+0xcc>

0000000000015560 <e113toe.isra.8>:
   15560:	fd010113          	addi	sp,sp,-48
   15564:	02813023          	sd	s0,32(sp)
   15568:	02113423          	sd	ra,40(sp)
   1556c:	00058413          	mv	s0,a1
   15570:	00010793          	mv	a5,sp
   15574:	01a10713          	addi	a4,sp,26
   15578:	00278793          	addi	a5,a5,2
   1557c:	fe079f23          	sh	zero,-2(a5)
   15580:	fee79ce3          	bne	a5,a4,15578 <e113toe.isra.8+0x18>
   15584:	00e55603          	lhu	a2,14(a0)
   15588:	0106179b          	slliw	a5,a2,0x10
   1558c:	4107d79b          	sraiw	a5,a5,0x10
   15590:	02079713          	slli	a4,a5,0x20
   15594:	06074a63          	bltz	a4,15608 <e113toe.isra.8+0xa8>
   15598:	000087b7          	lui	a5,0x8
   1559c:	fff78793          	addi	a5,a5,-1 # 7fff <main-0x80b1>
   155a0:	00011023          	sh	zero,0(sp)
   155a4:	00f67633          	and	a2,a2,a5
   155a8:	06f60c63          	beq	a2,a5,15620 <e113toe.isra.8+0xc0>
   155ac:	00e50793          	addi	a5,a0,14
   155b0:	00c11123          	sh	a2,2(sp)
   155b4:	00610713          	addi	a4,sp,6
   155b8:	ffe78793          	addi	a5,a5,-2
   155bc:	0007d683          	lhu	a3,0(a5)
   155c0:	00270713          	addi	a4,a4,2
   155c4:	fed71f23          	sh	a3,-2(a4)
   155c8:	fef518e3          	bne	a0,a5,155b8 <e113toe.isra.8+0x58>
   155cc:	02061263          	bnez	a2,155f0 <e113toe.isra.8+0x90>
   155d0:	00011223          	sh	zero,4(sp)
   155d4:	00040593          	mv	a1,s0
   155d8:	00010513          	mv	a0,sp
   155dc:	dc4ff0ef          	jal	ra,14ba0 <emovo.isra.6>
   155e0:	02813083          	ld	ra,40(sp)
   155e4:	02013403          	ld	s0,32(sp)
   155e8:	03010113          	addi	sp,sp,48
   155ec:	00008067          	ret
   155f0:	00100793          	li	a5,1
   155f4:	fff00593          	li	a1,-1
   155f8:	00010513          	mv	a0,sp
   155fc:	00f11223          	sh	a5,4(sp)
   15600:	cf5fe0ef          	jal	ra,142f4 <eshift.part.3>
   15604:	fd1ff06f          	j	155d4 <e113toe.isra.8+0x74>
   15608:	fff00793          	li	a5,-1
   1560c:	00f11023          	sh	a5,0(sp)
   15610:	000087b7          	lui	a5,0x8
   15614:	fff78793          	addi	a5,a5,-1 # 7fff <main-0x80b1>
   15618:	00f67633          	and	a2,a2,a5
   1561c:	f8f618e3          	bne	a2,a5,155ac <e113toe.isra.8+0x4c>
   15620:	00050793          	mv	a5,a0
   15624:	00e50693          	addi	a3,a0,14
   15628:	0007d703          	lhu	a4,0(a5)
   1562c:	00278793          	addi	a5,a5,2
   15630:	04071c63          	bnez	a4,15688 <e113toe.isra.8+0x128>
   15634:	fef69ae3          	bne	a3,a5,15628 <e113toe.isra.8+0xc8>
   15638:	01440713          	addi	a4,s0,20
   1563c:	00040793          	mv	a5,s0
   15640:	00278793          	addi	a5,a5,2
   15644:	fe079f23          	sh	zero,-2(a5)
   15648:	fee79ce3          	bne	a5,a4,15640 <e113toe.isra.8+0xe0>
   1564c:	01240713          	addi	a4,s0,18
   15650:	00040793          	mv	a5,s0
   15654:	00278793          	addi	a5,a5,2
   15658:	fe079f23          	sh	zero,-2(a5)
   1565c:	fee79ce3          	bne	a5,a4,15654 <e113toe.isra.8+0xf4>
   15660:	01245783          	lhu	a5,18(s0)
   15664:	00008737          	lui	a4,0x8
   15668:	fff70713          	addi	a4,a4,-1 # 7fff <main-0x80b1>
   1566c:	00e7e7b3          	or	a5,a5,a4
   15670:	00f41923          	sh	a5,18(s0)
   15674:	00e51783          	lh	a5,14(a0)
   15678:	f607d4e3          	bgez	a5,155e0 <e113toe.isra.8+0x80>
   1567c:	00040513          	mv	a0,s0
   15680:	9c5fe0ef          	jal	ra,14044 <eneg>
   15684:	f5dff06f          	j	155e0 <e113toe.isra.8+0x80>
   15688:	01040713          	addi	a4,s0,16
   1568c:	00040793          	mv	a5,s0
   15690:	00278793          	addi	a5,a5,2
   15694:	fe079f23          	sh	zero,-2(a5)
   15698:	fee79ce3          	bne	a5,a4,15690 <e113toe.isra.8+0x130>
   1569c:	7fffc7b7          	lui	a5,0x7fffc
   156a0:	00f42823          	sw	a5,16(s0)
   156a4:	f3dff06f          	j	155e0 <e113toe.isra.8+0x80>

00000000000156a8 <_ldtoa_r>:
   156a8:	09100313          	li	t1,145
   156ac:	02031313          	slli	t1,t1,0x20
   156b0:	06053e03          	ld	t3,96(a0)
   156b4:	da010113          	addi	sp,sp,-608
   156b8:	fff30313          	addi	t1,t1,-1
   156bc:	24813823          	sd	s0,592(sp)
   156c0:	23613023          	sd	s6,544(sp)
   156c4:	21713c23          	sd	s7,536(sp)
   156c8:	24113c23          	sd	ra,600(sp)
   156cc:	24913423          	sd	s1,584(sp)
   156d0:	25213023          	sd	s2,576(sp)
   156d4:	23313c23          	sd	s3,568(sp)
   156d8:	23413823          	sd	s4,560(sp)
   156dc:	23513423          	sd	s5,552(sp)
   156e0:	21813823          	sd	s8,528(sp)
   156e4:	21913423          	sd	s9,520(sp)
   156e8:	21a13023          	sd	s10,512(sp)
   156ec:	1fb13c23          	sd	s11,504(sp)
   156f0:	04b13823          	sd	a1,80(sp)
   156f4:	04c13c23          	sd	a2,88(sp)
   156f8:	1a613023          	sd	t1,416(sp)
   156fc:	00e13823          	sd	a4,16(sp)
   15700:	00f13c23          	sd	a5,24(sp)
   15704:	03113823          	sd	a7,48(sp)
   15708:	00050b13          	mv	s6,a0
   1570c:	00068b93          	mv	s7,a3
   15710:	00080413          	mv	s0,a6
   15714:	020e0263          	beqz	t3,15738 <_ldtoa_r+0x90>
   15718:	06852703          	lw	a4,104(a0)
   1571c:	00100793          	li	a5,1
   15720:	000e0593          	mv	a1,t3
   15724:	00e797bb          	sllw	a5,a5,a4
   15728:	00ee2423          	sw	a4,8(t3)
   1572c:	00fe2623          	sw	a5,12(t3)
   15730:	7f1010ef          	jal	ra,17720 <_Bfree>
   15734:	060b3023          	sd	zero,96(s6)
   15738:	08010593          	addi	a1,sp,128
   1573c:	05010513          	addi	a0,sp,80
   15740:	e21ff0ef          	jal	ra,15560 <e113toe.isra.8>
   15744:	08010513          	addi	a0,sp,128
   15748:	949fe0ef          	jal	ra,14090 <eisneg>
   1574c:	00a03533          	snez	a0,a0
   15750:	00a42023          	sw	a0,0(s0)
   15754:	00300793          	li	a5,3
   15758:	1cfb80e3          	beq	s7,a5,16118 <_ldtoa_r+0xa70>
   1575c:	01400793          	li	a5,20
   15760:	00f13423          	sd	a5,8(sp)
   15764:	620b9ce3          	bnez	s7,1659c <_ldtoa_r+0xef4>
   15768:	09215783          	lhu	a5,146(sp)
   1576c:	1a412703          	lw	a4,420(sp)
   15770:	fff7c793          	not	a5,a5
   15774:	02e13423          	sd	a4,40(sp)
   15778:	03179713          	slli	a4,a5,0x31
   1577c:	00071863          	bnez	a4,1578c <_ldtoa_r+0xe4>
   15780:	08010513          	addi	a0,sp,128
   15784:	89dfe0ef          	jal	ra,14020 <eisnan.part.0>
   15788:	460510e3          	bnez	a0,163e8 <_ldtoa_r+0xd40>
   1578c:	09000793          	li	a5,144
   15790:	1af12223          	sw	a5,420(sp)
   15794:	0a010713          	addi	a4,sp,160
   15798:	08010793          	addi	a5,sp,128
   1579c:	09410613          	addi	a2,sp,148
   157a0:	00278793          	addi	a5,a5,2 # 7fffc002 <__BSS_END__+0x7ffd73e2>
   157a4:	ffe7d683          	lhu	a3,-2(a5)
   157a8:	00270713          	addi	a4,a4,2
   157ac:	fed71f23          	sh	a3,-2(a4)
   157b0:	fec798e3          	bne	a5,a2,157a0 <_ldtoa_r+0xf8>
   157b4:	0b215603          	lhu	a2,178(sp)
   157b8:	02013023          	sd	zero,32(sp)
   157bc:	0106179b          	slliw	a5,a2,0x10
   157c0:	4107d79b          	sraiw	a5,a5,0x10
   157c4:	02079713          	slli	a4,a5,0x20
   157c8:	00075e63          	bgez	a4,157e4 <_ldtoa_r+0x13c>
   157cc:	03161613          	slli	a2,a2,0x31
   157d0:	000107b7          	lui	a5,0x10
   157d4:	03165613          	srli	a2,a2,0x31
   157d8:	fff78793          	addi	a5,a5,-1 # ffff <main-0xb1>
   157dc:	0ac11923          	sh	a2,178(sp)
   157e0:	02f13023          	sd	a5,32(sp)
   157e4:	00000693          	li	a3,0
   157e8:	0c010793          	addi	a5,sp,192
   157ec:	0000c717          	auipc	a4,0xc
   157f0:	7fc70713          	addi	a4,a4,2044 # 21fe8 <eone>
   157f4:	0d410d93          	addi	s11,sp,212
   157f8:	0080006f          	j	15800 <_ldtoa_r+0x158>
   157fc:	00075683          	lhu	a3,0(a4)
   15800:	00278793          	addi	a5,a5,2
   15804:	fed79f23          	sh	a3,-2(a5)
   15808:	00270713          	addi	a4,a4,2
   1580c:	ffb798e3          	bne	a5,s11,157fc <_ldtoa_r+0x154>
   15810:	16060663          	beqz	a2,1597c <_ldtoa_r+0x2d4>
   15814:	000087b7          	lui	a5,0x8
   15818:	fff78793          	addi	a5,a5,-1 # 7fff <main-0x80b1>
   1581c:	5af60ce3          	beq	a2,a5,165d4 <_ldtoa_r+0xf2c>
   15820:	0b011783          	lh	a5,176(sp)
   15824:	6207dee3          	bgez	a5,16660 <_ldtoa_r+0xfb8>
   15828:	0a010593          	addi	a1,sp,160
   1582c:	0000c517          	auipc	a0,0xc
   15830:	7bc50513          	addi	a0,a0,1980 # 21fe8 <eone>
   15834:	989fe0ef          	jal	ra,141bc <ecmp>
   15838:	14050e63          	beqz	a0,15994 <_ldtoa_r+0x2ec>
   1583c:	100548e3          	bltz	a0,1614c <_ldtoa_r+0xaa4>
   15840:	0b215783          	lhu	a5,178(sp)
   15844:	6a079ce3          	bnez	a5,166fc <_ldtoa_r+0x1054>
   15848:	0b011783          	lh	a5,176(sp)
   1584c:	00000493          	li	s1,0
   15850:	1a010993          	addi	s3,sp,416
   15854:	0207c663          	bltz	a5,15880 <_ldtoa_r+0x1d8>
   15858:	0000d417          	auipc	s0,0xd
   1585c:	89840413          	addi	s0,s0,-1896 # 220f0 <etens+0xf0>
   15860:	0a010613          	addi	a2,sp,160
   15864:	00098693          	mv	a3,s3
   15868:	00060593          	mv	a1,a2
   1586c:	00040513          	mv	a0,s0
   15870:	be0ff0ef          	jal	ra,14c50 <emul>
   15874:	0b011783          	lh	a5,176(sp)
   15878:	fff4849b          	addiw	s1,s1,-1
   1587c:	fe07d2e3          	bgez	a5,15860 <_ldtoa_r+0x1b8>
   15880:	10010413          	addi	s0,sp,256
   15884:	11810a13          	addi	s4,sp,280
   15888:	00040713          	mv	a4,s0
   1588c:	0a010793          	addi	a5,sp,160
   15890:	0b410613          	addi	a2,sp,180
   15894:	00278793          	addi	a5,a5,2
   15898:	ffe7d683          	lhu	a3,-2(a5)
   1589c:	00270713          	addi	a4,a4,2
   158a0:	fed71f23          	sh	a3,-2(a4)
   158a4:	fec798e3          	bne	a5,a2,15894 <_ldtoa_r+0x1ec>
   158a8:	00000693          	li	a3,0
   158ac:	0c010793          	addi	a5,sp,192
   158b0:	0000c717          	auipc	a4,0xc
   158b4:	73870713          	addi	a4,a4,1848 # 21fe8 <eone>
   158b8:	0080006f          	j	158c0 <_ldtoa_r+0x218>
   158bc:	00075683          	lhu	a3,0(a4)
   158c0:	00278793          	addi	a5,a5,2
   158c4:	fed79f23          	sh	a3,-2(a5)
   158c8:	00270713          	addi	a4,a4,2
   158cc:	ffb798e3          	bne	a5,s11,158bc <_ldtoa_r+0x214>
   158d0:	fffffab7          	lui	s5,0xfffff
   158d4:	0000c917          	auipc	s2,0xc
   158d8:	72c90913          	addi	s2,s2,1836 # 22000 <etens>
   158dc:	0000dd97          	auipc	s11,0xd
   158e0:	82cd8d93          	addi	s11,s11,-2004 # 22108 <emtens>
   158e4:	0000cc97          	auipc	s9,0xc
   158e8:	704c8c93          	addi	s9,s9,1796 # 21fe8 <eone>
   158ec:	0000dc17          	auipc	s8,0xd
   158f0:	804c0c13          	addi	s8,s8,-2044 # 220f0 <etens+0xf0>
   158f4:	00c0006f          	j	15900 <_ldtoa_r+0x258>
   158f8:	014d8d93          	addi	s11,s11,20
   158fc:	01490913          	addi	s2,s2,20
   15900:	00040593          	mv	a1,s0
   15904:	000c8513          	mv	a0,s9
   15908:	8b5fe0ef          	jal	ra,141bc <ecmp>
   1590c:	00040593          	mv	a1,s0
   15910:	04a05663          	blez	a0,1595c <_ldtoa_r+0x2b4>
   15914:	000d8513          	mv	a0,s11
   15918:	8a5fe0ef          	jal	ra,141bc <ecmp>
   1591c:	00098693          	mv	a3,s3
   15920:	00040613          	mv	a2,s0
   15924:	00040593          	mv	a1,s0
   15928:	02054263          	bltz	a0,1594c <_ldtoa_r+0x2a4>
   1592c:	00090513          	mv	a0,s2
   15930:	b20ff0ef          	jal	ra,14c50 <emul>
   15934:	0c010613          	addi	a2,sp,192
   15938:	00098693          	mv	a3,s3
   1593c:	00060593          	mv	a1,a2
   15940:	00090513          	mv	a0,s2
   15944:	b0cff0ef          	jal	ra,14c50 <emul>
   15948:	009a84bb          	addw	s1,s5,s1
   1594c:	01fad79b          	srliw	a5,s5,0x1f
   15950:	01578abb          	addw	s5,a5,s5
   15954:	401ada9b          	sraiw	s5,s5,0x1
   15958:	fb8910e3          	bne	s2,s8,158f8 <_ldtoa_r+0x250>
   1595c:	0c010613          	addi	a2,sp,192
   15960:	00098693          	mv	a3,s3
   15964:	0000c597          	auipc	a1,0xc
   15968:	68458593          	addi	a1,a1,1668 # 21fe8 <eone>
   1596c:	00060513          	mv	a0,a2
   15970:	ee8ff0ef          	jal	ra,15058 <ediv>
   15974:	16010913          	addi	s2,sp,352
   15978:	0300006f          	j	159a8 <_ldtoa_r+0x300>
   1597c:	0a010793          	addi	a5,sp,160
   15980:	0b210693          	addi	a3,sp,178
   15984:	0007d703          	lhu	a4,0(a5)
   15988:	00278793          	addi	a5,a5,2
   1598c:	e8071ee3          	bnez	a4,15828 <_ldtoa_r+0x180>
   15990:	fef69ae3          	bne	a3,a5,15984 <_ldtoa_r+0x2dc>
   15994:	00000493          	li	s1,0
   15998:	16010913          	addi	s2,sp,352
   1599c:	1a010993          	addi	s3,sp,416
   159a0:	10010413          	addi	s0,sp,256
   159a4:	11810a13          	addi	s4,sp,280
   159a8:	00040593          	mv	a1,s0
   159ac:	0c010513          	addi	a0,sp,192
   159b0:	f20fe0ef          	jal	ra,140d0 <emovi>
   159b4:	0c010713          	addi	a4,sp,192
   159b8:	00040793          	mv	a5,s0
   159bc:	00278793          	addi	a5,a5,2
   159c0:	ffe7d683          	lhu	a3,-2(a5)
   159c4:	00270713          	addi	a4,a4,2
   159c8:	fed71f23          	sh	a3,-2(a4)
   159cc:	ff4798e3          	bne	a5,s4,159bc <_ldtoa_r+0x314>
   159d0:	00040593          	mv	a1,s0
   159d4:	0a010513          	addi	a0,sp,160
   159d8:	0c011c23          	sh	zero,216(sp)
   159dc:	ef4fe0ef          	jal	ra,140d0 <emovi>
   159e0:	0a010793          	addi	a5,sp,160
   159e4:	00240413          	addi	s0,s0,2
   159e8:	ffe45703          	lhu	a4,-2(s0)
   159ec:	00278793          	addi	a5,a5,2
   159f0:	fee79f23          	sh	a4,-2(a5)
   159f4:	ff4418e3          	bne	s0,s4,159e4 <_ldtoa_r+0x33c>
   159f8:	00098613          	mv	a2,s3
   159fc:	0a010593          	addi	a1,sp,160
   15a00:	0c010513          	addi	a0,sp,192
   15a04:	0a011c23          	sh	zero,184(sp)
   15a08:	834ff0ef          	jal	ra,14a3c <eiremain>
   15a0c:	1ec15d83          	lhu	s11,492(sp)
   15a10:	1e0d9063          	bnez	s11,15bf0 <_ldtoa_r+0x548>
   15a14:	0000ca97          	auipc	s5,0xc
   15a18:	5bca8a93          	addi	s5,s5,1468 # 21fd0 <ezero>
   15a1c:	0b810c13          	addi	s8,sp,184
   15a20:	0a210413          	addi	s0,sp,162
   15a24:	0e210a13          	addi	s4,sp,226
   15a28:	000a8593          	mv	a1,s5
   15a2c:	0a010513          	addi	a0,sp,160
   15a30:	f8cfe0ef          	jal	ra,141bc <ecmp>
   15a34:	1a050e63          	beqz	a0,15bf0 <_ldtoa_r+0x548>
   15a38:	00000613          	li	a2,0
   15a3c:	000c0593          	mv	a1,s8
   15a40:	01c0006f          	j	15a5c <_ldtoa_r+0x3b4>
   15a44:	0016161b          	slliw	a2,a2,0x1
   15a48:	00f59023          	sh	a5,0(a1)
   15a4c:	03061613          	slli	a2,a2,0x30
   15a50:	ffe58593          	addi	a1,a1,-2
   15a54:	03065613          	srli	a2,a2,0x30
   15a58:	04858663          	beq	a1,s0,15aa4 <_ldtoa_r+0x3fc>
   15a5c:	0005d783          	lhu	a5,0(a1)
   15a60:	0107951b          	slliw	a0,a5,0x10
   15a64:	4105551b          	sraiw	a0,a0,0x10
   15a68:	02051713          	slli	a4,a0,0x20
   15a6c:	0017979b          	slliw	a5,a5,0x1
   15a70:	00075463          	bgez	a4,15a78 <_ldtoa_r+0x3d0>
   15a74:	00166613          	ori	a2,a2,1
   15a78:	03079793          	slli	a5,a5,0x30
   15a7c:	0307d793          	srli	a5,a5,0x30
   15a80:	00267513          	andi	a0,a2,2
   15a84:	0017e813          	ori	a6,a5,1
   15a88:	fa050ee3          	beqz	a0,15a44 <_ldtoa_r+0x39c>
   15a8c:	0016161b          	slliw	a2,a2,0x1
   15a90:	01059023          	sh	a6,0(a1)
   15a94:	03061613          	slli	a2,a2,0x30
   15a98:	ffe58593          	addi	a1,a1,-2
   15a9c:	03065613          	srli	a2,a2,0x30
   15aa0:	fa859ee3          	bne	a1,s0,15a5c <_ldtoa_r+0x3b4>
   15aa4:	0e010613          	addi	a2,sp,224
   15aa8:	0a010793          	addi	a5,sp,160
   15aac:	00278793          	addi	a5,a5,2
   15ab0:	ffe7d583          	lhu	a1,-2(a5)
   15ab4:	00260613          	addi	a2,a2,2 # 8002 <main-0x80ae>
   15ab8:	feb61f23          	sh	a1,-2(a2)
   15abc:	ff8798e3          	bne	a5,s8,15aac <_ldtoa_r+0x404>
   15ac0:	0e011c23          	sh	zero,248(sp)
   15ac4:	00000613          	li	a2,0
   15ac8:	0f810593          	addi	a1,sp,248
   15acc:	01c0006f          	j	15ae8 <_ldtoa_r+0x440>
   15ad0:	0016161b          	slliw	a2,a2,0x1
   15ad4:	00f59023          	sh	a5,0(a1)
   15ad8:	03061613          	slli	a2,a2,0x30
   15adc:	ffe58593          	addi	a1,a1,-2
   15ae0:	03065613          	srli	a2,a2,0x30
   15ae4:	05458663          	beq	a1,s4,15b30 <_ldtoa_r+0x488>
   15ae8:	0005d783          	lhu	a5,0(a1)
   15aec:	0107951b          	slliw	a0,a5,0x10
   15af0:	4105551b          	sraiw	a0,a0,0x10
   15af4:	02051713          	slli	a4,a0,0x20
   15af8:	0017979b          	slliw	a5,a5,0x1
   15afc:	00075463          	bgez	a4,15b04 <_ldtoa_r+0x45c>
   15b00:	00166613          	ori	a2,a2,1
   15b04:	03079793          	slli	a5,a5,0x30
   15b08:	0307d793          	srli	a5,a5,0x30
   15b0c:	00267513          	andi	a0,a2,2
   15b10:	0017e813          	ori	a6,a5,1
   15b14:	fa050ee3          	beqz	a0,15ad0 <_ldtoa_r+0x428>
   15b18:	0016161b          	slliw	a2,a2,0x1
   15b1c:	01059023          	sh	a6,0(a1)
   15b20:	03061613          	slli	a2,a2,0x30
   15b24:	ffe58593          	addi	a1,a1,-2
   15b28:	03065613          	srli	a2,a2,0x30
   15b2c:	fb459ee3          	bne	a1,s4,15ae8 <_ldtoa_r+0x440>
   15b30:	00000613          	li	a2,0
   15b34:	0f810593          	addi	a1,sp,248
   15b38:	01c0006f          	j	15b54 <_ldtoa_r+0x4ac>
   15b3c:	0016161b          	slliw	a2,a2,0x1
   15b40:	00f59023          	sh	a5,0(a1)
   15b44:	03061613          	slli	a2,a2,0x30
   15b48:	ffe58593          	addi	a1,a1,-2
   15b4c:	03065613          	srli	a2,a2,0x30
   15b50:	05458663          	beq	a1,s4,15b9c <_ldtoa_r+0x4f4>
   15b54:	0005d783          	lhu	a5,0(a1)
   15b58:	0107951b          	slliw	a0,a5,0x10
   15b5c:	4105551b          	sraiw	a0,a0,0x10
   15b60:	02051713          	slli	a4,a0,0x20
   15b64:	0017979b          	slliw	a5,a5,0x1
   15b68:	00075463          	bgez	a4,15b70 <_ldtoa_r+0x4c8>
   15b6c:	00166613          	ori	a2,a2,1
   15b70:	03079793          	slli	a5,a5,0x30
   15b74:	0307d793          	srli	a5,a5,0x30
   15b78:	00267513          	andi	a0,a2,2
   15b7c:	0017e813          	ori	a6,a5,1
   15b80:	fa050ee3          	beqz	a0,15b3c <_ldtoa_r+0x494>
   15b84:	0016161b          	slliw	a2,a2,0x1
   15b88:	01059023          	sh	a6,0(a1)
   15b8c:	03061613          	slli	a2,a2,0x30
   15b90:	ffe58593          	addi	a1,a1,-2
   15b94:	03065613          	srli	a2,a2,0x30
   15b98:	fb459ee3          	bne	a1,s4,15b54 <_ldtoa_r+0x4ac>
   15b9c:	00000513          	li	a0,0
   15ba0:	000c0593          	mv	a1,s8
   15ba4:	0f810613          	addi	a2,sp,248
   15ba8:	0005d803          	lhu	a6,0(a1)
   15bac:	00065783          	lhu	a5,0(a2)
   15bb0:	ffe58593          	addi	a1,a1,-2
   15bb4:	ffe60613          	addi	a2,a2,-2
   15bb8:	010787b3          	add	a5,a5,a6
   15bbc:	00a787b3          	add	a5,a5,a0
   15bc0:	00f59123          	sh	a5,2(a1)
   15bc4:	0107d793          	srli	a5,a5,0x10
   15bc8:	0017f513          	andi	a0,a5,1
   15bcc:	fd461ee3          	bne	a2,s4,15ba8 <_ldtoa_r+0x500>
   15bd0:	00098613          	mv	a2,s3
   15bd4:	0a010593          	addi	a1,sp,160
   15bd8:	0c010513          	addi	a0,sp,192
   15bdc:	e61fe0ef          	jal	ra,14a3c <eiremain>
   15be0:	1ec15783          	lhu	a5,492(sp)
   15be4:	fff4849b          	addiw	s1,s1,-1
   15be8:	e40780e3          	beqz	a5,15a28 <_ldtoa_r+0x380>
   15bec:	00078d93          	mv	s11,a5
   15bf0:	02013703          	ld	a4,32(sp)
   15bf4:	02d00793          	li	a5,45
   15bf8:	00071463          	bnez	a4,15c00 <_ldtoa_r+0x558>
   15bfc:	02000793          	li	a5,32
   15c00:	16f10023          	sb	a5,352(sp)
   15c04:	00300793          	li	a5,3
   15c08:	00813403          	ld	s0,8(sp)
   15c0c:	02fb8463          	beq	s7,a5,15c34 <_ldtoa_r+0x58c>
   15c10:	00a00793          	li	a5,10
   15c14:	20fd88e3          	beq	s11,a5,16624 <_ldtoa_r+0xf7c>
   15c18:	030d8d9b          	addiw	s11,s11,48
   15c1c:	02e00793          	li	a5,46
   15c20:	17b100a3          	sb	s11,353(sp)
   15c24:	16f10123          	sb	a5,354(sp)
   15c28:	7a044863          	bltz	s0,163d8 <_ldtoa_r+0xd30>
   15c2c:	16310d93          	addi	s11,sp,355
   15c30:	0300006f          	j	15c60 <_ldtoa_r+0x5b8>
   15c34:	0094043b          	addw	s0,s0,s1
   15c38:	02a00793          	li	a5,42
   15c3c:	fc87dae3          	bge	a5,s0,15c10 <_ldtoa_r+0x568>
   15c40:	00a00793          	li	a5,10
   15c44:	1afd8ce3          	beq	s11,a5,165fc <_ldtoa_r+0xf54>
   15c48:	030d8d9b          	addiw	s11,s11,48
   15c4c:	02e00793          	li	a5,46
   15c50:	17b100a3          	sb	s11,353(sp)
   15c54:	16f10123          	sb	a5,354(sp)
   15c58:	02a00413          	li	s0,42
   15c5c:	16310d93          	addi	s11,sp,355
   15c60:	00000c13          	li	s8,0
   15c64:	0e010a93          	addi	s5,sp,224
   15c68:	0b810a13          	addi	s4,sp,184
   15c6c:	0a210c93          	addi	s9,sp,162
   15c70:	0e210d13          	addi	s10,sp,226
   15c74:	00000613          	li	a2,0
   15c78:	000a0593          	mv	a1,s4
   15c7c:	01c0006f          	j	15c98 <_ldtoa_r+0x5f0>
   15c80:	0016161b          	slliw	a2,a2,0x1
   15c84:	00f59023          	sh	a5,0(a1)
   15c88:	03061613          	slli	a2,a2,0x30
   15c8c:	ffe58593          	addi	a1,a1,-2
   15c90:	03065613          	srli	a2,a2,0x30
   15c94:	05958663          	beq	a1,s9,15ce0 <_ldtoa_r+0x638>
   15c98:	0005d783          	lhu	a5,0(a1)
   15c9c:	0107951b          	slliw	a0,a5,0x10
   15ca0:	4105551b          	sraiw	a0,a0,0x10
   15ca4:	02051713          	slli	a4,a0,0x20
   15ca8:	0017979b          	slliw	a5,a5,0x1
   15cac:	00075463          	bgez	a4,15cb4 <_ldtoa_r+0x60c>
   15cb0:	00166613          	ori	a2,a2,1
   15cb4:	03079793          	slli	a5,a5,0x30
   15cb8:	0307d793          	srli	a5,a5,0x30
   15cbc:	00267513          	andi	a0,a2,2
   15cc0:	0017e313          	ori	t1,a5,1
   15cc4:	fa050ee3          	beqz	a0,15c80 <_ldtoa_r+0x5d8>
   15cc8:	0016161b          	slliw	a2,a2,0x1
   15ccc:	00659023          	sh	t1,0(a1)
   15cd0:	03061613          	slli	a2,a2,0x30
   15cd4:	ffe58593          	addi	a1,a1,-2
   15cd8:	03065613          	srli	a2,a2,0x30
   15cdc:	fb959ee3          	bne	a1,s9,15c98 <_ldtoa_r+0x5f0>
   15ce0:	000a8613          	mv	a2,s5
   15ce4:	0a010793          	addi	a5,sp,160
   15ce8:	00278793          	addi	a5,a5,2
   15cec:	ffe7d583          	lhu	a1,-2(a5)
   15cf0:	00260613          	addi	a2,a2,2
   15cf4:	feb61f23          	sh	a1,-2(a2)
   15cf8:	ff4798e3          	bne	a5,s4,15ce8 <_ldtoa_r+0x640>
   15cfc:	0e011c23          	sh	zero,248(sp)
   15d00:	00000613          	li	a2,0
   15d04:	0f810593          	addi	a1,sp,248
   15d08:	01c0006f          	j	15d24 <_ldtoa_r+0x67c>
   15d0c:	0016161b          	slliw	a2,a2,0x1
   15d10:	00f59023          	sh	a5,0(a1)
   15d14:	03061613          	slli	a2,a2,0x30
   15d18:	ffe58593          	addi	a1,a1,-2
   15d1c:	03065613          	srli	a2,a2,0x30
   15d20:	05a58663          	beq	a1,s10,15d6c <_ldtoa_r+0x6c4>
   15d24:	0005d783          	lhu	a5,0(a1)
   15d28:	0107951b          	slliw	a0,a5,0x10
   15d2c:	4105551b          	sraiw	a0,a0,0x10
   15d30:	02051713          	slli	a4,a0,0x20
   15d34:	0017979b          	slliw	a5,a5,0x1
   15d38:	00075463          	bgez	a4,15d40 <_ldtoa_r+0x698>
   15d3c:	00166613          	ori	a2,a2,1
   15d40:	03079793          	slli	a5,a5,0x30
   15d44:	0307d793          	srli	a5,a5,0x30
   15d48:	00267513          	andi	a0,a2,2
   15d4c:	0017e313          	ori	t1,a5,1
   15d50:	fa050ee3          	beqz	a0,15d0c <_ldtoa_r+0x664>
   15d54:	0016161b          	slliw	a2,a2,0x1
   15d58:	00659023          	sh	t1,0(a1)
   15d5c:	03061613          	slli	a2,a2,0x30
   15d60:	ffe58593          	addi	a1,a1,-2
   15d64:	03065613          	srli	a2,a2,0x30
   15d68:	fba59ee3          	bne	a1,s10,15d24 <_ldtoa_r+0x67c>
   15d6c:	00000613          	li	a2,0
   15d70:	0f810593          	addi	a1,sp,248
   15d74:	01c0006f          	j	15d90 <_ldtoa_r+0x6e8>
   15d78:	0016161b          	slliw	a2,a2,0x1
   15d7c:	00f59023          	sh	a5,0(a1)
   15d80:	03061613          	slli	a2,a2,0x30
   15d84:	ffe58593          	addi	a1,a1,-2
   15d88:	03065613          	srli	a2,a2,0x30
   15d8c:	05a58663          	beq	a1,s10,15dd8 <_ldtoa_r+0x730>
   15d90:	0005d783          	lhu	a5,0(a1)
   15d94:	0107951b          	slliw	a0,a5,0x10
   15d98:	4105551b          	sraiw	a0,a0,0x10
   15d9c:	02051713          	slli	a4,a0,0x20
   15da0:	0017979b          	slliw	a5,a5,0x1
   15da4:	00075463          	bgez	a4,15dac <_ldtoa_r+0x704>
   15da8:	00166613          	ori	a2,a2,1
   15dac:	03079793          	slli	a5,a5,0x30
   15db0:	0307d793          	srli	a5,a5,0x30
   15db4:	00267513          	andi	a0,a2,2
   15db8:	0017e313          	ori	t1,a5,1
   15dbc:	fa050ee3          	beqz	a0,15d78 <_ldtoa_r+0x6d0>
   15dc0:	0016161b          	slliw	a2,a2,0x1
   15dc4:	00659023          	sh	t1,0(a1)
   15dc8:	03061613          	slli	a2,a2,0x30
   15dcc:	ffe58593          	addi	a1,a1,-2
   15dd0:	03065613          	srli	a2,a2,0x30
   15dd4:	fba59ee3          	bne	a1,s10,15d90 <_ldtoa_r+0x6e8>
   15dd8:	00000513          	li	a0,0
   15ddc:	000a0593          	mv	a1,s4
   15de0:	0f810613          	addi	a2,sp,248
   15de4:	0005d303          	lhu	t1,0(a1)
   15de8:	00065783          	lhu	a5,0(a2)
   15dec:	ffe58593          	addi	a1,a1,-2
   15df0:	ffe60613          	addi	a2,a2,-2
   15df4:	006787b3          	add	a5,a5,t1
   15df8:	00a787b3          	add	a5,a5,a0
   15dfc:	00f59123          	sh	a5,2(a1)
   15e00:	0107d793          	srli	a5,a5,0x10
   15e04:	0017f513          	andi	a0,a5,1
   15e08:	fda61ee3          	bne	a2,s10,15de4 <_ldtoa_r+0x73c>
   15e0c:	00098613          	mv	a2,s3
   15e10:	0a010593          	addi	a1,sp,160
   15e14:	0c010513          	addi	a0,sp,192
   15e18:	c25fe0ef          	jal	ra,14a3c <eiremain>
   15e1c:	1ec15783          	lhu	a5,492(sp)
   15e20:	018d8633          	add	a2,s11,s8
   15e24:	001c0c13          	addi	s8,s8,1
   15e28:	0307859b          	addiw	a1,a5,48
   15e2c:	00b60023          	sb	a1,0(a2)
   15e30:	000c061b          	sext.w	a2,s8
   15e34:	e4c450e3          	bge	s0,a2,15c74 <_ldtoa_r+0x5cc>
   15e38:	00140993          	addi	s3,s0,1
   15e3c:	013d89b3          	add	s3,s11,s3
   15e40:	008d8db3          	add	s11,s11,s0
   15e44:	00400713          	li	a4,4
   15e48:	08f75063          	bge	a4,a5,15ec8 <_ldtoa_r+0x820>
   15e4c:	00500713          	li	a4,5
   15e50:	02e788e3          	beq	a5,a4,16680 <_ldtoa_r+0xfd8>
   15e54:	ffe9c783          	lbu	a5,-2(s3)
   15e58:	ffe98713          	addi	a4,s3,-2
   15e5c:	07f7f793          	andi	a5,a5,127
   15e60:	0007881b          	sext.w	a6,a5
   15e64:	7e044663          	bltz	s0,16650 <_ldtoa_r+0xfa8>
   15e68:	02e00693          	li	a3,46
   15e6c:	04d78263          	beq	a5,a3,15eb0 <_ldtoa_r+0x808>
   15e70:	0017879b          	addiw	a5,a5,1
   15e74:	00f70023          	sb	a5,0(a4)
   15e78:	03800793          	li	a5,56
   15e7c:	03000593          	li	a1,48
   15e80:	02e00613          	li	a2,46
   15e84:	03800513          	li	a0,56
   15e88:	0107c863          	blt	a5,a6,15e98 <_ldtoa_r+0x7f0>
   15e8c:	03c0006f          	j	15ec8 <_ldtoa_r+0x820>
   15e90:	00d70023          	sb	a3,0(a4)
   15e94:	02f57a63          	bgeu	a0,a5,15ec8 <_ldtoa_r+0x820>
   15e98:	00b70023          	sb	a1,0(a4)
   15e9c:	fff70713          	addi	a4,a4,-1
   15ea0:	00074783          	lbu	a5,0(a4)
   15ea4:	07f7f793          	andi	a5,a5,127
   15ea8:	0017869b          	addiw	a3,a5,1
   15eac:	fec792e3          	bne	a5,a2,15e90 <_ldtoa_r+0x7e8>
   15eb0:	fff74783          	lbu	a5,-1(a4)
   15eb4:	03800693          	li	a3,56
   15eb8:	02f6fce3          	bgeu	a3,a5,166f0 <_ldtoa_r+0x1048>
   15ebc:	03100793          	li	a5,49
   15ec0:	0014849b          	addiw	s1,s1,1
   15ec4:	fef70fa3          	sb	a5,-1(a4)
   15ec8:	00048613          	mv	a2,s1
   15ecc:	0000c597          	auipc	a1,0xc
   15ed0:	39c58593          	addi	a1,a1,924 # 22268 <bmask+0x58>
   15ed4:	000d8513          	mv	a0,s11
   15ed8:	295020ef          	jal	ra,1896c <sprintf>
   15edc:	09215783          	lhu	a5,146(sp)
   15ee0:	02813703          	ld	a4,40(sp)
   15ee4:	1a912823          	sw	s1,432(sp)
   15ee8:	fff7c793          	not	a5,a5
   15eec:	1ae12223          	sw	a4,420(sp)
   15ef0:	03179713          	slli	a4,a5,0x31
   15ef4:	00071e63          	bnez	a4,15f10 <_ldtoa_r+0x868>
   15ef8:	08010513          	addi	a0,sp,128
   15efc:	bdcfe0ef          	jal	ra,142d8 <eisinf.part.1>
   15f00:	22051c63          	bnez	a0,16138 <_ldtoa_r+0xa90>
   15f04:	08010513          	addi	a0,sp,128
   15f08:	918fe0ef          	jal	ra,14020 <eisnan.part.0>
   15f0c:	22051663          	bnez	a0,16138 <_ldtoa_r+0xa90>
   15f10:	01813683          	ld	a3,24(sp)
   15f14:	16014783          	lbu	a5,352(sp)
   15f18:	0014871b          	addiw	a4,s1,1
   15f1c:	00e6a023          	sw	a4,0(a3)
   15f20:	0e078ae3          	beqz	a5,16814 <_ldtoa_r+0x116c>
   15f24:	02e00713          	li	a4,46
   15f28:	06e78063          	beq	a5,a4,15f88 <_ldtoa_r+0x8e0>
   15f2c:	00090793          	mv	a5,s2
   15f30:	02e00693          	li	a3,46
   15f34:	0080006f          	j	15f3c <_ldtoa_r+0x894>
   15f38:	04d70a63          	beq	a4,a3,15f8c <_ldtoa_r+0x8e4>
   15f3c:	00178793          	addi	a5,a5,1
   15f40:	0007c703          	lbu	a4,0(a5)
   15f44:	fe071ae3          	bnez	a4,15f38 <_ldtoa_r+0x890>
   15f48:	04500693          	li	a3,69
   15f4c:	00f96663          	bltu	s2,a5,15f58 <_ldtoa_r+0x8b0>
   15f50:	0140006f          	j	15f64 <_ldtoa_r+0x8bc>
   15f54:	01278863          	beq	a5,s2,15f64 <_ldtoa_r+0x8bc>
   15f58:	fff78793          	addi	a5,a5,-1
   15f5c:	0007c703          	lbu	a4,0(a5)
   15f60:	fed71ae3          	bne	a4,a3,15f54 <_ldtoa_r+0x8ac>
   15f64:	00078023          	sb	zero,0(a5)
   15f68:	00090793          	mv	a5,s2
   15f6c:	02000693          	li	a3,32
   15f70:	02d00613          	li	a2,45
   15f74:	0007c703          	lbu	a4,0(a5)
   15f78:	00d70463          	beq	a4,a3,15f80 <_ldtoa_r+0x8d8>
   15f7c:	02c71a63          	bne	a4,a2,15fb0 <_ldtoa_r+0x908>
   15f80:	00178793          	addi	a5,a5,1
   15f84:	ff1ff06f          	j	15f74 <_ldtoa_r+0x8cc>
   15f88:	00090793          	mv	a5,s2
   15f8c:	0017c703          	lbu	a4,1(a5)
   15f90:	00178793          	addi	a5,a5,1
   15f94:	fee78fa3          	sb	a4,-1(a5)
   15f98:	fa0708e3          	beqz	a4,15f48 <_ldtoa_r+0x8a0>
   15f9c:	0017c703          	lbu	a4,1(a5)
   15fa0:	00178793          	addi	a5,a5,1
   15fa4:	fee78fa3          	sb	a4,-1(a5)
   15fa8:	fe0712e3          	bnez	a4,15f8c <_ldtoa_r+0x8e4>
   15fac:	f9dff06f          	j	15f48 <_ldtoa_r+0x8a0>
   15fb0:	00090413          	mv	s0,s2
   15fb4:	00c0006f          	j	15fc0 <_ldtoa_r+0x918>
   15fb8:	0007c703          	lbu	a4,0(a5)
   15fbc:	00068413          	mv	s0,a3
   15fc0:	00e40023          	sb	a4,0(s0)
   15fc4:	00140693          	addi	a3,s0,1
   15fc8:	00178793          	addi	a5,a5,1
   15fcc:	fe0716e3          	bnez	a4,15fb8 <_ldtoa_r+0x910>
   15fd0:	00200793          	li	a5,2
   15fd4:	fff44703          	lbu	a4,-1(s0)
   15fd8:	12fb8463          	beq	s7,a5,16100 <_ldtoa_r+0xa58>
   15fdc:	00813783          	ld	a5,8(sp)
   15fe0:	0007869b          	sext.w	a3,a5
   15fe4:	0097d463          	bge	a5,s1,15fec <_ldtoa_r+0x944>
   15fe8:	0004869b          	sext.w	a3,s1
   15fec:	03000793          	li	a5,48
   15ff0:	02f71663          	bne	a4,a5,1601c <_ldtoa_r+0x974>
   15ff4:	412407b3          	sub	a5,s0,s2
   15ff8:	02f6d263          	bge	a3,a5,1601c <_ldtoa_r+0x974>
   15ffc:	03000613          	li	a2,48
   16000:	0080006f          	j	16008 <_ldtoa_r+0x960>
   16004:	00e6dc63          	bge	a3,a4,1601c <_ldtoa_r+0x974>
   16008:	fff40413          	addi	s0,s0,-1
   1600c:	fff44783          	lbu	a5,-1(s0)
   16010:	00040023          	sb	zero,0(s0)
   16014:	41240733          	sub	a4,s0,s2
   16018:	fec786e3          	beq	a5,a2,16004 <_ldtoa_r+0x95c>
   1601c:	00300793          	li	a5,3
   16020:	0afb8263          	beq	s7,a5,160c4 <_ldtoa_r+0xa1c>
   16024:	01013783          	ld	a5,16(sp)
   16028:	060b2423          	sw	zero,104(s6)
   1602c:	00978a1b          	addiw	s4,a5,9
   16030:	01f00793          	li	a5,31
   16034:	0d47f263          	bgeu	a5,s4,160f8 <_ldtoa_r+0xa50>
   16038:	00100713          	li	a4,1
   1603c:	00400793          	li	a5,4
   16040:	0017979b          	slliw	a5,a5,0x1
   16044:	01c78693          	addi	a3,a5,28
   16048:	0007059b          	sext.w	a1,a4
   1604c:	0017071b          	addiw	a4,a4,1
   16050:	feda78e3          	bgeu	s4,a3,16040 <_ldtoa_r+0x998>
   16054:	06bb2423          	sw	a1,104(s6)
   16058:	000b0513          	mv	a0,s6
   1605c:	61c010ef          	jal	ra,17678 <_Balloc>
   16060:	06ab3023          	sd	a0,96(s6)
   16064:	00090593          	mv	a1,s2
   16068:	00050493          	mv	s1,a0
   1606c:	405020ef          	jal	ra,18c70 <strcpy>
   16070:	03013783          	ld	a5,48(sp)
   16074:	00078863          	beqz	a5,16084 <_ldtoa_r+0x9dc>
   16078:	41240433          	sub	s0,s0,s2
   1607c:	00848433          	add	s0,s1,s0
   16080:	0087b023          	sd	s0,0(a5)
   16084:	25813083          	ld	ra,600(sp)
   16088:	25013403          	ld	s0,592(sp)
   1608c:	00048513          	mv	a0,s1
   16090:	24013903          	ld	s2,576(sp)
   16094:	24813483          	ld	s1,584(sp)
   16098:	23813983          	ld	s3,568(sp)
   1609c:	23013a03          	ld	s4,560(sp)
   160a0:	22813a83          	ld	s5,552(sp)
   160a4:	22013b03          	ld	s6,544(sp)
   160a8:	21813b83          	ld	s7,536(sp)
   160ac:	21013c03          	ld	s8,528(sp)
   160b0:	20813c83          	ld	s9,520(sp)
   160b4:	20013d03          	ld	s10,512(sp)
   160b8:	1f813d83          	ld	s11,504(sp)
   160bc:	26010113          	addi	sp,sp,608
   160c0:	00008067          	ret
   160c4:	00813783          	ld	a5,8(sp)
   160c8:	009784bb          	addw	s1,a5,s1
   160cc:	4c04ce63          	bltz	s1,165a8 <_ldtoa_r+0xf00>
   160d0:	01813783          	ld	a5,24(sp)
   160d4:	01013703          	ld	a4,16(sp)
   160d8:	0007a783          	lw	a5,0(a5)
   160dc:	00e787bb          	addw	a5,a5,a4
   160e0:	00f13823          	sd	a5,16(sp)
   160e4:	01013783          	ld	a5,16(sp)
   160e8:	060b2423          	sw	zero,104(s6)
   160ec:	00378a1b          	addiw	s4,a5,3
   160f0:	01f00793          	li	a5,31
   160f4:	f547e2e3          	bltu	a5,s4,16038 <_ldtoa_r+0x990>
   160f8:	00000593          	li	a1,0
   160fc:	f5dff06f          	j	16058 <_ldtoa_r+0x9b0>
   16100:	03000793          	li	a5,48
   16104:	f2f710e3          	bne	a4,a5,16024 <_ldtoa_r+0x97c>
   16108:	412407b3          	sub	a5,s0,s2
   1610c:	00100693          	li	a3,1
   16110:	eef6c6e3          	blt	a3,a5,15ffc <_ldtoa_r+0x954>
   16114:	f11ff06f          	j	16024 <_ldtoa_r+0x97c>
   16118:	01013783          	ld	a5,16(sp)
   1611c:	02a00713          	li	a4,42
   16120:	00078c13          	mv	s8,a5
   16124:	00f75463          	bge	a4,a5,1612c <_ldtoa_r+0xa84>
   16128:	02a00c13          	li	s8,42
   1612c:	000c079b          	sext.w	a5,s8
   16130:	00f13423          	sd	a5,8(sp)
   16134:	e34ff06f          	j	15768 <_ldtoa_r+0xc0>
   16138:	01813703          	ld	a4,24(sp)
   1613c:	000027b7          	lui	a5,0x2
   16140:	70f78793          	addi	a5,a5,1807 # 270f <main-0xd9a1>
   16144:	00f72023          	sw	a5,0(a4)
   16148:	e21ff06f          	j	15f68 <_ldtoa_r+0x8c0>
   1614c:	0e010a93          	addi	s5,sp,224
   16150:	000a8713          	mv	a4,s5
   16154:	0a010793          	addi	a5,sp,160
   16158:	0b410613          	addi	a2,sp,180
   1615c:	00278793          	addi	a5,a5,2
   16160:	ffe7d683          	lhu	a3,-2(a5)
   16164:	00270713          	addi	a4,a4,2
   16168:	fed71f23          	sh	a3,-2(a4)
   1616c:	fec798e3          	bne	a5,a2,1615c <_ldtoa_r+0xab4>
   16170:	000047b7          	lui	a5,0x4
   16174:	08e78793          	addi	a5,a5,142 # 408e <main-0xc022>
   16178:	0ef11923          	sh	a5,242(sp)
   1617c:	000087b7          	lui	a5,0x8
   16180:	fff78793          	addi	a5,a5,-1 # 7fff <main-0x80b1>
   16184:	02f13c23          	sd	a5,56(sp)
   16188:	ffffc7b7          	lui	a5,0xffffc
   1618c:	0027879b          	addiw	a5,a5,2
   16190:	01000a13          	li	s4,16
   16194:	00000493          	li	s1,0
   16198:	0000cd17          	auipc	s10,0xc
   1619c:	f08d0d13          	addi	s10,s10,-248 # 220a0 <etens+0xa0>
   161a0:	16010913          	addi	s2,sp,352
   161a4:	1a010993          	addi	s3,sp,416
   161a8:	10010413          	addi	s0,sp,256
   161ac:	0d210c13          	addi	s8,sp,210
   161b0:	04f12223          	sw	a5,68(sp)
   161b4:	07a10c93          	addi	s9,sp,122
   161b8:	00098693          	mv	a3,s3
   161bc:	0c010613          	addi	a2,sp,192
   161c0:	000a8593          	mv	a1,s5
   161c4:	000d0513          	mv	a0,s10
   161c8:	e91fe0ef          	jal	ra,15058 <ediv>
   161cc:	06810713          	addi	a4,sp,104
   161d0:	0c010793          	addi	a5,sp,192
   161d4:	00278793          	addi	a5,a5,2 # ffffffffffffc002 <__BSS_END__+0xfffffffffffd73e2>
   161d8:	ffe7d683          	lhu	a3,-2(a5)
   161dc:	00270713          	addi	a4,a4,2
   161e0:	fed71f23          	sh	a3,-2(a4)
   161e4:	ffb798e3          	bne	a5,s11,161d4 <_ldtoa_r+0xb2c>
   161e8:	03813783          	ld	a5,56(sp)
   161ec:	07a15503          	lhu	a0,122(sp)
   161f0:	00f57eb3          	and	t4,a0,a5
   161f4:	04412783          	lw	a5,68(sp)
   161f8:	00fe87bb          	addw	a5,t4,a5
   161fc:	00078e93          	mv	t4,a5
   16200:	3af05e63          	blez	a5,165bc <_ldtoa_r+0xf14>
   16204:	09000593          	li	a1,144
   16208:	40f58f3b          	subw	t5,a1,a5
   1620c:	000f0593          	mv	a1,t5
   16210:	00040713          	mv	a4,s0
   16214:	06810793          	addi	a5,sp,104
   16218:	07c10613          	addi	a2,sp,124
   1621c:	00278793          	addi	a5,a5,2
   16220:	ffe7d683          	lhu	a3,-2(a5)
   16224:	00270713          	addi	a4,a4,2
   16228:	fed71f23          	sh	a3,-2(a4)
   1622c:	fec798e3          	bne	a5,a2,1621c <_ldtoa_r+0xb74>
   16230:	07e05e63          	blez	t5,162ac <_ldtoa_r+0xc04>
   16234:	00f00793          	li	a5,15
   16238:	00040713          	mv	a4,s0
   1623c:	05e7d063          	bge	a5,t5,1627c <_ldtoa_r+0xbd4>
   16240:	ff05859b          	addiw	a1,a1,-16
   16244:	0045d59b          	srliw	a1,a1,0x4
   16248:	02059713          	slli	a4,a1,0x20
   1624c:	02075713          	srli	a4,a4,0x20
   16250:	00170713          	addi	a4,a4,1
   16254:	00171713          	slli	a4,a4,0x1
   16258:	00e40733          	add	a4,s0,a4
   1625c:	00040793          	mv	a5,s0
   16260:	00278793          	addi	a5,a5,2
   16264:	fe079f23          	sh	zero,-2(a5)
   16268:	fee79ce3          	bne	a5,a4,16260 <_ldtoa_r+0xbb8>
   1626c:	08000f13          	li	t5,128
   16270:	41df0ebb          	subw	t4,t5,t4
   16274:	0045959b          	slliw	a1,a1,0x4
   16278:	40be8f3b          	subw	t5,t4,a1
   1627c:	001f1593          	slli	a1,t5,0x1
   16280:	0000cf17          	auipc	t5,0xc
   16284:	d50f0f13          	addi	t5,t5,-688 # 21fd0 <ezero>
   16288:	00bf05b3          	add	a1,t5,a1
   1628c:	00075783          	lhu	a5,0(a4)
   16290:	2405d683          	lhu	a3,576(a1)
   16294:	00d7f7b3          	and	a5,a5,a3
   16298:	00f71023          	sh	a5,0(a4)
   1629c:	0105151b          	slliw	a0,a0,0x10
   162a0:	4105551b          	sraiw	a0,a0,0x10
   162a4:	02051793          	slli	a5,a0,0x20
   162a8:	1607c063          	bltz	a5,16408 <_ldtoa_r+0xd60>
   162ac:	0c010793          	addi	a5,sp,192
   162b0:	00040713          	mv	a4,s0
   162b4:	0007d603          	lhu	a2,0(a5)
   162b8:	00075683          	lhu	a3,0(a4)
   162bc:	00278793          	addi	a5,a5,2
   162c0:	00270713          	addi	a4,a4,2
   162c4:	02d61463          	bne	a2,a3,162ec <_ldtoa_r+0xc44>
   162c8:	fefc16e3          	bne	s8,a5,162b4 <_ldtoa_r+0xc0c>
   162cc:	000a8713          	mv	a4,s5
   162d0:	0c010793          	addi	a5,sp,192
   162d4:	00278793          	addi	a5,a5,2
   162d8:	ffe7d683          	lhu	a3,-2(a5)
   162dc:	00270713          	addi	a4,a4,2
   162e0:	fed71f23          	sh	a3,-2(a4)
   162e4:	ffb798e3          	bne	a5,s11,162d4 <_ldtoa_r+0xc2c>
   162e8:	009a04bb          	addw	s1,s4,s1
   162ec:	014d0d13          	addi	s10,s10,20
   162f0:	0000c797          	auipc	a5,0xc
   162f4:	e1478793          	addi	a5,a5,-492 # 22104 <etens+0x104>
   162f8:	001a5a13          	srli	s4,s4,0x1
   162fc:	eafd1ee3          	bne	s10,a5,161b8 <_ldtoa_r+0xb10>
   16300:	0f215783          	lhu	a5,242(sp)
   16304:	0b215703          	lhu	a4,178(sp)
   16308:	0f410613          	addi	a2,sp,244
   1630c:	00e787bb          	addw	a5,a5,a4
   16310:	ffffc737          	lui	a4,0xffffc
   16314:	f727071b          	addiw	a4,a4,-142
   16318:	00e787bb          	addw	a5,a5,a4
   1631c:	0ef11923          	sh	a5,242(sp)
   16320:	0a010713          	addi	a4,sp,160
   16324:	000a8793          	mv	a5,s5
   16328:	00278793          	addi	a5,a5,2
   1632c:	ffe7d683          	lhu	a3,-2(a5)
   16330:	00270713          	addi	a4,a4,2 # ffffffffffffc002 <__BSS_END__+0xfffffffffffd73e2>
   16334:	fed71f23          	sh	a3,-2(a4)
   16338:	fec798e3          	bne	a5,a2,16328 <_ldtoa_r+0xc80>
   1633c:	00000693          	li	a3,0
   16340:	0c010793          	addi	a5,sp,192
   16344:	0000c717          	auipc	a4,0xc
   16348:	ca470713          	addi	a4,a4,-860 # 21fe8 <eone>
   1634c:	0080006f          	j	16354 <_ldtoa_r+0xcac>
   16350:	00075683          	lhu	a3,0(a4)
   16354:	00278793          	addi	a5,a5,2
   16358:	fed79f23          	sh	a3,-2(a5)
   1635c:	00270713          	addi	a4,a4,2
   16360:	ffb798e3          	bne	a5,s11,16350 <_ldtoa_r+0xca8>
   16364:	00001c37          	lui	s8,0x1
   16368:	0000cd97          	auipc	s11,0xc
   1636c:	c98d8d93          	addi	s11,s11,-872 # 22000 <etens>
   16370:	0000ca17          	auipc	s4,0xc
   16374:	d80a0a13          	addi	s4,s4,-640 # 220f0 <etens+0xf0>
   16378:	0100006f          	j	16388 <_ldtoa_r+0xce0>
   1637c:	001c5c13          	srli	s8,s8,0x1
   16380:	2d4d8463          	beq	s11,s4,16648 <_ldtoa_r+0xfa0>
   16384:	014d8d93          	addi	s11,s11,20
   16388:	000a8593          	mv	a1,s5
   1638c:	000a0513          	mv	a0,s4
   16390:	e2dfd0ef          	jal	ra,141bc <ecmp>
   16394:	000a8593          	mv	a1,s5
   16398:	2aa04863          	bgtz	a0,16648 <_ldtoa_r+0xfa0>
   1639c:	000d8513          	mv	a0,s11
   163a0:	e1dfd0ef          	jal	ra,141bc <ecmp>
   163a4:	fca04ce3          	bgtz	a0,1637c <_ldtoa_r+0xcd4>
   163a8:	00098693          	mv	a3,s3
   163ac:	000a8613          	mv	a2,s5
   163b0:	000a8593          	mv	a1,s5
   163b4:	000d8513          	mv	a0,s11
   163b8:	ca1fe0ef          	jal	ra,15058 <ediv>
   163bc:	0c010613          	addi	a2,sp,192
   163c0:	00098693          	mv	a3,s3
   163c4:	00060593          	mv	a1,a2
   163c8:	000d8513          	mv	a0,s11
   163cc:	885fe0ef          	jal	ra,14c50 <emul>
   163d0:	009c04bb          	addw	s1,s8,s1
   163d4:	fa9ff06f          	j	1637c <_ldtoa_r+0xcd4>
   163d8:	1ec15783          	lhu	a5,492(sp)
   163dc:	16210d93          	addi	s11,sp,354
   163e0:	16310993          	addi	s3,sp,355
   163e4:	a61ff06f          	j	15e44 <_ldtoa_r+0x79c>
   163e8:	16010913          	addi	s2,sp,352
   163ec:	0000c597          	auipc	a1,0xc
   163f0:	e4c58593          	addi	a1,a1,-436 # 22238 <bmask+0x28>
   163f4:	00090513          	mv	a0,s2
   163f8:	000024b7          	lui	s1,0x2
   163fc:	570020ef          	jal	ra,1896c <sprintf>
   16400:	70f48493          	addi	s1,s1,1807 # 270f <main-0xd9a1>
   16404:	ad9ff06f          	j	15edc <_ldtoa_r+0x834>
   16408:	06810793          	addi	a5,sp,104
   1640c:	00040713          	mv	a4,s0
   16410:	0080006f          	j	16418 <_ldtoa_r+0xd70>
   16414:	e8fc8ce3          	beq	s9,a5,162ac <_ldtoa_r+0xc04>
   16418:	0007d603          	lhu	a2,0(a5)
   1641c:	00075683          	lhu	a3,0(a4)
   16420:	00278793          	addi	a5,a5,2
   16424:	00270713          	addi	a4,a4,2
   16428:	fed606e3          	beq	a2,a3,16414 <_ldtoa_r+0xd6c>
   1642c:	11215783          	lhu	a5,274(sp)
   16430:	03813703          	ld	a4,56(sp)
   16434:	00f777b3          	and	a5,a4,a5
   16438:	00e79e63          	bne	a5,a4,16454 <_ldtoa_r+0xdac>
   1643c:	00040513          	mv	a0,s0
   16440:	be1fd0ef          	jal	ra,14020 <eisnan.part.0>
   16444:	e60514e3          	bnez	a0,162ac <_ldtoa_r+0xc04>
   16448:	00040513          	mv	a0,s0
   1644c:	e8dfd0ef          	jal	ra,142d8 <eisinf.part.1>
   16450:	e4051ee3          	bnez	a0,162ac <_ldtoa_r+0xc04>
   16454:	12010593          	addi	a1,sp,288
   16458:	0000c517          	auipc	a0,0xc
   1645c:	b9050513          	addi	a0,a0,-1136 # 21fe8 <eone>
   16460:	c71fd0ef          	jal	ra,140d0 <emovi>
   16464:	14010593          	addi	a1,sp,320
   16468:	00040513          	mv	a0,s0
   1646c:	c65fd0ef          	jal	ra,140d0 <emovi>
   16470:	12015603          	lhu	a2,288(sp)
   16474:	14215503          	lhu	a0,322(sp)
   16478:	12215e83          	lhu	t4,290(sp)
   1647c:	fff64613          	not	a2,a2
   16480:	03061613          	slli	a2,a2,0x30
   16484:	03065613          	srli	a2,a2,0x30
   16488:	12c11023          	sh	a2,288(sp)
   1648c:	40ae85b3          	sub	a1,t4,a0
   16490:	00050693          	mv	a3,a0
   16494:	06b05e63          	blez	a1,16510 <_ldtoa_r+0xe68>
   16498:	00090693          	mv	a3,s2
   1649c:	14010713          	addi	a4,sp,320
   164a0:	15810793          	addi	a5,sp,344
   164a4:	00270713          	addi	a4,a4,2
   164a8:	ffe75583          	lhu	a1,-2(a4)
   164ac:	00268693          	addi	a3,a3,2
   164b0:	feb69f23          	sh	a1,-2(a3)
   164b4:	fef718e3          	bne	a4,a5,164a4 <_ldtoa_r+0xdfc>
   164b8:	16011c23          	sh	zero,376(sp)
   164bc:	14010713          	addi	a4,sp,320
   164c0:	12010693          	addi	a3,sp,288
   164c4:	0080006f          	j	164cc <_ldtoa_r+0xe24>
   164c8:	0006d603          	lhu	a2,0(a3)
   164cc:	00270713          	addi	a4,a4,2
   164d0:	fec71f23          	sh	a2,-2(a4)
   164d4:	00268693          	addi	a3,a3,2
   164d8:	fef718e3          	bne	a4,a5,164c8 <_ldtoa_r+0xe20>
   164dc:	14011c23          	sh	zero,344(sp)
   164e0:	12010713          	addi	a4,sp,288
   164e4:	00090793          	mv	a5,s2
   164e8:	17810593          	addi	a1,sp,376
   164ec:	00278793          	addi	a5,a5,2
   164f0:	ffe7d683          	lhu	a3,-2(a5)
   164f4:	00270713          	addi	a4,a4,2
   164f8:	fed71f23          	sh	a3,-2(a4)
   164fc:	feb798e3          	bne	a5,a1,164ec <_ldtoa_r+0xe44>
   16500:	14215683          	lhu	a3,322(sp)
   16504:	41d505b3          	sub	a1,a0,t4
   16508:	12011c23          	sh	zero,312(sp)
   1650c:	00068513          	mv	a0,a3
   16510:	30058a63          	beqz	a1,16824 <_ldtoa_r+0x117c>
   16514:	04d13423          	sd	a3,72(sp)
   16518:	f6f00793          	li	a5,-145
   1651c:	06f5c863          	blt	a1,a5,1658c <_ldtoa_r+0xee4>
   16520:	0005859b          	sext.w	a1,a1
   16524:	12010513          	addi	a0,sp,288
   16528:	dcdfd0ef          	jal	ra,142f4 <eshift.part.3>
   1652c:	04813683          	ld	a3,72(sp)
   16530:	00050593          	mv	a1,a0
   16534:	15810793          	addi	a5,sp,344
   16538:	13810613          	addi	a2,sp,312
   1653c:	12015503          	lhu	a0,288(sp)
   16540:	14015703          	lhu	a4,320(sp)
   16544:	32e50e63          	beq	a0,a4,16880 <_ldtoa_r+0x11d8>
   16548:	00000513          	li	a0,0
   1654c:	0007d703          	lhu	a4,0(a5)
   16550:	00065e83          	lhu	t4,0(a2)
   16554:	ffe78793          	addi	a5,a5,-2
   16558:	40a70733          	sub	a4,a4,a0
   1655c:	41d70733          	sub	a4,a4,t4
   16560:	00e79123          	sh	a4,2(a5)
   16564:	01075713          	srli	a4,a4,0x10
   16568:	00177513          	andi	a0,a4,1
   1656c:	14210713          	addi	a4,sp,322
   16570:	ffe60613          	addi	a2,a2,-2
   16574:	fce79ce3          	bne	a5,a4,1654c <_ldtoa_r+0xea4>
   16578:	00100613          	li	a2,1
   1657c:	00098793          	mv	a5,s3
   16580:	04000713          	li	a4,64
   16584:	14010513          	addi	a0,sp,320
   16588:	89cfe0ef          	jal	ra,14624 <emdnorm>
   1658c:	00040593          	mv	a1,s0
   16590:	14010513          	addi	a0,sp,320
   16594:	e0cfe0ef          	jal	ra,14ba0 <emovo.isra.6>
   16598:	d15ff06f          	j	162ac <_ldtoa_r+0xc04>
   1659c:	01013783          	ld	a5,16(sp)
   165a0:	fff7879b          	addiw	a5,a5,-1
   165a4:	b79ff06f          	j	1611c <_ldtoa_r+0xa74>
   165a8:	01813783          	ld	a5,24(sp)
   165ac:	16010023          	sb	zero,352(sp)
   165b0:	00090413          	mv	s0,s2
   165b4:	0007a023          	sw	zero,0(a5)
   165b8:	b2dff06f          	j	160e4 <_ldtoa_r+0xa3c>
   165bc:	00040793          	mv	a5,s0
   165c0:	11410713          	addi	a4,sp,276
   165c4:	00278793          	addi	a5,a5,2
   165c8:	fe079f23          	sh	zero,-2(a5)
   165cc:	fee79ce3          	bne	a5,a4,165c4 <_ldtoa_r+0xf1c>
   165d0:	ccdff06f          	j	1629c <_ldtoa_r+0xbf4>
   165d4:	02013783          	ld	a5,32(sp)
   165d8:	16010913          	addi	s2,sp,352
   165dc:	0e078c63          	beqz	a5,166d4 <_ldtoa_r+0x102c>
   165e0:	0000c597          	auipc	a1,0xc
   165e4:	c6058593          	addi	a1,a1,-928 # 22240 <bmask+0x30>
   165e8:	00090513          	mv	a0,s2
   165ec:	000024b7          	lui	s1,0x2
   165f0:	37c020ef          	jal	ra,1896c <sprintf>
   165f4:	70f48493          	addi	s1,s1,1807 # 270f <main-0xd9a1>
   165f8:	8e5ff06f          	j	15edc <_ldtoa_r+0x834>
   165fc:	03100793          	li	a5,49
   16600:	16f100a3          	sb	a5,353(sp)
   16604:	02e00793          	li	a5,46
   16608:	16f10123          	sb	a5,354(sp)
   1660c:	0014849b          	addiw	s1,s1,1
   16610:	02900413          	li	s0,41
   16614:	03000793          	li	a5,48
   16618:	16f101a3          	sb	a5,355(sp)
   1661c:	16410d93          	addi	s11,sp,356
   16620:	e40ff06f          	j	15c60 <_ldtoa_r+0x5b8>
   16624:	03100793          	li	a5,49
   16628:	16f100a3          	sb	a5,353(sp)
   1662c:	02e00793          	li	a5,46
   16630:	16f10123          	sb	a5,354(sp)
   16634:	0014849b          	addiw	s1,s1,1
   16638:	1e804263          	bgtz	s0,1681c <_ldtoa_r+0x1174>
   1663c:	16310d93          	addi	s11,sp,355
   16640:	880414e3          	bnez	s0,15ec8 <_ldtoa_r+0x820>
   16644:	e1cff06f          	j	15c60 <_ldtoa_r+0x5b8>
   16648:	11810a13          	addi	s4,sp,280
   1664c:	b5cff06f          	j	159a8 <_ldtoa_r+0x300>
   16650:	03100793          	li	a5,49
   16654:	fef98f23          	sb	a5,-2(s3)
   16658:	0014849b          	addiw	s1,s1,1
   1665c:	86dff06f          	j	15ec8 <_ldtoa_r+0x820>
   16660:	16010913          	addi	s2,sp,352
   16664:	0000c597          	auipc	a1,0xc
   16668:	bfc58593          	addi	a1,a1,-1028 # 22260 <bmask+0x50>
   1666c:	00090513          	mv	a0,s2
   16670:	000024b7          	lui	s1,0x2
   16674:	2f8020ef          	jal	ra,1896c <sprintf>
   16678:	70f48493          	addi	s1,s1,1807 # 270f <main-0xd9a1>
   1667c:	861ff06f          	j	15edc <_ldtoa_r+0x834>
   16680:	0c010593          	addi	a1,sp,192
   16684:	0a010513          	addi	a0,sp,160
   16688:	d18fe0ef          	jal	ra,14ba0 <emovo.isra.6>
   1668c:	0000c597          	auipc	a1,0xc
   16690:	94458593          	addi	a1,a1,-1724 # 21fd0 <ezero>
   16694:	0c010513          	addi	a0,sp,192
   16698:	b25fd0ef          	jal	ra,141bc <ecmp>
   1669c:	fa051c63          	bnez	a0,15e54 <_ldtoa_r+0x7ac>
   166a0:	820444e3          	bltz	s0,15ec8 <_ldtoa_r+0x820>
   166a4:	ffe9c783          	lbu	a5,-2(s3)
   166a8:	fd278713          	addi	a4,a5,-46
   166ac:	00173713          	seqz	a4,a4
   166b0:	fff74713          	not	a4,a4
   166b4:	00ed8733          	add	a4,s11,a4
   166b8:	00074703          	lbu	a4,0(a4)
   166bc:	00177713          	andi	a4,a4,1
   166c0:	800704e3          	beqz	a4,15ec8 <_ldtoa_r+0x820>
   166c4:	07f7f793          	andi	a5,a5,127
   166c8:	ffe98713          	addi	a4,s3,-2
   166cc:	0007881b          	sext.w	a6,a5
   166d0:	f98ff06f          	j	15e68 <_ldtoa_r+0x7c0>
   166d4:	0000c597          	auipc	a1,0xc
   166d8:	b7c58593          	addi	a1,a1,-1156 # 22250 <bmask+0x40>
   166dc:	00090513          	mv	a0,s2
   166e0:	000024b7          	lui	s1,0x2
   166e4:	288020ef          	jal	ra,1896c <sprintf>
   166e8:	70f48493          	addi	s1,s1,1807 # 270f <main-0xd9a1>
   166ec:	ff0ff06f          	j	15edc <_ldtoa_r+0x834>
   166f0:	0017879b          	addiw	a5,a5,1
   166f4:	fef70fa3          	sb	a5,-1(a4)
   166f8:	fd0ff06f          	j	15ec8 <_ldtoa_r+0x820>
   166fc:	10010413          	addi	s0,sp,256
   16700:	00040593          	mv	a1,s0
   16704:	0a010513          	addi	a0,sp,160
   16708:	00004ab7          	lui	s5,0x4
   1670c:	9c5fd0ef          	jal	ra,140d0 <emovi>
   16710:	00000493          	li	s1,0
   16714:	11810a13          	addi	s4,sp,280
   16718:	0f810913          	addi	s2,sp,248
   1671c:	10210993          	addi	s3,sp,258
   16720:	ffea8a93          	addi	s5,s5,-2 # 3ffe <main-0xc0b2>
   16724:	fd500c13          	li	s8,-43
   16728:	11815783          	lhu	a5,280(sp)
   1672c:	0077f793          	andi	a5,a5,7
   16730:	0c079863          	bnez	a5,16800 <_ldtoa_r+0x1158>
   16734:	0e010713          	addi	a4,sp,224
   16738:	00040793          	mv	a5,s0
   1673c:	00278793          	addi	a5,a5,2
   16740:	ffe7d683          	lhu	a3,-2(a5)
   16744:	00270713          	addi	a4,a4,2
   16748:	fed71f23          	sh	a3,-2(a4)
   1674c:	ff4798e3          	bne	a5,s4,1673c <_ldtoa_r+0x1094>
   16750:	0e010513          	addi	a0,sp,224
   16754:	0e011c23          	sh	zero,248(sp)
   16758:	f0cfd0ef          	jal	ra,13e64 <eshdn1>
   1675c:	0e010513          	addi	a0,sp,224
   16760:	f04fd0ef          	jal	ra,13e64 <eshdn1>
   16764:	00000613          	li	a2,0
   16768:	00090693          	mv	a3,s2
   1676c:	000a0713          	mv	a4,s4
   16770:	0006d583          	lhu	a1,0(a3)
   16774:	00075783          	lhu	a5,0(a4)
   16778:	ffe68693          	addi	a3,a3,-2
   1677c:	ffe70713          	addi	a4,a4,-2
   16780:	00b787b3          	add	a5,a5,a1
   16784:	00c787b3          	add	a5,a5,a2
   16788:	00f69123          	sh	a5,2(a3)
   1678c:	0107d793          	srli	a5,a5,0x10
   16790:	0017f613          	andi	a2,a5,1
   16794:	fd371ee3          	bne	a4,s3,16770 <_ldtoa_r+0x10c8>
   16798:	0e215783          	lhu	a5,226(sp)
   1679c:	0e415703          	lhu	a4,228(sp)
   167a0:	0037879b          	addiw	a5,a5,3
   167a4:	0ef11123          	sh	a5,226(sp)
   167a8:	02070063          	beqz	a4,167c8 <_ldtoa_r+0x1120>
   167ac:	0e010513          	addi	a0,sp,224
   167b0:	eb4fd0ef          	jal	ra,13e64 <eshdn1>
   167b4:	0e215783          	lhu	a5,226(sp)
   167b8:	0e415703          	lhu	a4,228(sp)
   167bc:	0017879b          	addiw	a5,a5,1
   167c0:	0ef11123          	sh	a5,226(sp)
   167c4:	fe0714e3          	bnez	a4,167ac <_ldtoa_r+0x1104>
   167c8:	0f815783          	lhu	a5,248(sp)
   167cc:	02079a63          	bnez	a5,16800 <_ldtoa_r+0x1158>
   167d0:	0e215783          	lhu	a5,226(sp)
   167d4:	02fae663          	bltu	s5,a5,16800 <_ldtoa_r+0x1158>
   167d8:	00040713          	mv	a4,s0
   167dc:	0e010793          	addi	a5,sp,224
   167e0:	00278793          	addi	a5,a5,2
   167e4:	ffe7d683          	lhu	a3,-2(a5)
   167e8:	00270713          	addi	a4,a4,2
   167ec:	fed71f23          	sh	a3,-2(a4)
   167f0:	ff2798e3          	bne	a5,s2,167e0 <_ldtoa_r+0x1138>
   167f4:	10011c23          	sh	zero,280(sp)
   167f8:	fff4849b          	addiw	s1,s1,-1
   167fc:	f38496e3          	bne	s1,s8,16728 <_ldtoa_r+0x1080>
   16800:	0a010593          	addi	a1,sp,160
   16804:	00040513          	mv	a0,s0
   16808:	b98fe0ef          	jal	ra,14ba0 <emovo.isra.6>
   1680c:	1a010993          	addi	s3,sp,416
   16810:	878ff06f          	j	15888 <_ldtoa_r+0x1e0>
   16814:	00090793          	mv	a5,s2
   16818:	f4cff06f          	j	15f64 <_ldtoa_r+0x8bc>
   1681c:	fff4041b          	addiw	s0,s0,-1
   16820:	df5ff06f          	j	16614 <_ldtoa_r+0xf6c>
   16824:	14410713          	addi	a4,sp,324
   16828:	12410793          	addi	a5,sp,292
   1682c:	00278793          	addi	a5,a5,2
   16830:	00270713          	addi	a4,a4,2
   16834:	ffe7d583          	lhu	a1,-2(a5)
   16838:	ffe75603          	lhu	a2,-2(a4)
   1683c:	02c59863          	bne	a1,a2,1686c <_ldtoa_r+0x11c4>
   16840:	13a10613          	addi	a2,sp,314
   16844:	fec794e3          	bne	a5,a2,1682c <_ldtoa_r+0x1184>
   16848:	12015703          	lhu	a4,288(sp)
   1684c:	14015783          	lhu	a5,320(sp)
   16850:	06f70463          	beq	a4,a5,168b8 <_ldtoa_r+0x1210>
   16854:	00040793          	mv	a5,s0
   16858:	11410713          	addi	a4,sp,276
   1685c:	00278793          	addi	a5,a5,2
   16860:	fe079f23          	sh	zero,-2(a5)
   16864:	fee79ce3          	bne	a5,a4,1685c <_ldtoa_r+0x11b4>
   16868:	a45ff06f          	j	162ac <_ldtoa_r+0xc04>
   1686c:	0cb66a63          	bltu	a2,a1,16940 <_ldtoa_r+0x1298>
   16870:	00000593          	li	a1,0
   16874:	15810793          	addi	a5,sp,344
   16878:	13810613          	addi	a2,sp,312
   1687c:	cc1ff06f          	j	1653c <_ldtoa_r+0xe94>
   16880:	00000513          	li	a0,0
   16884:	12210f13          	addi	t5,sp,290
   16888:	0007de83          	lhu	t4,0(a5)
   1688c:	00065703          	lhu	a4,0(a2)
   16890:	ffe78793          	addi	a5,a5,-2
   16894:	ffe60613          	addi	a2,a2,-2
   16898:	01d70733          	add	a4,a4,t4
   1689c:	00a70733          	add	a4,a4,a0
   168a0:	00e79123          	sh	a4,2(a5)
   168a4:	01075713          	srli	a4,a4,0x10
   168a8:	00177513          	andi	a0,a4,1
   168ac:	fde61ee3          	bne	a2,t5,16888 <_ldtoa_r+0x11e0>
   168b0:	00000613          	li	a2,0
   168b4:	cc9ff06f          	j	1657c <_ldtoa_r+0xed4>
   168b8:	00068713          	mv	a4,a3
   168bc:	06069463          	bnez	a3,16924 <_ldtoa_r+0x127c>
   168c0:	14611783          	lh	a5,326(sp)
   168c4:	0607c063          	bltz	a5,16924 <_ldtoa_r+0x127c>
   168c8:	15810693          	addi	a3,sp,344
   168cc:	0200006f          	j	168ec <_ldtoa_r+0x1244>
   168d0:	00f69023          	sh	a5,0(a3)
   168d4:	0017171b          	slliw	a4,a4,0x1
   168d8:	03071713          	slli	a4,a4,0x30
   168dc:	ffe68693          	addi	a3,a3,-2
   168e0:	14210793          	addi	a5,sp,322
   168e4:	03075713          	srli	a4,a4,0x30
   168e8:	caf682e3          	beq	a3,a5,1658c <_ldtoa_r+0xee4>
   168ec:	0006d783          	lhu	a5,0(a3)
   168f0:	0107961b          	slliw	a2,a5,0x10
   168f4:	4106561b          	sraiw	a2,a2,0x10
   168f8:	02061593          	slli	a1,a2,0x20
   168fc:	0017979b          	slliw	a5,a5,0x1
   16900:	0005d463          	bgez	a1,16908 <_ldtoa_r+0x1260>
   16904:	00176713          	ori	a4,a4,1
   16908:	03079793          	slli	a5,a5,0x30
   1690c:	0307d793          	srli	a5,a5,0x30
   16910:	00277613          	andi	a2,a4,2
   16914:	0017e593          	ori	a1,a5,1
   16918:	fa060ce3          	beqz	a2,168d0 <_ldtoa_r+0x1228>
   1691c:	00b69023          	sh	a1,0(a3)
   16920:	fb5ff06f          	j	168d4 <_ldtoa_r+0x122c>
   16924:	14410613          	addi	a2,sp,324
   16928:	15810793          	addi	a5,sp,344
   1692c:	08071463          	bnez	a4,169b4 <_ldtoa_r+0x130c>
   16930:	08c78463          	beq	a5,a2,169b8 <_ldtoa_r+0x1310>
   16934:	00065703          	lhu	a4,0(a2)
   16938:	00260613          	addi	a2,a2,2
   1693c:	ff1ff06f          	j	1692c <_ldtoa_r+0x1284>
   16940:	00090613          	mv	a2,s2
   16944:	14010713          	addi	a4,sp,320
   16948:	15810793          	addi	a5,sp,344
   1694c:	00270713          	addi	a4,a4,2
   16950:	ffe75583          	lhu	a1,-2(a4)
   16954:	00260613          	addi	a2,a2,2
   16958:	feb61f23          	sh	a1,-2(a2)
   1695c:	fef718e3          	bne	a4,a5,1694c <_ldtoa_r+0x12a4>
   16960:	16011c23          	sh	zero,376(sp)
   16964:	14010593          	addi	a1,sp,320
   16968:	12010713          	addi	a4,sp,288
   1696c:	13810613          	addi	a2,sp,312
   16970:	00270713          	addi	a4,a4,2
   16974:	ffe75503          	lhu	a0,-2(a4)
   16978:	00258593          	addi	a1,a1,2
   1697c:	fea59f23          	sh	a0,-2(a1)
   16980:	fec718e3          	bne	a4,a2,16970 <_ldtoa_r+0x12c8>
   16984:	14011c23          	sh	zero,344(sp)
   16988:	12010513          	addi	a0,sp,288
   1698c:	00090713          	mv	a4,s2
   16990:	17810593          	addi	a1,sp,376
   16994:	00270713          	addi	a4,a4,2
   16998:	ffe75e83          	lhu	t4,-2(a4)
   1699c:	00250513          	addi	a0,a0,2
   169a0:	ffd51f23          	sh	t4,-2(a0)
   169a4:	feb718e3          	bne	a4,a1,16994 <_ldtoa_r+0x12ec>
   169a8:	12011c23          	sh	zero,312(sp)
   169ac:	00000593          	li	a1,0
   169b0:	b8dff06f          	j	1653c <_ldtoa_r+0xe94>
   169b4:	00168513          	addi	a0,a3,1
   169b8:	14a11123          	sh	a0,322(sp)
   169bc:	bd1ff06f          	j	1658c <_ldtoa_r+0xee4>

00000000000169c0 <_ldcheck>:
   169c0:	00053703          	ld	a4,0(a0)
   169c4:	00853783          	ld	a5,8(a0)
   169c8:	fc010113          	addi	sp,sp,-64
   169cc:	00010513          	mv	a0,sp
   169d0:	01010593          	addi	a1,sp,16
   169d4:	00e13023          	sd	a4,0(sp)
   169d8:	00f13423          	sd	a5,8(sp)
   169dc:	02113c23          	sd	ra,56(sp)
   169e0:	b81fe0ef          	jal	ra,15560 <e113toe.isra.8>
   169e4:	02215783          	lhu	a5,34(sp)
   169e8:	00000513          	li	a0,0
   169ec:	fff7c793          	not	a5,a5
   169f0:	03179713          	slli	a4,a5,0x31
   169f4:	00071a63          	bnez	a4,16a08 <_ldcheck+0x48>
   169f8:	01010513          	addi	a0,sp,16
   169fc:	e24fd0ef          	jal	ra,14020 <eisnan.part.0>
   16a00:	00153513          	seqz	a0,a0
   16a04:	00150513          	addi	a0,a0,1
   16a08:	03813083          	ld	ra,56(sp)
   16a0c:	04010113          	addi	sp,sp,64
   16a10:	00008067          	ret

0000000000016a14 <__localeconv_l>:
   16a14:	10050513          	addi	a0,a0,256
   16a18:	00008067          	ret

0000000000016a1c <_localeconv_r>:
   16a1c:	e6018513          	addi	a0,gp,-416 # 24280 <__global_locale+0x100>
   16a20:	00008067          	ret

0000000000016a24 <localeconv>:
   16a24:	e6018513          	addi	a0,gp,-416 # 24280 <__global_locale+0x100>
   16a28:	00008067          	ret

0000000000016a2c <_setlocale_r>:
   16a2c:	04060063          	beqz	a2,16a6c <_setlocale_r+0x40>
   16a30:	ff010113          	addi	sp,sp,-16
   16a34:	0000c597          	auipc	a1,0xc
   16a38:	84458593          	addi	a1,a1,-1980 # 22278 <bmask+0x68>
   16a3c:	00060513          	mv	a0,a2
   16a40:	00813023          	sd	s0,0(sp)
   16a44:	00113423          	sd	ra,8(sp)
   16a48:	00060413          	mv	s0,a2
   16a4c:	0f8020ef          	jal	ra,18b44 <strcmp>
   16a50:	02051463          	bnez	a0,16a78 <_setlocale_r+0x4c>
   16a54:	0000c517          	auipc	a0,0xc
   16a58:	81c50513          	addi	a0,a0,-2020 # 22270 <bmask+0x60>
   16a5c:	00813083          	ld	ra,8(sp)
   16a60:	00013403          	ld	s0,0(sp)
   16a64:	01010113          	addi	sp,sp,16
   16a68:	00008067          	ret
   16a6c:	0000c517          	auipc	a0,0xc
   16a70:	80450513          	addi	a0,a0,-2044 # 22270 <bmask+0x60>
   16a74:	00008067          	ret
   16a78:	0000b597          	auipc	a1,0xb
   16a7c:	7f858593          	addi	a1,a1,2040 # 22270 <bmask+0x60>
   16a80:	00040513          	mv	a0,s0
   16a84:	0c0020ef          	jal	ra,18b44 <strcmp>
   16a88:	fc0506e3          	beqz	a0,16a54 <_setlocale_r+0x28>
   16a8c:	0000b597          	auipc	a1,0xb
   16a90:	52c58593          	addi	a1,a1,1324 # 21fb8 <zeroes.4541+0x88>
   16a94:	00040513          	mv	a0,s0
   16a98:	0ac020ef          	jal	ra,18b44 <strcmp>
   16a9c:	fa050ce3          	beqz	a0,16a54 <_setlocale_r+0x28>
   16aa0:	00000513          	li	a0,0
   16aa4:	fb9ff06f          	j	16a5c <_setlocale_r+0x30>

0000000000016aa8 <__locale_mb_cur_max>:
   16aa8:	ec01c503          	lbu	a0,-320(gp) # 242e0 <__global_locale+0x160>
   16aac:	00008067          	ret

0000000000016ab0 <setlocale>:
   16ab0:	75818793          	addi	a5,gp,1880 # 24b78 <_impure_ptr>
   16ab4:	00058613          	mv	a2,a1
   16ab8:	00050593          	mv	a1,a0
   16abc:	0007b503          	ld	a0,0(a5)
   16ac0:	f6dff06f          	j	16a2c <_setlocale_r>

0000000000016ac4 <__swhatbuf_r>:
   16ac4:	f7010113          	addi	sp,sp,-144
   16ac8:	08813023          	sd	s0,128(sp)
   16acc:	00058413          	mv	s0,a1
   16ad0:	01259583          	lh	a1,18(a1)
   16ad4:	06913c23          	sd	s1,120(sp)
   16ad8:	07213823          	sd	s2,112(sp)
   16adc:	08113423          	sd	ra,136(sp)
   16ae0:	00060493          	mv	s1,a2
   16ae4:	00068913          	mv	s2,a3
   16ae8:	0405ca63          	bltz	a1,16b3c <__swhatbuf_r+0x78>
   16aec:	00810613          	addi	a2,sp,8
   16af0:	310060ef          	jal	ra,1ce00 <_fstat_r>
   16af4:	04054463          	bltz	a0,16b3c <__swhatbuf_r+0x78>
   16af8:	00c12783          	lw	a5,12(sp)
   16afc:	0000f737          	lui	a4,0xf
   16b00:	08813083          	ld	ra,136(sp)
   16b04:	00e7f7b3          	and	a5,a5,a4
   16b08:	00002737          	lui	a4,0x2
   16b0c:	40e787b3          	sub	a5,a5,a4
   16b10:	0017b793          	seqz	a5,a5
   16b14:	08013403          	ld	s0,128(sp)
   16b18:	00f92023          	sw	a5,0(s2)
   16b1c:	40000793          	li	a5,1024
   16b20:	00f4b023          	sd	a5,0(s1)
   16b24:	00001537          	lui	a0,0x1
   16b28:	07813483          	ld	s1,120(sp)
   16b2c:	07013903          	ld	s2,112(sp)
   16b30:	80050513          	addi	a0,a0,-2048 # 800 <main-0xf8b0>
   16b34:	09010113          	addi	sp,sp,144
   16b38:	00008067          	ret
   16b3c:	01045783          	lhu	a5,16(s0)
   16b40:	00092023          	sw	zero,0(s2)
   16b44:	0807f793          	andi	a5,a5,128
   16b48:	02078463          	beqz	a5,16b70 <__swhatbuf_r+0xac>
   16b4c:	08813083          	ld	ra,136(sp)
   16b50:	08013403          	ld	s0,128(sp)
   16b54:	04000793          	li	a5,64
   16b58:	00f4b023          	sd	a5,0(s1)
   16b5c:	07013903          	ld	s2,112(sp)
   16b60:	07813483          	ld	s1,120(sp)
   16b64:	00000513          	li	a0,0
   16b68:	09010113          	addi	sp,sp,144
   16b6c:	00008067          	ret
   16b70:	08813083          	ld	ra,136(sp)
   16b74:	08013403          	ld	s0,128(sp)
   16b78:	40000793          	li	a5,1024
   16b7c:	00f4b023          	sd	a5,0(s1)
   16b80:	07013903          	ld	s2,112(sp)
   16b84:	07813483          	ld	s1,120(sp)
   16b88:	00000513          	li	a0,0
   16b8c:	09010113          	addi	sp,sp,144
   16b90:	00008067          	ret

0000000000016b94 <__smakebuf_r>:
   16b94:	0105d703          	lhu	a4,16(a1)
   16b98:	fd010113          	addi	sp,sp,-48
   16b9c:	02813023          	sd	s0,32(sp)
   16ba0:	02113423          	sd	ra,40(sp)
   16ba4:	00913c23          	sd	s1,24(sp)
   16ba8:	01213823          	sd	s2,16(sp)
   16bac:	00277713          	andi	a4,a4,2
   16bb0:	00058413          	mv	s0,a1
   16bb4:	02070863          	beqz	a4,16be4 <__smakebuf_r+0x50>
   16bb8:	07758713          	addi	a4,a1,119
   16bbc:	00e5b023          	sd	a4,0(a1)
   16bc0:	00e5bc23          	sd	a4,24(a1)
   16bc4:	00100713          	li	a4,1
   16bc8:	02e5a023          	sw	a4,32(a1)
   16bcc:	02813083          	ld	ra,40(sp)
   16bd0:	02013403          	ld	s0,32(sp)
   16bd4:	01813483          	ld	s1,24(sp)
   16bd8:	01013903          	ld	s2,16(sp)
   16bdc:	03010113          	addi	sp,sp,48
   16be0:	00008067          	ret
   16be4:	00410693          	addi	a3,sp,4
   16be8:	00810613          	addi	a2,sp,8
   16bec:	00050493          	mv	s1,a0
   16bf0:	ed5ff0ef          	jal	ra,16ac4 <__swhatbuf_r>
   16bf4:	00813583          	ld	a1,8(sp)
   16bf8:	00050913          	mv	s2,a0
   16bfc:	00048513          	mv	a0,s1
   16c00:	0b4000ef          	jal	ra,16cb4 <_malloc_r>
   16c04:	01041783          	lh	a5,16(s0)
   16c08:	04050863          	beqz	a0,16c58 <__smakebuf_r+0xc4>
   16c0c:	ffffd697          	auipc	a3,0xffffd
   16c10:	8c068693          	addi	a3,a3,-1856 # 134cc <_cleanup_r>
   16c14:	04d4bc23          	sd	a3,88(s1)
   16c18:	00813683          	ld	a3,8(sp)
   16c1c:	00412703          	lw	a4,4(sp)
   16c20:	0807e793          	ori	a5,a5,128
   16c24:	00f41823          	sh	a5,16(s0)
   16c28:	00a43023          	sd	a0,0(s0)
   16c2c:	00a43c23          	sd	a0,24(s0)
   16c30:	02d42023          	sw	a3,32(s0)
   16c34:	04071863          	bnez	a4,16c84 <__smakebuf_r+0xf0>
   16c38:	0127e7b3          	or	a5,a5,s2
   16c3c:	00f41823          	sh	a5,16(s0)
   16c40:	02813083          	ld	ra,40(sp)
   16c44:	02013403          	ld	s0,32(sp)
   16c48:	01813483          	ld	s1,24(sp)
   16c4c:	01013903          	ld	s2,16(sp)
   16c50:	03010113          	addi	sp,sp,48
   16c54:	00008067          	ret
   16c58:	2007f713          	andi	a4,a5,512
   16c5c:	f60718e3          	bnez	a4,16bcc <__smakebuf_r+0x38>
   16c60:	ffc7f793          	andi	a5,a5,-4
   16c64:	0027e793          	ori	a5,a5,2
   16c68:	07740713          	addi	a4,s0,119
   16c6c:	00f41823          	sh	a5,16(s0)
   16c70:	00100793          	li	a5,1
   16c74:	00e43023          	sd	a4,0(s0)
   16c78:	00e43c23          	sd	a4,24(s0)
   16c7c:	02f42023          	sw	a5,32(s0)
   16c80:	f4dff06f          	j	16bcc <__smakebuf_r+0x38>
   16c84:	01241583          	lh	a1,18(s0)
   16c88:	00048513          	mv	a0,s1
   16c8c:	6a0060ef          	jal	ra,1d32c <_isatty_r>
   16c90:	00051663          	bnez	a0,16c9c <__smakebuf_r+0x108>
   16c94:	01041783          	lh	a5,16(s0)
   16c98:	fa1ff06f          	j	16c38 <__smakebuf_r+0xa4>
   16c9c:	01045783          	lhu	a5,16(s0)
   16ca0:	ffc7f793          	andi	a5,a5,-4
   16ca4:	0017e793          	ori	a5,a5,1
   16ca8:	0107979b          	slliw	a5,a5,0x10
   16cac:	4107d79b          	sraiw	a5,a5,0x10
   16cb0:	f89ff06f          	j	16c38 <__smakebuf_r+0xa4>

0000000000016cb4 <_malloc_r>:
   16cb4:	fa010113          	addi	sp,sp,-96
   16cb8:	04913423          	sd	s1,72(sp)
   16cbc:	05213023          	sd	s2,64(sp)
   16cc0:	04113c23          	sd	ra,88(sp)
   16cc4:	04813823          	sd	s0,80(sp)
   16cc8:	03313c23          	sd	s3,56(sp)
   16ccc:	03413823          	sd	s4,48(sp)
   16cd0:	03513423          	sd	s5,40(sp)
   16cd4:	03613023          	sd	s6,32(sp)
   16cd8:	01713c23          	sd	s7,24(sp)
   16cdc:	01813823          	sd	s8,16(sp)
   16ce0:	01913423          	sd	s9,8(sp)
   16ce4:	01758493          	addi	s1,a1,23
   16ce8:	02e00793          	li	a5,46
   16cec:	00050913          	mv	s2,a0
   16cf0:	0a97e663          	bltu	a5,s1,16d9c <_malloc_r+0xe8>
   16cf4:	02000793          	li	a5,32
   16cf8:	06b7e263          	bltu	a5,a1,16d5c <_malloc_r+0xa8>
   16cfc:	175000ef          	jal	ra,17670 <__malloc_lock>
   16d00:	02000493          	li	s1,32
   16d04:	05000793          	li	a5,80
   16d08:	00400613          	li	a2,4
   16d0c:	0000d997          	auipc	s3,0xd
   16d10:	61c98993          	addi	s3,s3,1564 # 24328 <__malloc_av_>
   16d14:	00f987b3          	add	a5,s3,a5
   16d18:	0087b403          	ld	s0,8(a5)
   16d1c:	ff078713          	addi	a4,a5,-16
   16d20:	2ae40063          	beq	s0,a4,16fc0 <_malloc_r+0x30c>
   16d24:	00843783          	ld	a5,8(s0)
   16d28:	01843683          	ld	a3,24(s0)
   16d2c:	01043603          	ld	a2,16(s0)
   16d30:	ffc7f793          	andi	a5,a5,-4
   16d34:	00f407b3          	add	a5,s0,a5
   16d38:	0087b703          	ld	a4,8(a5)
   16d3c:	00d63c23          	sd	a3,24(a2)
   16d40:	00c6b823          	sd	a2,16(a3)
   16d44:	00176713          	ori	a4,a4,1
   16d48:	00090513          	mv	a0,s2
   16d4c:	00e7b423          	sd	a4,8(a5)
   16d50:	125000ef          	jal	ra,17674 <__malloc_unlock>
   16d54:	01040513          	addi	a0,s0,16
   16d58:	0100006f          	j	16d68 <_malloc_r+0xb4>
   16d5c:	00c00793          	li	a5,12
   16d60:	00f92023          	sw	a5,0(s2)
   16d64:	00000513          	li	a0,0
   16d68:	05813083          	ld	ra,88(sp)
   16d6c:	05013403          	ld	s0,80(sp)
   16d70:	04813483          	ld	s1,72(sp)
   16d74:	04013903          	ld	s2,64(sp)
   16d78:	03813983          	ld	s3,56(sp)
   16d7c:	03013a03          	ld	s4,48(sp)
   16d80:	02813a83          	ld	s5,40(sp)
   16d84:	02013b03          	ld	s6,32(sp)
   16d88:	01813b83          	ld	s7,24(sp)
   16d8c:	01013c03          	ld	s8,16(sp)
   16d90:	00813c83          	ld	s9,8(sp)
   16d94:	06010113          	addi	sp,sp,96
   16d98:	00008067          	ret
   16d9c:	800007b7          	lui	a5,0x80000
   16da0:	ff04f493          	andi	s1,s1,-16
   16da4:	fff7c793          	not	a5,a5
   16da8:	fa97eae3          	bltu	a5,s1,16d5c <_malloc_r+0xa8>
   16dac:	fab4e8e3          	bltu	s1,a1,16d5c <_malloc_r+0xa8>
   16db0:	0c1000ef          	jal	ra,17670 <__malloc_lock>
   16db4:	1f700793          	li	a5,503
   16db8:	4c97f263          	bgeu	a5,s1,1727c <_malloc_r+0x5c8>
   16dbc:	0094d793          	srli	a5,s1,0x9
   16dc0:	36078863          	beqz	a5,17130 <_malloc_r+0x47c>
   16dc4:	00400713          	li	a4,4
   16dc8:	42f76c63          	bltu	a4,a5,17200 <_malloc_r+0x54c>
   16dcc:	0064d513          	srli	a0,s1,0x6
   16dd0:	0005051b          	sext.w	a0,a0
   16dd4:	0395061b          	addiw	a2,a0,57
   16dd8:	0016169b          	slliw	a3,a2,0x1
   16ddc:	0385051b          	addiw	a0,a0,56
   16de0:	00369693          	slli	a3,a3,0x3
   16de4:	0000d997          	auipc	s3,0xd
   16de8:	54498993          	addi	s3,s3,1348 # 24328 <__malloc_av_>
   16dec:	00d986b3          	add	a3,s3,a3
   16df0:	0086b403          	ld	s0,8(a3)
   16df4:	ff068693          	addi	a3,a3,-16
   16df8:	1c868a63          	beq	a3,s0,16fcc <_malloc_r+0x318>
   16dfc:	00843783          	ld	a5,8(s0)
   16e00:	01f00593          	li	a1,31
   16e04:	ffc7f793          	andi	a5,a5,-4
   16e08:	40978733          	sub	a4,a5,s1
   16e0c:	02e5c063          	blt	a1,a4,16e2c <_malloc_r+0x178>
   16e10:	36075e63          	bgez	a4,1718c <_malloc_r+0x4d8>
   16e14:	01843403          	ld	s0,24(s0)
   16e18:	1a868a63          	beq	a3,s0,16fcc <_malloc_r+0x318>
   16e1c:	00843783          	ld	a5,8(s0)
   16e20:	ffc7f793          	andi	a5,a5,-4
   16e24:	40978733          	sub	a4,a5,s1
   16e28:	fee5d4e3          	bge	a1,a4,16e10 <_malloc_r+0x15c>
   16e2c:	0209b403          	ld	s0,32(s3)
   16e30:	0000d817          	auipc	a6,0xd
   16e34:	50880813          	addi	a6,a6,1288 # 24338 <__malloc_av_+0x10>
   16e38:	00050613          	mv	a2,a0
   16e3c:	1b041063          	bne	s0,a6,16fdc <_malloc_r+0x328>
   16e40:	0089b783          	ld	a5,8(s3)
   16e44:	4026571b          	sraiw	a4,a2,0x2
   16e48:	00100693          	li	a3,1
   16e4c:	00e696b3          	sll	a3,a3,a4
   16e50:	20d7fc63          	bgeu	a5,a3,17068 <_malloc_r+0x3b4>
   16e54:	0109b403          	ld	s0,16(s3)
   16e58:	00843a03          	ld	s4,8(s0)
   16e5c:	ffca7a93          	andi	s5,s4,-4
   16e60:	009ae863          	bltu	s5,s1,16e70 <_malloc_r+0x1bc>
   16e64:	409a87b3          	sub	a5,s5,s1
   16e68:	01f00713          	li	a4,31
   16e6c:	2ef74a63          	blt	a4,a5,17160 <_malloc_r+0x4ac>
   16e70:	78818793          	addi	a5,gp,1928 # 24ba8 <__malloc_top_pad>
   16e74:	76018c13          	addi	s8,gp,1888 # 24b80 <__malloc_sbrk_base>
   16e78:	0007ba03          	ld	s4,0(a5) # ffffffff80000000 <__BSS_END__+0xffffffff7ffdb3e0>
   16e7c:	000c3703          	ld	a4,0(s8) # 1000 <main-0xf0b0>
   16e80:	fff00793          	li	a5,-1
   16e84:	01540bb3          	add	s7,s0,s5
   16e88:	01448a33          	add	s4,s1,s4
   16e8c:	4cf70263          	beq	a4,a5,17350 <_malloc_r+0x69c>
   16e90:	000017b7          	lui	a5,0x1
   16e94:	01f78793          	addi	a5,a5,31 # 101f <main-0xf091>
   16e98:	00fa0a33          	add	s4,s4,a5
   16e9c:	fffff7b7          	lui	a5,0xfffff
   16ea0:	00fa7a33          	and	s4,s4,a5
   16ea4:	000a0593          	mv	a1,s4
   16ea8:	00090513          	mv	a0,s2
   16eac:	135010ef          	jal	ra,187e0 <_sbrk_r>
   16eb0:	fff00793          	li	a5,-1
   16eb4:	00050b13          	mv	s6,a0
   16eb8:	3ef50e63          	beq	a0,a5,172b4 <_malloc_r+0x600>
   16ebc:	3f756a63          	bltu	a0,s7,172b0 <_malloc_r+0x5fc>
   16ec0:	7d018c93          	addi	s9,gp,2000 # 24bf0 <__malloc_current_mallinfo>
   16ec4:	000ca703          	lw	a4,0(s9)
   16ec8:	014707bb          	addw	a5,a4,s4
   16ecc:	7cf1a823          	sw	a5,2000(gp) # 24bf0 <__malloc_current_mallinfo>
   16ed0:	00078693          	mv	a3,a5
   16ed4:	54ab8063          	beq	s7,a0,17414 <_malloc_r+0x760>
   16ed8:	000c3703          	ld	a4,0(s8)
   16edc:	fff00793          	li	a5,-1
   16ee0:	54f70863          	beq	a4,a5,17430 <_malloc_r+0x77c>
   16ee4:	417b07b3          	sub	a5,s6,s7
   16ee8:	00d787bb          	addw	a5,a5,a3
   16eec:	7cf1a823          	sw	a5,2000(gp) # 24bf0 <__malloc_current_mallinfo>
   16ef0:	00fb7b93          	andi	s7,s6,15
   16ef4:	480b8263          	beqz	s7,17378 <_malloc_r+0x6c4>
   16ef8:	417b0b33          	sub	s6,s6,s7
   16efc:	000017b7          	lui	a5,0x1
   16f00:	010b0b13          	addi	s6,s6,16
   16f04:	fff78713          	addi	a4,a5,-1 # fff <main-0xf0b1>
   16f08:	014b0c33          	add	s8,s6,s4
   16f0c:	01078793          	addi	a5,a5,16
   16f10:	41778a33          	sub	s4,a5,s7
   16f14:	00ec77b3          	and	a5,s8,a4
   16f18:	40fa0a33          	sub	s4,s4,a5
   16f1c:	00ea7a33          	and	s4,s4,a4
   16f20:	000a0593          	mv	a1,s4
   16f24:	00090513          	mv	a0,s2
   16f28:	0b9010ef          	jal	ra,187e0 <_sbrk_r>
   16f2c:	fff00793          	li	a5,-1
   16f30:	56f50263          	beq	a0,a5,17494 <_malloc_r+0x7e0>
   16f34:	41650533          	sub	a0,a0,s6
   16f38:	000a071b          	sext.w	a4,s4
   16f3c:	01450a33          	add	s4,a0,s4
   16f40:	000ca783          	lw	a5,0(s9)
   16f44:	0000d697          	auipc	a3,0xd
   16f48:	3f66ba23          	sd	s6,1012(a3) # 24338 <__malloc_av_+0x10>
   16f4c:	001a6a13          	ori	s4,s4,1
   16f50:	00e787bb          	addw	a5,a5,a4
   16f54:	7cf1a823          	sw	a5,2000(gp) # 24bf0 <__malloc_current_mallinfo>
   16f58:	014b3423          	sd	s4,8(s6)
   16f5c:	4d340e63          	beq	s0,s3,17438 <_malloc_r+0x784>
   16f60:	01f00613          	li	a2,31
   16f64:	4d567e63          	bgeu	a2,s5,17440 <_malloc_r+0x78c>
   16f68:	00843683          	ld	a3,8(s0)
   16f6c:	fe8a8713          	addi	a4,s5,-24
   16f70:	ff077713          	andi	a4,a4,-16
   16f74:	0016f693          	andi	a3,a3,1
   16f78:	00e6e6b3          	or	a3,a3,a4
   16f7c:	00d43423          	sd	a3,8(s0)
   16f80:	00900593          	li	a1,9
   16f84:	00e406b3          	add	a3,s0,a4
   16f88:	00b6b423          	sd	a1,8(a3)
   16f8c:	00b6b823          	sd	a1,16(a3)
   16f90:	50e66c63          	bltu	a2,a4,174a8 <_malloc_r+0x7f4>
   16f94:	008b3a03          	ld	s4,8(s6)
   16f98:	000b0413          	mv	s0,s6
   16f9c:	78018713          	addi	a4,gp,1920 # 24ba0 <__malloc_max_sbrked_mem>
   16fa0:	00073703          	ld	a4,0(a4) # 2000 <main-0xe0b0>
   16fa4:	00f77463          	bgeu	a4,a5,16fac <_malloc_r+0x2f8>
   16fa8:	78f1b023          	sd	a5,1920(gp) # 24ba0 <__malloc_max_sbrked_mem>
   16fac:	77818713          	addi	a4,gp,1912 # 24b98 <__malloc_max_total_mem>
   16fb0:	00073703          	ld	a4,0(a4)
   16fb4:	30f77463          	bgeu	a4,a5,172bc <_malloc_r+0x608>
   16fb8:	76f1bc23          	sd	a5,1912(gp) # 24b98 <__malloc_max_total_mem>
   16fbc:	3000006f          	j	172bc <_malloc_r+0x608>
   16fc0:	0187b403          	ld	s0,24(a5)
   16fc4:	0026061b          	addiw	a2,a2,2
   16fc8:	d4879ee3          	bne	a5,s0,16d24 <_malloc_r+0x70>
   16fcc:	0209b403          	ld	s0,32(s3)
   16fd0:	0000d817          	auipc	a6,0xd
   16fd4:	36880813          	addi	a6,a6,872 # 24338 <__malloc_av_+0x10>
   16fd8:	e70404e3          	beq	s0,a6,16e40 <_malloc_r+0x18c>
   16fdc:	00843783          	ld	a5,8(s0)
   16fe0:	01f00693          	li	a3,31
   16fe4:	ffc7f793          	andi	a5,a5,-4
   16fe8:	40978733          	sub	a4,a5,s1
   16fec:	28e6c263          	blt	a3,a4,17270 <_malloc_r+0x5bc>
   16ff0:	0000d697          	auipc	a3,0xd
   16ff4:	3706b023          	sd	a6,864(a3) # 24350 <__malloc_av_+0x28>
   16ff8:	0000d697          	auipc	a3,0xd
   16ffc:	3506b823          	sd	a6,848(a3) # 24348 <__malloc_av_+0x20>
   17000:	14075063          	bgez	a4,17140 <_malloc_r+0x48c>
   17004:	1ff00713          	li	a4,511
   17008:	18f76863          	bltu	a4,a5,17198 <_malloc_r+0x4e4>
   1700c:	0037d793          	srli	a5,a5,0x3
   17010:	0007879b          	sext.w	a5,a5
   17014:	0017871b          	addiw	a4,a5,1
   17018:	0017171b          	slliw	a4,a4,0x1
   1701c:	00371713          	slli	a4,a4,0x3
   17020:	0089b503          	ld	a0,8(s3)
   17024:	00e98733          	add	a4,s3,a4
   17028:	00073583          	ld	a1,0(a4)
   1702c:	4027d69b          	sraiw	a3,a5,0x2
   17030:	00100793          	li	a5,1
   17034:	00d797b3          	sll	a5,a5,a3
   17038:	00a7e7b3          	or	a5,a5,a0
   1703c:	ff070693          	addi	a3,a4,-16
   17040:	00d43c23          	sd	a3,24(s0)
   17044:	00b43823          	sd	a1,16(s0)
   17048:	0000d697          	auipc	a3,0xd
   1704c:	2ef6b423          	sd	a5,744(a3) # 24330 <__malloc_av_+0x8>
   17050:	00873023          	sd	s0,0(a4)
   17054:	0085bc23          	sd	s0,24(a1)
   17058:	4026571b          	sraiw	a4,a2,0x2
   1705c:	00100693          	li	a3,1
   17060:	00e696b3          	sll	a3,a3,a4
   17064:	ded7e8e3          	bltu	a5,a3,16e54 <_malloc_r+0x1a0>
   17068:	00f6f733          	and	a4,a3,a5
   1706c:	02071463          	bnez	a4,17094 <_malloc_r+0x3e0>
   17070:	00169693          	slli	a3,a3,0x1
   17074:	ffc67613          	andi	a2,a2,-4
   17078:	00f6f733          	and	a4,a3,a5
   1707c:	0046061b          	addiw	a2,a2,4
   17080:	00071a63          	bnez	a4,17094 <_malloc_r+0x3e0>
   17084:	00169693          	slli	a3,a3,0x1
   17088:	00f6f733          	and	a4,a3,a5
   1708c:	0046061b          	addiw	a2,a2,4
   17090:	fe070ae3          	beqz	a4,17084 <_malloc_r+0x3d0>
   17094:	01f00513          	li	a0,31
   17098:	0016089b          	addiw	a7,a2,1
   1709c:	0018989b          	slliw	a7,a7,0x1
   170a0:	00389893          	slli	a7,a7,0x3
   170a4:	ff088893          	addi	a7,a7,-16
   170a8:	011988b3          	add	a7,s3,a7
   170ac:	00088593          	mv	a1,a7
   170b0:	00060313          	mv	t1,a2
   170b4:	0185b403          	ld	s0,24(a1)
   170b8:	00859a63          	bne	a1,s0,170cc <_malloc_r+0x418>
   170bc:	1700006f          	j	1722c <_malloc_r+0x578>
   170c0:	18075063          	bgez	a4,17240 <_malloc_r+0x58c>
   170c4:	01843403          	ld	s0,24(s0)
   170c8:	16858263          	beq	a1,s0,1722c <_malloc_r+0x578>
   170cc:	00843783          	ld	a5,8(s0)
   170d0:	ffc7f793          	andi	a5,a5,-4
   170d4:	40978733          	sub	a4,a5,s1
   170d8:	fee554e3          	bge	a0,a4,170c0 <_malloc_r+0x40c>
   170dc:	01843683          	ld	a3,24(s0)
   170e0:	01043603          	ld	a2,16(s0)
   170e4:	0014e593          	ori	a1,s1,1
   170e8:	00b43423          	sd	a1,8(s0)
   170ec:	00d63c23          	sd	a3,24(a2)
   170f0:	00c6b823          	sd	a2,16(a3)
   170f4:	009404b3          	add	s1,s0,s1
   170f8:	0000d697          	auipc	a3,0xd
   170fc:	2496bc23          	sd	s1,600(a3) # 24350 <__malloc_av_+0x28>
   17100:	0000d697          	auipc	a3,0xd
   17104:	2496b423          	sd	s1,584(a3) # 24348 <__malloc_av_+0x20>
   17108:	00176693          	ori	a3,a4,1
   1710c:	0104bc23          	sd	a6,24(s1)
   17110:	0104b823          	sd	a6,16(s1)
   17114:	00d4b423          	sd	a3,8(s1)
   17118:	00f407b3          	add	a5,s0,a5
   1711c:	00090513          	mv	a0,s2
   17120:	00e7b023          	sd	a4,0(a5)
   17124:	550000ef          	jal	ra,17674 <__malloc_unlock>
   17128:	01040513          	addi	a0,s0,16
   1712c:	c3dff06f          	j	16d68 <_malloc_r+0xb4>
   17130:	40000693          	li	a3,1024
   17134:	04000613          	li	a2,64
   17138:	03f00513          	li	a0,63
   1713c:	ca9ff06f          	j	16de4 <_malloc_r+0x130>
   17140:	00f407b3          	add	a5,s0,a5
   17144:	0087b703          	ld	a4,8(a5)
   17148:	00090513          	mv	a0,s2
   1714c:	00176713          	ori	a4,a4,1
   17150:	00e7b423          	sd	a4,8(a5)
   17154:	520000ef          	jal	ra,17674 <__malloc_unlock>
   17158:	01040513          	addi	a0,s0,16
   1715c:	c0dff06f          	j	16d68 <_malloc_r+0xb4>
   17160:	0014e713          	ori	a4,s1,1
   17164:	00e43423          	sd	a4,8(s0)
   17168:	009404b3          	add	s1,s0,s1
   1716c:	0000d717          	auipc	a4,0xd
   17170:	1c973623          	sd	s1,460(a4) # 24338 <__malloc_av_+0x10>
   17174:	0017e793          	ori	a5,a5,1
   17178:	00090513          	mv	a0,s2
   1717c:	00f4b423          	sd	a5,8(s1)
   17180:	4f4000ef          	jal	ra,17674 <__malloc_unlock>
   17184:	01040513          	addi	a0,s0,16
   17188:	be1ff06f          	j	16d68 <_malloc_r+0xb4>
   1718c:	01843683          	ld	a3,24(s0)
   17190:	01043603          	ld	a2,16(s0)
   17194:	ba1ff06f          	j	16d34 <_malloc_r+0x80>
   17198:	0097d713          	srli	a4,a5,0x9
   1719c:	00400693          	li	a3,4
   171a0:	0ee6fa63          	bgeu	a3,a4,17294 <_malloc_r+0x5e0>
   171a4:	01400693          	li	a3,20
   171a8:	20e6e863          	bltu	a3,a4,173b8 <_malloc_r+0x704>
   171ac:	0007071b          	sext.w	a4,a4
   171b0:	05c7059b          	addiw	a1,a4,92
   171b4:	0015959b          	slliw	a1,a1,0x1
   171b8:	05b7069b          	addiw	a3,a4,91
   171bc:	00359593          	slli	a1,a1,0x3
   171c0:	00b985b3          	add	a1,s3,a1
   171c4:	0005b703          	ld	a4,0(a1)
   171c8:	ff058593          	addi	a1,a1,-16
   171cc:	18e58663          	beq	a1,a4,17358 <_malloc_r+0x6a4>
   171d0:	00873683          	ld	a3,8(a4)
   171d4:	ffc6f693          	andi	a3,a3,-4
   171d8:	00d7f663          	bgeu	a5,a3,171e4 <_malloc_r+0x530>
   171dc:	01073703          	ld	a4,16(a4)
   171e0:	fee598e3          	bne	a1,a4,171d0 <_malloc_r+0x51c>
   171e4:	01873583          	ld	a1,24(a4)
   171e8:	0089b783          	ld	a5,8(s3)
   171ec:	00b43c23          	sd	a1,24(s0)
   171f0:	00e43823          	sd	a4,16(s0)
   171f4:	0085b823          	sd	s0,16(a1)
   171f8:	00873c23          	sd	s0,24(a4)
   171fc:	e5dff06f          	j	17058 <_malloc_r+0x3a4>
   17200:	01400713          	li	a4,20
   17204:	0cf77e63          	bgeu	a4,a5,172e0 <_malloc_r+0x62c>
   17208:	05400713          	li	a4,84
   1720c:	1cf76863          	bltu	a4,a5,173dc <_malloc_r+0x728>
   17210:	00c4d513          	srli	a0,s1,0xc
   17214:	0005051b          	sext.w	a0,a0
   17218:	06f5061b          	addiw	a2,a0,111
   1721c:	0016169b          	slliw	a3,a2,0x1
   17220:	06e5051b          	addiw	a0,a0,110
   17224:	00369693          	slli	a3,a3,0x3
   17228:	bbdff06f          	j	16de4 <_malloc_r+0x130>
   1722c:	0013031b          	addiw	t1,t1,1
   17230:	00337793          	andi	a5,t1,3
   17234:	01058593          	addi	a1,a1,16
   17238:	e6079ee3          	bnez	a5,170b4 <_malloc_r+0x400>
   1723c:	0c80006f          	j	17304 <_malloc_r+0x650>
   17240:	00f407b3          	add	a5,s0,a5
   17244:	0087b703          	ld	a4,8(a5)
   17248:	01843683          	ld	a3,24(s0)
   1724c:	01043603          	ld	a2,16(s0)
   17250:	00176713          	ori	a4,a4,1
   17254:	00e7b423          	sd	a4,8(a5)
   17258:	00d63c23          	sd	a3,24(a2)
   1725c:	00090513          	mv	a0,s2
   17260:	00c6b823          	sd	a2,16(a3)
   17264:	410000ef          	jal	ra,17674 <__malloc_unlock>
   17268:	01040513          	addi	a0,s0,16
   1726c:	afdff06f          	j	16d68 <_malloc_r+0xb4>
   17270:	0014e693          	ori	a3,s1,1
   17274:	00d43423          	sd	a3,8(s0)
   17278:	e7dff06f          	j	170f4 <_malloc_r+0x440>
   1727c:	0034d613          	srli	a2,s1,0x3
   17280:	0006061b          	sext.w	a2,a2
   17284:	0016079b          	addiw	a5,a2,1
   17288:	0017979b          	slliw	a5,a5,0x1
   1728c:	00379793          	slli	a5,a5,0x3
   17290:	a7dff06f          	j	16d0c <_malloc_r+0x58>
   17294:	0067d713          	srli	a4,a5,0x6
   17298:	0007071b          	sext.w	a4,a4
   1729c:	0397059b          	addiw	a1,a4,57
   172a0:	0015959b          	slliw	a1,a1,0x1
   172a4:	0387069b          	addiw	a3,a4,56
   172a8:	00359593          	slli	a1,a1,0x3
   172ac:	f15ff06f          	j	171c0 <_malloc_r+0x50c>
   172b0:	15340863          	beq	s0,s3,17400 <_malloc_r+0x74c>
   172b4:	0109b403          	ld	s0,16(s3)
   172b8:	00843a03          	ld	s4,8(s0)
   172bc:	ffca7a13          	andi	s4,s4,-4
   172c0:	409a07b3          	sub	a5,s4,s1
   172c4:	009a6663          	bltu	s4,s1,172d0 <_malloc_r+0x61c>
   172c8:	01f00713          	li	a4,31
   172cc:	e8f74ae3          	blt	a4,a5,17160 <_malloc_r+0x4ac>
   172d0:	00090513          	mv	a0,s2
   172d4:	3a0000ef          	jal	ra,17674 <__malloc_unlock>
   172d8:	00000513          	li	a0,0
   172dc:	a8dff06f          	j	16d68 <_malloc_r+0xb4>
   172e0:	0007879b          	sext.w	a5,a5
   172e4:	05c7861b          	addiw	a2,a5,92
   172e8:	0016169b          	slliw	a3,a2,0x1
   172ec:	05b7851b          	addiw	a0,a5,91
   172f0:	00369693          	slli	a3,a3,0x3
   172f4:	af1ff06f          	j	16de4 <_malloc_r+0x130>
   172f8:	0108b783          	ld	a5,16(a7)
   172fc:	fff6061b          	addiw	a2,a2,-1
   17300:	21179263          	bne	a5,a7,17504 <_malloc_r+0x850>
   17304:	00367793          	andi	a5,a2,3
   17308:	ff088893          	addi	a7,a7,-16
   1730c:	fe0796e3          	bnez	a5,172f8 <_malloc_r+0x644>
   17310:	0089b703          	ld	a4,8(s3)
   17314:	fff6c793          	not	a5,a3
   17318:	00e7f7b3          	and	a5,a5,a4
   1731c:	0000d717          	auipc	a4,0xd
   17320:	00f73a23          	sd	a5,20(a4) # 24330 <__malloc_av_+0x8>
   17324:	00169693          	slli	a3,a3,0x1
   17328:	b2d7e6e3          	bltu	a5,a3,16e54 <_malloc_r+0x1a0>
   1732c:	b20684e3          	beqz	a3,16e54 <_malloc_r+0x1a0>
   17330:	00f6f733          	and	a4,a3,a5
   17334:	00071a63          	bnez	a4,17348 <_malloc_r+0x694>
   17338:	00169693          	slli	a3,a3,0x1
   1733c:	00f6f733          	and	a4,a3,a5
   17340:	0043031b          	addiw	t1,t1,4
   17344:	fe070ae3          	beqz	a4,17338 <_malloc_r+0x684>
   17348:	00030613          	mv	a2,t1
   1734c:	d4dff06f          	j	17098 <_malloc_r+0x3e4>
   17350:	020a0a13          	addi	s4,s4,32
   17354:	b51ff06f          	j	16ea4 <_malloc_r+0x1f0>
   17358:	0089b503          	ld	a0,8(s3)
   1735c:	4026d69b          	sraiw	a3,a3,0x2
   17360:	00100793          	li	a5,1
   17364:	00d797b3          	sll	a5,a5,a3
   17368:	00a7e7b3          	or	a5,a5,a0
   1736c:	0000d697          	auipc	a3,0xd
   17370:	fcf6b223          	sd	a5,-60(a3) # 24330 <__malloc_av_+0x8>
   17374:	e79ff06f          	j	171ec <_malloc_r+0x538>
   17378:	000017b7          	lui	a5,0x1
   1737c:	fff78713          	addi	a4,a5,-1 # fff <main-0xf0b1>
   17380:	014b0bb3          	add	s7,s6,s4
   17384:	00ebfbb3          	and	s7,s7,a4
   17388:	417787b3          	sub	a5,a5,s7
   1738c:	00e7fbb3          	and	s7,a5,a4
   17390:	000b8593          	mv	a1,s7
   17394:	00090513          	mv	a0,s2
   17398:	448010ef          	jal	ra,187e0 <_sbrk_r>
   1739c:	fff00793          	li	a5,-1
   173a0:	00000713          	li	a4,0
   173a4:	b8f50ee3          	beq	a0,a5,16f40 <_malloc_r+0x28c>
   173a8:	41650533          	sub	a0,a0,s6
   173ac:	000b871b          	sext.w	a4,s7
   173b0:	01750a33          	add	s4,a0,s7
   173b4:	b8dff06f          	j	16f40 <_malloc_r+0x28c>
   173b8:	05400693          	li	a3,84
   173bc:	08e6e863          	bltu	a3,a4,1744c <_malloc_r+0x798>
   173c0:	00c7d713          	srli	a4,a5,0xc
   173c4:	0007071b          	sext.w	a4,a4
   173c8:	06f7059b          	addiw	a1,a4,111
   173cc:	0015959b          	slliw	a1,a1,0x1
   173d0:	06e7069b          	addiw	a3,a4,110
   173d4:	00359593          	slli	a1,a1,0x3
   173d8:	de9ff06f          	j	171c0 <_malloc_r+0x50c>
   173dc:	15400713          	li	a4,340
   173e0:	08f76863          	bltu	a4,a5,17470 <_malloc_r+0x7bc>
   173e4:	00f4d513          	srli	a0,s1,0xf
   173e8:	0005051b          	sext.w	a0,a0
   173ec:	0785061b          	addiw	a2,a0,120
   173f0:	0016169b          	slliw	a3,a2,0x1
   173f4:	0775051b          	addiw	a0,a0,119
   173f8:	00369693          	slli	a3,a3,0x3
   173fc:	9e9ff06f          	j	16de4 <_malloc_r+0x130>
   17400:	7d018c93          	addi	s9,gp,2000 # 24bf0 <__malloc_current_mallinfo>
   17404:	000ca783          	lw	a5,0(s9)
   17408:	014786bb          	addw	a3,a5,s4
   1740c:	7cd1a823          	sw	a3,2000(gp) # 24bf0 <__malloc_current_mallinfo>
   17410:	ac9ff06f          	j	16ed8 <_malloc_r+0x224>
   17414:	034b9713          	slli	a4,s7,0x34
   17418:	ac0710e3          	bnez	a4,16ed8 <_malloc_r+0x224>
   1741c:	0109b403          	ld	s0,16(s3)
   17420:	014a8a33          	add	s4,s5,s4
   17424:	001a6a13          	ori	s4,s4,1
   17428:	01443423          	sd	s4,8(s0)
   1742c:	b71ff06f          	j	16f9c <_malloc_r+0x2e8>
   17430:	7761b023          	sd	s6,1888(gp) # 24b80 <__malloc_sbrk_base>
   17434:	abdff06f          	j	16ef0 <_malloc_r+0x23c>
   17438:	000b0413          	mv	s0,s6
   1743c:	b61ff06f          	j	16f9c <_malloc_r+0x2e8>
   17440:	00100793          	li	a5,1
   17444:	00fb3423          	sd	a5,8(s6)
   17448:	e89ff06f          	j	172d0 <_malloc_r+0x61c>
   1744c:	15400693          	li	a3,340
   17450:	06e6ea63          	bltu	a3,a4,174c4 <_malloc_r+0x810>
   17454:	00f7d713          	srli	a4,a5,0xf
   17458:	0007071b          	sext.w	a4,a4
   1745c:	0787059b          	addiw	a1,a4,120
   17460:	0015959b          	slliw	a1,a1,0x1
   17464:	0777069b          	addiw	a3,a4,119
   17468:	00359593          	slli	a1,a1,0x3
   1746c:	d55ff06f          	j	171c0 <_malloc_r+0x50c>
   17470:	55400713          	li	a4,1364
   17474:	06f76a63          	bltu	a4,a5,174e8 <_malloc_r+0x834>
   17478:	0124d513          	srli	a0,s1,0x12
   1747c:	0005051b          	sext.w	a0,a0
   17480:	07d5061b          	addiw	a2,a0,125
   17484:	0016169b          	slliw	a3,a2,0x1
   17488:	07c5051b          	addiw	a0,a0,124
   1748c:	00369693          	slli	a3,a3,0x3
   17490:	955ff06f          	j	16de4 <_malloc_r+0x130>
   17494:	ff0b8b93          	addi	s7,s7,-16
   17498:	017c0a33          	add	s4,s8,s7
   1749c:	416a0a33          	sub	s4,s4,s6
   174a0:	00000713          	li	a4,0
   174a4:	a9dff06f          	j	16f40 <_malloc_r+0x28c>
   174a8:	01040593          	addi	a1,s0,16
   174ac:	00090513          	mv	a0,s2
   174b0:	cb4fc0ef          	jal	ra,13964 <_free_r>
   174b4:	0109b403          	ld	s0,16(s3)
   174b8:	000ca783          	lw	a5,0(s9)
   174bc:	00843a03          	ld	s4,8(s0)
   174c0:	addff06f          	j	16f9c <_malloc_r+0x2e8>
   174c4:	55400693          	li	a3,1364
   174c8:	02e6e863          	bltu	a3,a4,174f8 <_malloc_r+0x844>
   174cc:	0127d713          	srli	a4,a5,0x12
   174d0:	0007071b          	sext.w	a4,a4
   174d4:	07d7059b          	addiw	a1,a4,125
   174d8:	0015959b          	slliw	a1,a1,0x1
   174dc:	07c7069b          	addiw	a3,a4,124
   174e0:	00359593          	slli	a1,a1,0x3
   174e4:	cddff06f          	j	171c0 <_malloc_r+0x50c>
   174e8:	7f000693          	li	a3,2032
   174ec:	07f00613          	li	a2,127
   174f0:	07e00513          	li	a0,126
   174f4:	8f1ff06f          	j	16de4 <_malloc_r+0x130>
   174f8:	7f000593          	li	a1,2032
   174fc:	07e00693          	li	a3,126
   17500:	cc1ff06f          	j	171c0 <_malloc_r+0x50c>
   17504:	0089b783          	ld	a5,8(s3)
   17508:	e1dff06f          	j	17324 <_malloc_r+0x670>

000000000001750c <_mbtowc_r>:
   1750c:	d6018793          	addi	a5,gp,-672 # 24180 <__global_locale>
   17510:	0e87b303          	ld	t1,232(a5)
   17514:	00030067          	jr	t1

0000000000017518 <__ascii_mbtowc>:
   17518:	02058063          	beqz	a1,17538 <__ascii_mbtowc+0x20>
   1751c:	04060263          	beqz	a2,17560 <__ascii_mbtowc+0x48>
   17520:	04068863          	beqz	a3,17570 <__ascii_mbtowc+0x58>
   17524:	00064783          	lbu	a5,0(a2)
   17528:	00f5a023          	sw	a5,0(a1)
   1752c:	00064503          	lbu	a0,0(a2)
   17530:	00a03533          	snez	a0,a0
   17534:	00008067          	ret
   17538:	ff010113          	addi	sp,sp,-16
   1753c:	00c10593          	addi	a1,sp,12
   17540:	02060463          	beqz	a2,17568 <__ascii_mbtowc+0x50>
   17544:	02068a63          	beqz	a3,17578 <__ascii_mbtowc+0x60>
   17548:	00064783          	lbu	a5,0(a2)
   1754c:	00f5a023          	sw	a5,0(a1)
   17550:	00064503          	lbu	a0,0(a2)
   17554:	00a03533          	snez	a0,a0
   17558:	01010113          	addi	sp,sp,16
   1755c:	00008067          	ret
   17560:	00000513          	li	a0,0
   17564:	00008067          	ret
   17568:	00000513          	li	a0,0
   1756c:	fedff06f          	j	17558 <__ascii_mbtowc+0x40>
   17570:	ffe00513          	li	a0,-2
   17574:	00008067          	ret
   17578:	ffe00513          	li	a0,-2
   1757c:	fddff06f          	j	17558 <__ascii_mbtowc+0x40>

0000000000017580 <memchr>:
   17580:	00757793          	andi	a5,a0,7
   17584:	0ff5f813          	andi	a6,a1,255
   17588:	0e078063          	beqz	a5,17668 <memchr+0xe8>
   1758c:	fff60793          	addi	a5,a2,-1
   17590:	04060e63          	beqz	a2,175ec <memchr+0x6c>
   17594:	00054703          	lbu	a4,0(a0)
   17598:	05070c63          	beq	a4,a6,175f0 <memchr+0x70>
   1759c:	fff00693          	li	a3,-1
   175a0:	0140006f          	j	175b4 <memchr+0x34>
   175a4:	fff78793          	addi	a5,a5,-1
   175a8:	04d78263          	beq	a5,a3,175ec <memchr+0x6c>
   175ac:	00054703          	lbu	a4,0(a0)
   175b0:	05070063          	beq	a4,a6,175f0 <memchr+0x70>
   175b4:	00150513          	addi	a0,a0,1
   175b8:	00757713          	andi	a4,a0,7
   175bc:	fe0714e3          	bnez	a4,175a4 <memchr+0x24>
   175c0:	00700713          	li	a4,7
   175c4:	02f76863          	bltu	a4,a5,175f4 <memchr+0x74>
   175c8:	02078263          	beqz	a5,175ec <memchr+0x6c>
   175cc:	00054703          	lbu	a4,0(a0)
   175d0:	03070063          	beq	a4,a6,175f0 <memchr+0x70>
   175d4:	00f507b3          	add	a5,a0,a5
   175d8:	00c0006f          	j	175e4 <memchr+0x64>
   175dc:	00054703          	lbu	a4,0(a0)
   175e0:	01070863          	beq	a4,a6,175f0 <memchr+0x70>
   175e4:	00150513          	addi	a0,a0,1
   175e8:	fea79ae3          	bne	a5,a0,175dc <memchr+0x5c>
   175ec:	00000513          	li	a0,0
   175f0:	00008067          	ret
   175f4:	000106b7          	lui	a3,0x10
   175f8:	0085971b          	slliw	a4,a1,0x8
   175fc:	fff68693          	addi	a3,a3,-1 # ffff <main-0xb1>
   17600:	00d77733          	and	a4,a4,a3
   17604:	0ff5f593          	andi	a1,a1,255
   17608:	00b765b3          	or	a1,a4,a1
   1760c:	0005859b          	sext.w	a1,a1
   17610:	0000d697          	auipc	a3,0xd
   17614:	52868693          	addi	a3,a3,1320 # 24b38 <__SDATA_BEGIN__>
   17618:	01059613          	slli	a2,a1,0x10
   1761c:	0006b883          	ld	a7,0(a3)
   17620:	0000d697          	auipc	a3,0xd
   17624:	52068693          	addi	a3,a3,1312 # 24b40 <__SDATA_BEGIN__+0x8>
   17628:	00b66733          	or	a4,a2,a1
   1762c:	0006b583          	ld	a1,0(a3)
   17630:	02071613          	slli	a2,a4,0x20
   17634:	00e66633          	or	a2,a2,a4
   17638:	00700313          	li	t1,7
   1763c:	00053703          	ld	a4,0(a0)
   17640:	00e64733          	xor	a4,a2,a4
   17644:	011706b3          	add	a3,a4,a7
   17648:	fff74713          	not	a4,a4
   1764c:	00e6f733          	and	a4,a3,a4
   17650:	00b77733          	and	a4,a4,a1
   17654:	f6071ce3          	bnez	a4,175cc <memchr+0x4c>
   17658:	ff878793          	addi	a5,a5,-8
   1765c:	00850513          	addi	a0,a0,8
   17660:	fcf36ee3          	bltu	t1,a5,1763c <memchr+0xbc>
   17664:	f65ff06f          	j	175c8 <memchr+0x48>
   17668:	00060793          	mv	a5,a2
   1766c:	f55ff06f          	j	175c0 <memchr+0x40>

0000000000017670 <__malloc_lock>:
   17670:	00008067          	ret

0000000000017674 <__malloc_unlock>:
   17674:	00008067          	ret

0000000000017678 <_Balloc>:
   17678:	07853783          	ld	a5,120(a0)
   1767c:	fe010113          	addi	sp,sp,-32
   17680:	00813823          	sd	s0,16(sp)
   17684:	00913423          	sd	s1,8(sp)
   17688:	00113c23          	sd	ra,24(sp)
   1768c:	01213023          	sd	s2,0(sp)
   17690:	00050413          	mv	s0,a0
   17694:	00058493          	mv	s1,a1
   17698:	02078c63          	beqz	a5,176d0 <_Balloc+0x58>
   1769c:	00349713          	slli	a4,s1,0x3
   176a0:	00e787b3          	add	a5,a5,a4
   176a4:	0007b503          	ld	a0,0(a5)
   176a8:	04050463          	beqz	a0,176f0 <_Balloc+0x78>
   176ac:	00053703          	ld	a4,0(a0)
   176b0:	00e7b023          	sd	a4,0(a5)
   176b4:	00053823          	sd	zero,16(a0)
   176b8:	01813083          	ld	ra,24(sp)
   176bc:	01013403          	ld	s0,16(sp)
   176c0:	00813483          	ld	s1,8(sp)
   176c4:	00013903          	ld	s2,0(sp)
   176c8:	02010113          	addi	sp,sp,32
   176cc:	00008067          	ret
   176d0:	04100613          	li	a2,65
   176d4:	00800593          	li	a1,8
   176d8:	308050ef          	jal	ra,1c9e0 <_calloc_r>
   176dc:	06a43c23          	sd	a0,120(s0)
   176e0:	00050793          	mv	a5,a0
   176e4:	fa051ce3          	bnez	a0,1769c <_Balloc+0x24>
   176e8:	00000513          	li	a0,0
   176ec:	fcdff06f          	j	176b8 <_Balloc+0x40>
   176f0:	00100913          	li	s2,1
   176f4:	0099193b          	sllw	s2,s2,s1
   176f8:	fff9061b          	addiw	a2,s2,-1
   176fc:	00860613          	addi	a2,a2,8
   17700:	00261613          	slli	a2,a2,0x2
   17704:	00100593          	li	a1,1
   17708:	00040513          	mv	a0,s0
   1770c:	2d4050ef          	jal	ra,1c9e0 <_calloc_r>
   17710:	fc050ce3          	beqz	a0,176e8 <_Balloc+0x70>
   17714:	00952423          	sw	s1,8(a0)
   17718:	01252623          	sw	s2,12(a0)
   1771c:	f99ff06f          	j	176b4 <_Balloc+0x3c>

0000000000017720 <_Bfree>:
   17720:	02058063          	beqz	a1,17740 <_Bfree+0x20>
   17724:	0085a703          	lw	a4,8(a1)
   17728:	07853783          	ld	a5,120(a0)
   1772c:	00371713          	slli	a4,a4,0x3
   17730:	00e787b3          	add	a5,a5,a4
   17734:	0007b703          	ld	a4,0(a5)
   17738:	00e5b023          	sd	a4,0(a1)
   1773c:	00b7b023          	sd	a1,0(a5)
   17740:	00008067          	ret

0000000000017744 <__multadd>:
   17744:	fb010113          	addi	sp,sp,-80
   17748:	03313423          	sd	s3,40(sp)
   1774c:	0145a983          	lw	s3,20(a1)
   17750:	01813023          	sd	s8,0(sp)
   17754:	00010c37          	lui	s8,0x10
   17758:	04813023          	sd	s0,64(sp)
   1775c:	02913c23          	sd	s1,56(sp)
   17760:	03213823          	sd	s2,48(sp)
   17764:	03413023          	sd	s4,32(sp)
   17768:	01513c23          	sd	s5,24(sp)
   1776c:	01613823          	sd	s6,16(sp)
   17770:	04113423          	sd	ra,72(sp)
   17774:	01713423          	sd	s7,8(sp)
   17778:	00058a13          	mv	s4,a1
   1777c:	00050a93          	mv	s5,a0
   17780:	00068413          	mv	s0,a3
   17784:	01858493          	addi	s1,a1,24
   17788:	00060913          	mv	s2,a2
   1778c:	00000b13          	li	s6,0
   17790:	fffc0c13          	addi	s8,s8,-1 # ffff <main-0xb1>
   17794:	0004ab83          	lw	s7,0(s1)
   17798:	00090593          	mv	a1,s2
   1779c:	00448493          	addi	s1,s1,4
   177a0:	018bf533          	and	a0,s7,s8
   177a4:	3680a0ef          	jal	ra,21b0c <__muldi3>
   177a8:	0085043b          	addw	s0,a0,s0
   177ac:	00090593          	mv	a1,s2
   177b0:	010bd51b          	srliw	a0,s7,0x10
   177b4:	3580a0ef          	jal	ra,21b0c <__muldi3>
   177b8:	0104569b          	srliw	a3,s0,0x10
   177bc:	00a6853b          	addw	a0,a3,a0
   177c0:	0105169b          	slliw	a3,a0,0x10
   177c4:	008c7433          	and	s0,s8,s0
   177c8:	0086843b          	addw	s0,a3,s0
   177cc:	fe84ae23          	sw	s0,-4(s1)
   177d0:	001b0b1b          	addiw	s6,s6,1
   177d4:	0105541b          	srliw	s0,a0,0x10
   177d8:	fb3b4ee3          	blt	s6,s3,17794 <__multadd+0x50>
   177dc:	02040263          	beqz	s0,17800 <__multadd+0xbc>
   177e0:	00ca2783          	lw	a5,12(s4)
   177e4:	04f9d863          	bge	s3,a5,17834 <__multadd+0xf0>
   177e8:	00498793          	addi	a5,s3,4
   177ec:	00279793          	slli	a5,a5,0x2
   177f0:	00fa07b3          	add	a5,s4,a5
   177f4:	0087a423          	sw	s0,8(a5)
   177f8:	0019899b          	addiw	s3,s3,1
   177fc:	013a2a23          	sw	s3,20(s4)
   17800:	04813083          	ld	ra,72(sp)
   17804:	04013403          	ld	s0,64(sp)
   17808:	000a0513          	mv	a0,s4
   1780c:	03813483          	ld	s1,56(sp)
   17810:	03013903          	ld	s2,48(sp)
   17814:	02813983          	ld	s3,40(sp)
   17818:	02013a03          	ld	s4,32(sp)
   1781c:	01813a83          	ld	s5,24(sp)
   17820:	01013b03          	ld	s6,16(sp)
   17824:	00813b83          	ld	s7,8(sp)
   17828:	00013c03          	ld	s8,0(sp)
   1782c:	05010113          	addi	sp,sp,80
   17830:	00008067          	ret
   17834:	008a2583          	lw	a1,8(s4)
   17838:	000a8513          	mv	a0,s5
   1783c:	0015859b          	addiw	a1,a1,1
   17840:	e39ff0ef          	jal	ra,17678 <_Balloc>
   17844:	014a2603          	lw	a2,20(s4)
   17848:	00050493          	mv	s1,a0
   1784c:	010a0593          	addi	a1,s4,16
   17850:	00260613          	addi	a2,a2,2
   17854:	01050513          	addi	a0,a0,16
   17858:	00261613          	slli	a2,a2,0x2
   1785c:	395050ef          	jal	ra,1d3f0 <memcpy>
   17860:	008a2703          	lw	a4,8(s4)
   17864:	078ab783          	ld	a5,120(s5)
   17868:	00371713          	slli	a4,a4,0x3
   1786c:	00e787b3          	add	a5,a5,a4
   17870:	0007b703          	ld	a4,0(a5)
   17874:	00ea3023          	sd	a4,0(s4)
   17878:	0147b023          	sd	s4,0(a5)
   1787c:	00498793          	addi	a5,s3,4
   17880:	00048a13          	mv	s4,s1
   17884:	00279793          	slli	a5,a5,0x2
   17888:	00fa07b3          	add	a5,s4,a5
   1788c:	0087a423          	sw	s0,8(a5)
   17890:	0019899b          	addiw	s3,s3,1
   17894:	013a2a23          	sw	s3,20(s4)
   17898:	f69ff06f          	j	17800 <__multadd+0xbc>

000000000001789c <__s2b>:
   1789c:	fc010113          	addi	sp,sp,-64
   178a0:	02813823          	sd	s0,48(sp)
   178a4:	03213023          	sd	s2,32(sp)
   178a8:	00058413          	mv	s0,a1
   178ac:	00050913          	mv	s2,a0
   178b0:	00900593          	li	a1,9
   178b4:	0086851b          	addiw	a0,a3,8
   178b8:	02913423          	sd	s1,40(sp)
   178bc:	01313c23          	sd	s3,24(sp)
   178c0:	01413823          	sd	s4,16(sp)
   178c4:	02113c23          	sd	ra,56(sp)
   178c8:	01513423          	sd	s5,8(sp)
   178cc:	01613023          	sd	s6,0(sp)
   178d0:	00068493          	mv	s1,a3
   178d4:	00060a13          	mv	s4,a2
   178d8:	00070993          	mv	s3,a4
   178dc:	2940a0ef          	jal	ra,21b70 <__divdi3>
   178e0:	00900793          	li	a5,9
   178e4:	0e97d663          	bge	a5,s1,179d0 <__s2b+0x134>
   178e8:	0005051b          	sext.w	a0,a0
   178ec:	00100793          	li	a5,1
   178f0:	00000593          	li	a1,0
   178f4:	0017979b          	slliw	a5,a5,0x1
   178f8:	0015859b          	addiw	a1,a1,1
   178fc:	fea7cce3          	blt	a5,a0,178f4 <__s2b+0x58>
   17900:	00090513          	mv	a0,s2
   17904:	d75ff0ef          	jal	ra,17678 <_Balloc>
   17908:	00100793          	li	a5,1
   1790c:	00f52a23          	sw	a5,20(a0)
   17910:	01352c23          	sw	s3,24(a0)
   17914:	00900793          	li	a5,9
   17918:	0b47d663          	bge	a5,s4,179c4 <__s2b+0x128>
   1791c:	ff6a0a9b          	addiw	s5,s4,-10
   17920:	020a9a93          	slli	s5,s5,0x20
   17924:	020ada93          	srli	s5,s5,0x20
   17928:	00940b13          	addi	s6,s0,9
   1792c:	00aa8793          	addi	a5,s5,10
   17930:	00f40433          	add	s0,s0,a5
   17934:	000b0993          	mv	s3,s6
   17938:	00198993          	addi	s3,s3,1
   1793c:	fff9c683          	lbu	a3,-1(s3)
   17940:	00050593          	mv	a1,a0
   17944:	00a00613          	li	a2,10
   17948:	fd06869b          	addiw	a3,a3,-48
   1794c:	00090513          	mv	a0,s2
   17950:	df5ff0ef          	jal	ra,17744 <__multadd>
   17954:	fe8992e3          	bne	s3,s0,17938 <__s2b+0x9c>
   17958:	002a8413          	addi	s0,s5,2
   1795c:	008b0433          	add	s0,s6,s0
   17960:	029a5e63          	bge	s4,s1,1799c <__s2b+0x100>
   17964:	fff4849b          	addiw	s1,s1,-1
   17968:	414484bb          	subw	s1,s1,s4
   1796c:	02049493          	slli	s1,s1,0x20
   17970:	0204d493          	srli	s1,s1,0x20
   17974:	00148493          	addi	s1,s1,1
   17978:	009404b3          	add	s1,s0,s1
   1797c:	00140413          	addi	s0,s0,1
   17980:	fff44683          	lbu	a3,-1(s0)
   17984:	00050593          	mv	a1,a0
   17988:	00a00613          	li	a2,10
   1798c:	fd06869b          	addiw	a3,a3,-48
   17990:	00090513          	mv	a0,s2
   17994:	db1ff0ef          	jal	ra,17744 <__multadd>
   17998:	fe9412e3          	bne	s0,s1,1797c <__s2b+0xe0>
   1799c:	03813083          	ld	ra,56(sp)
   179a0:	03013403          	ld	s0,48(sp)
   179a4:	02813483          	ld	s1,40(sp)
   179a8:	02013903          	ld	s2,32(sp)
   179ac:	01813983          	ld	s3,24(sp)
   179b0:	01013a03          	ld	s4,16(sp)
   179b4:	00813a83          	ld	s5,8(sp)
   179b8:	00013b03          	ld	s6,0(sp)
   179bc:	04010113          	addi	sp,sp,64
   179c0:	00008067          	ret
   179c4:	00a40413          	addi	s0,s0,10
   179c8:	00900a13          	li	s4,9
   179cc:	f95ff06f          	j	17960 <__s2b+0xc4>
   179d0:	00000593          	li	a1,0
   179d4:	f2dff06f          	j	17900 <__s2b+0x64>

00000000000179d8 <__hi0bits>:
   179d8:	ffff0737          	lui	a4,0xffff0
   179dc:	00e57733          	and	a4,a0,a4
   179e0:	00050793          	mv	a5,a0
   179e4:	00000513          	li	a0,0
   179e8:	00071663          	bnez	a4,179f4 <__hi0bits+0x1c>
   179ec:	0107979b          	slliw	a5,a5,0x10
   179f0:	01000513          	li	a0,16
   179f4:	ff000737          	lui	a4,0xff000
   179f8:	00e7f733          	and	a4,a5,a4
   179fc:	00071663          	bnez	a4,17a08 <__hi0bits+0x30>
   17a00:	0087979b          	slliw	a5,a5,0x8
   17a04:	0085051b          	addiw	a0,a0,8
   17a08:	f0000737          	lui	a4,0xf0000
   17a0c:	00e7f733          	and	a4,a5,a4
   17a10:	00071663          	bnez	a4,17a1c <__hi0bits+0x44>
   17a14:	0047979b          	slliw	a5,a5,0x4
   17a18:	0045051b          	addiw	a0,a0,4
   17a1c:	c0000737          	lui	a4,0xc0000
   17a20:	00e7f733          	and	a4,a5,a4
   17a24:	00071663          	bnez	a4,17a30 <__hi0bits+0x58>
   17a28:	0027979b          	slliw	a5,a5,0x2
   17a2c:	0025051b          	addiw	a0,a0,2
   17a30:	0007c863          	bltz	a5,17a40 <__hi0bits+0x68>
   17a34:	02179713          	slli	a4,a5,0x21
   17a38:	0015051b          	addiw	a0,a0,1
   17a3c:	00075463          	bgez	a4,17a44 <__hi0bits+0x6c>
   17a40:	00008067          	ret
   17a44:	02000513          	li	a0,32
   17a48:	00008067          	ret

0000000000017a4c <__lo0bits>:
   17a4c:	00052783          	lw	a5,0(a0)
   17a50:	0077f713          	andi	a4,a5,7
   17a54:	00078613          	mv	a2,a5
   17a58:	02070663          	beqz	a4,17a84 <__lo0bits+0x38>
   17a5c:	0017f693          	andi	a3,a5,1
   17a60:	00000713          	li	a4,0
   17a64:	00069c63          	bnez	a3,17a7c <__lo0bits+0x30>
   17a68:	00267613          	andi	a2,a2,2
   17a6c:	08060463          	beqz	a2,17af4 <__lo0bits+0xa8>
   17a70:	0017d79b          	srliw	a5,a5,0x1
   17a74:	00f52023          	sw	a5,0(a0)
   17a78:	00100713          	li	a4,1
   17a7c:	00070513          	mv	a0,a4
   17a80:	00008067          	ret
   17a84:	03079693          	slli	a3,a5,0x30
   17a88:	0306d693          	srli	a3,a3,0x30
   17a8c:	00000713          	li	a4,0
   17a90:	00069663          	bnez	a3,17a9c <__lo0bits+0x50>
   17a94:	0107d79b          	srliw	a5,a5,0x10
   17a98:	01000713          	li	a4,16
   17a9c:	0ff7f693          	andi	a3,a5,255
   17aa0:	00069663          	bnez	a3,17aac <__lo0bits+0x60>
   17aa4:	0087071b          	addiw	a4,a4,8
   17aa8:	0087d79b          	srliw	a5,a5,0x8
   17aac:	00f7f693          	andi	a3,a5,15
   17ab0:	00069663          	bnez	a3,17abc <__lo0bits+0x70>
   17ab4:	0047071b          	addiw	a4,a4,4
   17ab8:	0047d79b          	srliw	a5,a5,0x4
   17abc:	0037f693          	andi	a3,a5,3
   17ac0:	00069663          	bnez	a3,17acc <__lo0bits+0x80>
   17ac4:	0027071b          	addiw	a4,a4,2
   17ac8:	0027d79b          	srliw	a5,a5,0x2
   17acc:	0017f693          	andi	a3,a5,1
   17ad0:	00069863          	bnez	a3,17ae0 <__lo0bits+0x94>
   17ad4:	0017d79b          	srliw	a5,a5,0x1
   17ad8:	0017071b          	addiw	a4,a4,1
   17adc:	00078863          	beqz	a5,17aec <__lo0bits+0xa0>
   17ae0:	00f52023          	sw	a5,0(a0)
   17ae4:	00070513          	mv	a0,a4
   17ae8:	00008067          	ret
   17aec:	02000713          	li	a4,32
   17af0:	f8dff06f          	j	17a7c <__lo0bits+0x30>
   17af4:	0027d79b          	srliw	a5,a5,0x2
   17af8:	00200713          	li	a4,2
   17afc:	00f52023          	sw	a5,0(a0)
   17b00:	00070513          	mv	a0,a4
   17b04:	00008067          	ret

0000000000017b08 <__i2b>:
   17b08:	ff010113          	addi	sp,sp,-16
   17b0c:	00813023          	sd	s0,0(sp)
   17b10:	00058413          	mv	s0,a1
   17b14:	00100593          	li	a1,1
   17b18:	00113423          	sd	ra,8(sp)
   17b1c:	b5dff0ef          	jal	ra,17678 <_Balloc>
   17b20:	00852c23          	sw	s0,24(a0)
   17b24:	00813083          	ld	ra,8(sp)
   17b28:	00013403          	ld	s0,0(sp)
   17b2c:	00100713          	li	a4,1
   17b30:	00e52a23          	sw	a4,20(a0)
   17b34:	01010113          	addi	sp,sp,16
   17b38:	00008067          	ret

0000000000017b3c <__multiply>:
   17b3c:	f7010113          	addi	sp,sp,-144
   17b40:	07413023          	sd	s4,96(sp)
   17b44:	03913c23          	sd	s9,56(sp)
   17b48:	01462a03          	lw	s4,20(a2)
   17b4c:	0145ac83          	lw	s9,20(a1)
   17b50:	05513c23          	sd	s5,88(sp)
   17b54:	03a13823          	sd	s10,48(sp)
   17b58:	08113423          	sd	ra,136(sp)
   17b5c:	08813023          	sd	s0,128(sp)
   17b60:	06913c23          	sd	s1,120(sp)
   17b64:	07213823          	sd	s2,112(sp)
   17b68:	07313423          	sd	s3,104(sp)
   17b6c:	05613823          	sd	s6,80(sp)
   17b70:	05713423          	sd	s7,72(sp)
   17b74:	05813023          	sd	s8,64(sp)
   17b78:	03b13423          	sd	s11,40(sp)
   17b7c:	00058a93          	mv	s5,a1
   17b80:	00060d13          	mv	s10,a2
   17b84:	014ccc63          	blt	s9,s4,17b9c <__multiply+0x60>
   17b88:	000a0793          	mv	a5,s4
   17b8c:	00058d13          	mv	s10,a1
   17b90:	000c8a13          	mv	s4,s9
   17b94:	00060a93          	mv	s5,a2
   17b98:	00078c93          	mv	s9,a5
   17b9c:	00cd2783          	lw	a5,12(s10)
   17ba0:	019a0bbb          	addw	s7,s4,s9
   17ba4:	008d2583          	lw	a1,8(s10)
   17ba8:	0177d463          	bge	a5,s7,17bb0 <__multiply+0x74>
   17bac:	0015859b          	addiw	a1,a1,1
   17bb0:	ac9ff0ef          	jal	ra,17678 <_Balloc>
   17bb4:	01850c13          	addi	s8,a0,24
   17bb8:	002b9b13          	slli	s6,s7,0x2
   17bbc:	016c07b3          	add	a5,s8,s6
   17bc0:	00078713          	mv	a4,a5
   17bc4:	00f13023          	sd	a5,0(sp)
   17bc8:	00a13c23          	sd	a0,24(sp)
   17bcc:	000c0793          	mv	a5,s8
   17bd0:	00ec7a63          	bgeu	s8,a4,17be4 <__multiply+0xa8>
   17bd4:	00013703          	ld	a4,0(sp)
   17bd8:	0007a023          	sw	zero,0(a5)
   17bdc:	00478793          	addi	a5,a5,4
   17be0:	fee7eae3          	bltu	a5,a4,17bd4 <__multiply+0x98>
   17be4:	018a8a93          	addi	s5,s5,24
   17be8:	002c9c93          	slli	s9,s9,0x2
   17bec:	018d0793          	addi	a5,s10,24
   17bf0:	019a8733          	add	a4,s5,s9
   17bf4:	002a1a13          	slli	s4,s4,0x2
   17bf8:	00010937          	lui	s2,0x10
   17bfc:	00f13823          	sd	a5,16(sp)
   17c00:	00e13423          	sd	a4,8(sp)
   17c04:	01478a33          	add	s4,a5,s4
   17c08:	fff90913          	addi	s2,s2,-1 # ffff <main-0xb1>
   17c0c:	02eae063          	bltu	s5,a4,17c2c <__multiply+0xf0>
   17c10:	1280006f          	j	17d38 <__multiply+0x1fc>
   17c14:	0104541b          	srliw	s0,s0,0x10
   17c18:	08041c63          	bnez	s0,17cb0 <__multiply+0x174>
   17c1c:	00813783          	ld	a5,8(sp)
   17c20:	004a8a93          	addi	s5,s5,4
   17c24:	004c0c13          	addi	s8,s8,4
   17c28:	10faf863          	bgeu	s5,a5,17d38 <__multiply+0x1fc>
   17c2c:	000aa403          	lw	s0,0(s5)
   17c30:	012479b3          	and	s3,s0,s2
   17c34:	fe0980e3          	beqz	s3,17c14 <__multiply+0xd8>
   17c38:	01013d83          	ld	s11,16(sp)
   17c3c:	000c0c93          	mv	s9,s8
   17c40:	00000d13          	li	s10,0
   17c44:	000dab03          	lw	s6,0(s11)
   17c48:	000ca483          	lw	s1,0(s9)
   17c4c:	00098593          	mv	a1,s3
   17c50:	012b7533          	and	a0,s6,s2
   17c54:	6b9090ef          	jal	ra,21b0c <__muldi3>
   17c58:	0124f433          	and	s0,s1,s2
   17c5c:	0085043b          	addw	s0,a0,s0
   17c60:	00098593          	mv	a1,s3
   17c64:	010b551b          	srliw	a0,s6,0x10
   17c68:	01a4043b          	addw	s0,s0,s10
   17c6c:	6a1090ef          	jal	ra,21b0c <__muldi3>
   17c70:	0104d49b          	srliw	s1,s1,0x10
   17c74:	00a4853b          	addw	a0,s1,a0
   17c78:	0104549b          	srliw	s1,s0,0x10
   17c7c:	0095053b          	addw	a0,a0,s1
   17c80:	0105169b          	slliw	a3,a0,0x10
   17c84:	00897433          	and	s0,s2,s0
   17c88:	004c8c93          	addi	s9,s9,4
   17c8c:	00d46433          	or	s0,s0,a3
   17c90:	004d8d93          	addi	s11,s11,4
   17c94:	fe8cae23          	sw	s0,-4(s9)
   17c98:	01055d1b          	srliw	s10,a0,0x10
   17c9c:	fb4de4e3          	bltu	s11,s4,17c44 <__multiply+0x108>
   17ca0:	01aca023          	sw	s10,0(s9)
   17ca4:	000aa403          	lw	s0,0(s5)
   17ca8:	0104541b          	srliw	s0,s0,0x10
   17cac:	f60408e3          	beqz	s0,17c1c <__multiply+0xe0>
   17cb0:	000c2d03          	lw	s10,0(s8)
   17cb4:	01013c83          	ld	s9,16(sp)
   17cb8:	000c0d93          	mv	s11,s8
   17cbc:	000d0493          	mv	s1,s10
   17cc0:	00000993          	li	s3,0
   17cc4:	000ca503          	lw	a0,0(s9)
   17cc8:	00040593          	mv	a1,s0
   17ccc:	0104d49b          	srliw	s1,s1,0x10
   17cd0:	00a97533          	and	a0,s2,a0
   17cd4:	639090ef          	jal	ra,21b0c <__muldi3>
   17cd8:	00a484bb          	addw	s1,s1,a0
   17cdc:	013489bb          	addw	s3,s1,s3
   17ce0:	0109961b          	slliw	a2,s3,0x10
   17ce4:	012d77b3          	and	a5,s10,s2
   17ce8:	00c7e7b3          	or	a5,a5,a2
   17cec:	004d8d93          	addi	s11,s11,4
   17cf0:	fefdae23          	sw	a5,-4(s11)
   17cf4:	004c8c93          	addi	s9,s9,4
   17cf8:	ffecd503          	lhu	a0,-2(s9)
   17cfc:	000da483          	lw	s1,0(s11)
   17d00:	00040593          	mv	a1,s0
   17d04:	609090ef          	jal	ra,21b0c <__muldi3>
   17d08:	0124f7b3          	and	a5,s1,s2
   17d0c:	0109d99b          	srliw	s3,s3,0x10
   17d10:	00f5053b          	addw	a0,a0,a5
   17d14:	0135053b          	addw	a0,a0,s3
   17d18:	00050d1b          	sext.w	s10,a0
   17d1c:	0105599b          	srliw	s3,a0,0x10
   17d20:	fb4ce2e3          	bltu	s9,s4,17cc4 <__multiply+0x188>
   17d24:	00813783          	ld	a5,8(sp)
   17d28:	01ada023          	sw	s10,0(s11)
   17d2c:	004a8a93          	addi	s5,s5,4
   17d30:	004c0c13          	addi	s8,s8,4
   17d34:	eefaece3          	bltu	s5,a5,17c2c <__multiply+0xf0>
   17d38:	03705663          	blez	s7,17d64 <__multiply+0x228>
   17d3c:	00013703          	ld	a4,0(sp)
   17d40:	ffc72783          	lw	a5,-4(a4) # ffffffffbffffffc <__BSS_END__+0xffffffffbffdb3dc>
   17d44:	ffc70b13          	addi	s6,a4,-4
   17d48:	00078863          	beqz	a5,17d58 <__multiply+0x21c>
   17d4c:	0180006f          	j	17d64 <__multiply+0x228>
   17d50:	000b2783          	lw	a5,0(s6)
   17d54:	00079863          	bnez	a5,17d64 <__multiply+0x228>
   17d58:	fffb8b9b          	addiw	s7,s7,-1
   17d5c:	ffcb0b13          	addi	s6,s6,-4
   17d60:	fe0b98e3          	bnez	s7,17d50 <__multiply+0x214>
   17d64:	01813783          	ld	a5,24(sp)
   17d68:	08813083          	ld	ra,136(sp)
   17d6c:	08013403          	ld	s0,128(sp)
   17d70:	0177aa23          	sw	s7,20(a5)
   17d74:	07813483          	ld	s1,120(sp)
   17d78:	07013903          	ld	s2,112(sp)
   17d7c:	06813983          	ld	s3,104(sp)
   17d80:	06013a03          	ld	s4,96(sp)
   17d84:	05813a83          	ld	s5,88(sp)
   17d88:	05013b03          	ld	s6,80(sp)
   17d8c:	04813b83          	ld	s7,72(sp)
   17d90:	04013c03          	ld	s8,64(sp)
   17d94:	03813c83          	ld	s9,56(sp)
   17d98:	03013d03          	ld	s10,48(sp)
   17d9c:	02813d83          	ld	s11,40(sp)
   17da0:	00078513          	mv	a0,a5
   17da4:	09010113          	addi	sp,sp,144
   17da8:	00008067          	ret

0000000000017dac <__pow5mult>:
   17dac:	fd010113          	addi	sp,sp,-48
   17db0:	02813023          	sd	s0,32(sp)
   17db4:	01313423          	sd	s3,8(sp)
   17db8:	01413023          	sd	s4,0(sp)
   17dbc:	02113423          	sd	ra,40(sp)
   17dc0:	00913c23          	sd	s1,24(sp)
   17dc4:	01213823          	sd	s2,16(sp)
   17dc8:	00367793          	andi	a5,a2,3
   17dcc:	00060413          	mv	s0,a2
   17dd0:	00050993          	mv	s3,a0
   17dd4:	00058a13          	mv	s4,a1
   17dd8:	0c079463          	bnez	a5,17ea0 <__pow5mult+0xf4>
   17ddc:	40245413          	srai	s0,s0,0x2
   17de0:	000a0913          	mv	s2,s4
   17de4:	06040863          	beqz	s0,17e54 <__pow5mult+0xa8>
   17de8:	0709b483          	ld	s1,112(s3)
   17dec:	0c048e63          	beqz	s1,17ec8 <__pow5mult+0x11c>
   17df0:	00147793          	andi	a5,s0,1
   17df4:	000a0913          	mv	s2,s4
   17df8:	02079063          	bnez	a5,17e18 <__pow5mult+0x6c>
   17dfc:	40145413          	srai	s0,s0,0x1
   17e00:	04040a63          	beqz	s0,17e54 <__pow5mult+0xa8>
   17e04:	0004b503          	ld	a0,0(s1)
   17e08:	06050863          	beqz	a0,17e78 <__pow5mult+0xcc>
   17e0c:	00050493          	mv	s1,a0
   17e10:	00147793          	andi	a5,s0,1
   17e14:	fe0784e3          	beqz	a5,17dfc <__pow5mult+0x50>
   17e18:	00048613          	mv	a2,s1
   17e1c:	00090593          	mv	a1,s2
   17e20:	00098513          	mv	a0,s3
   17e24:	d19ff0ef          	jal	ra,17b3c <__multiply>
   17e28:	06090863          	beqz	s2,17e98 <__pow5mult+0xec>
   17e2c:	00892703          	lw	a4,8(s2)
   17e30:	0789b783          	ld	a5,120(s3)
   17e34:	40145413          	srai	s0,s0,0x1
   17e38:	00371713          	slli	a4,a4,0x3
   17e3c:	00e787b3          	add	a5,a5,a4
   17e40:	0007b703          	ld	a4,0(a5)
   17e44:	00e93023          	sd	a4,0(s2)
   17e48:	0127b023          	sd	s2,0(a5)
   17e4c:	00050913          	mv	s2,a0
   17e50:	fa041ae3          	bnez	s0,17e04 <__pow5mult+0x58>
   17e54:	02813083          	ld	ra,40(sp)
   17e58:	02013403          	ld	s0,32(sp)
   17e5c:	00090513          	mv	a0,s2
   17e60:	01813483          	ld	s1,24(sp)
   17e64:	01013903          	ld	s2,16(sp)
   17e68:	00813983          	ld	s3,8(sp)
   17e6c:	00013a03          	ld	s4,0(sp)
   17e70:	03010113          	addi	sp,sp,48
   17e74:	00008067          	ret
   17e78:	00048613          	mv	a2,s1
   17e7c:	00048593          	mv	a1,s1
   17e80:	00098513          	mv	a0,s3
   17e84:	cb9ff0ef          	jal	ra,17b3c <__multiply>
   17e88:	00a4b023          	sd	a0,0(s1)
   17e8c:	00053023          	sd	zero,0(a0)
   17e90:	00050493          	mv	s1,a0
   17e94:	f7dff06f          	j	17e10 <__pow5mult+0x64>
   17e98:	00050913          	mv	s2,a0
   17e9c:	f61ff06f          	j	17dfc <__pow5mult+0x50>
   17ea0:	fff7879b          	addiw	a5,a5,-1
   17ea4:	0000a717          	auipc	a4,0xa
   17ea8:	3e470713          	addi	a4,a4,996 # 22288 <p05.3334>
   17eac:	00279793          	slli	a5,a5,0x2
   17eb0:	00f707b3          	add	a5,a4,a5
   17eb4:	0007a603          	lw	a2,0(a5)
   17eb8:	00000693          	li	a3,0
   17ebc:	889ff0ef          	jal	ra,17744 <__multadd>
   17ec0:	00050a13          	mv	s4,a0
   17ec4:	f19ff06f          	j	17ddc <__pow5mult+0x30>
   17ec8:	00100593          	li	a1,1
   17ecc:	00098513          	mv	a0,s3
   17ed0:	fa8ff0ef          	jal	ra,17678 <_Balloc>
   17ed4:	27100793          	li	a5,625
   17ed8:	00f52c23          	sw	a5,24(a0)
   17edc:	00100793          	li	a5,1
   17ee0:	00f52a23          	sw	a5,20(a0)
   17ee4:	06a9b823          	sd	a0,112(s3)
   17ee8:	00050493          	mv	s1,a0
   17eec:	00053023          	sd	zero,0(a0)
   17ef0:	f01ff06f          	j	17df0 <__pow5mult+0x44>

0000000000017ef4 <__lshift>:
   17ef4:	fc010113          	addi	sp,sp,-64
   17ef8:	01313c23          	sd	s3,24(sp)
   17efc:	0145a983          	lw	s3,20(a1)
   17f00:	01613023          	sd	s6,0(sp)
   17f04:	00c5a783          	lw	a5,12(a1)
   17f08:	40565b1b          	sraiw	s6,a2,0x5
   17f0c:	016989bb          	addw	s3,s3,s6
   17f10:	02813823          	sd	s0,48(sp)
   17f14:	02913423          	sd	s1,40(sp)
   17f18:	03213023          	sd	s2,32(sp)
   17f1c:	01413823          	sd	s4,16(sp)
   17f20:	01513423          	sd	s5,8(sp)
   17f24:	02113c23          	sd	ra,56(sp)
   17f28:	0019849b          	addiw	s1,s3,1
   17f2c:	00058913          	mv	s2,a1
   17f30:	00060a93          	mv	s5,a2
   17f34:	000b0413          	mv	s0,s6
   17f38:	00050a13          	mv	s4,a0
   17f3c:	0085a583          	lw	a1,8(a1)
   17f40:	0097d863          	bge	a5,s1,17f50 <__lshift+0x5c>
   17f44:	0017979b          	slliw	a5,a5,0x1
   17f48:	0015859b          	addiw	a1,a1,1
   17f4c:	fe97cce3          	blt	a5,s1,17f44 <__lshift+0x50>
   17f50:	000a0513          	mv	a0,s4
   17f54:	f24ff0ef          	jal	ra,17678 <_Balloc>
   17f58:	01850713          	addi	a4,a0,24
   17f5c:	03605c63          	blez	s6,17f94 <__lshift+0xa0>
   17f60:	fff4041b          	addiw	s0,s0,-1
   17f64:	02041413          	slli	s0,s0,0x20
   17f68:	02045413          	srli	s0,s0,0x20
   17f6c:	00740693          	addi	a3,s0,7
   17f70:	00269693          	slli	a3,a3,0x2
   17f74:	00d506b3          	add	a3,a0,a3
   17f78:	00070793          	mv	a5,a4
   17f7c:	00478793          	addi	a5,a5,4
   17f80:	fe07ae23          	sw	zero,-4(a5)
   17f84:	fed79ce3          	bne	a5,a3,17f7c <__lshift+0x88>
   17f88:	00140413          	addi	s0,s0,1
   17f8c:	00241413          	slli	s0,s0,0x2
   17f90:	00870733          	add	a4,a4,s0
   17f94:	01492803          	lw	a6,20(s2)
   17f98:	01890793          	addi	a5,s2,24
   17f9c:	01faf613          	andi	a2,s5,31
   17fa0:	00281813          	slli	a6,a6,0x2
   17fa4:	01078833          	add	a6,a5,a6
   17fa8:	08060463          	beqz	a2,18030 <__lshift+0x13c>
   17fac:	02000893          	li	a7,32
   17fb0:	40c888bb          	subw	a7,a7,a2
   17fb4:	00000693          	li	a3,0
   17fb8:	0007a583          	lw	a1,0(a5)
   17fbc:	00470713          	addi	a4,a4,4
   17fc0:	00478793          	addi	a5,a5,4
   17fc4:	00c595bb          	sllw	a1,a1,a2
   17fc8:	00b6e6b3          	or	a3,a3,a1
   17fcc:	fed72e23          	sw	a3,-4(a4)
   17fd0:	ffc7a683          	lw	a3,-4(a5)
   17fd4:	0116d6bb          	srlw	a3,a3,a7
   17fd8:	ff07e0e3          	bltu	a5,a6,17fb8 <__lshift+0xc4>
   17fdc:	00d72023          	sw	a3,0(a4)
   17fe0:	00068463          	beqz	a3,17fe8 <__lshift+0xf4>
   17fe4:	00048993          	mv	s3,s1
   17fe8:	00892703          	lw	a4,8(s2)
   17fec:	078a3783          	ld	a5,120(s4)
   17ff0:	03813083          	ld	ra,56(sp)
   17ff4:	00371713          	slli	a4,a4,0x3
   17ff8:	00e787b3          	add	a5,a5,a4
   17ffc:	0007b703          	ld	a4,0(a5)
   18000:	01352a23          	sw	s3,20(a0)
   18004:	03013403          	ld	s0,48(sp)
   18008:	00e93023          	sd	a4,0(s2)
   1800c:	0127b023          	sd	s2,0(a5)
   18010:	02813483          	ld	s1,40(sp)
   18014:	02013903          	ld	s2,32(sp)
   18018:	01813983          	ld	s3,24(sp)
   1801c:	01013a03          	ld	s4,16(sp)
   18020:	00813a83          	ld	s5,8(sp)
   18024:	00013b03          	ld	s6,0(sp)
   18028:	04010113          	addi	sp,sp,64
   1802c:	00008067          	ret
   18030:	00478793          	addi	a5,a5,4
   18034:	ffc7a683          	lw	a3,-4(a5)
   18038:	00470713          	addi	a4,a4,4
   1803c:	fed72e23          	sw	a3,-4(a4)
   18040:	fb07f4e3          	bgeu	a5,a6,17fe8 <__lshift+0xf4>
   18044:	00478793          	addi	a5,a5,4
   18048:	ffc7a683          	lw	a3,-4(a5)
   1804c:	00470713          	addi	a4,a4,4
   18050:	fed72e23          	sw	a3,-4(a4)
   18054:	fd07eee3          	bltu	a5,a6,18030 <__lshift+0x13c>
   18058:	f91ff06f          	j	17fe8 <__lshift+0xf4>

000000000001805c <__mcmp>:
   1805c:	00050613          	mv	a2,a0
   18060:	0145a783          	lw	a5,20(a1)
   18064:	01452503          	lw	a0,20(a0)
   18068:	40f5053b          	subw	a0,a0,a5
   1806c:	02051e63          	bnez	a0,180a8 <__mcmp+0x4c>
   18070:	00279713          	slli	a4,a5,0x2
   18074:	01860613          	addi	a2,a2,24
   18078:	01858593          	addi	a1,a1,24
   1807c:	00e607b3          	add	a5,a2,a4
   18080:	00e585b3          	add	a1,a1,a4
   18084:	0080006f          	j	1808c <__mcmp+0x30>
   18088:	02f67063          	bgeu	a2,a5,180a8 <__mcmp+0x4c>
   1808c:	ffc78793          	addi	a5,a5,-4
   18090:	ffc58593          	addi	a1,a1,-4
   18094:	0007a683          	lw	a3,0(a5)
   18098:	0005a703          	lw	a4,0(a1)
   1809c:	fee686e3          	beq	a3,a4,18088 <__mcmp+0x2c>
   180a0:	fff00513          	li	a0,-1
   180a4:	00e6f463          	bgeu	a3,a4,180ac <__mcmp+0x50>
   180a8:	00008067          	ret
   180ac:	00100513          	li	a0,1
   180b0:	00008067          	ret

00000000000180b4 <__mdiff>:
   180b4:	fd010113          	addi	sp,sp,-48
   180b8:	01213823          	sd	s2,16(sp)
   180bc:	01462703          	lw	a4,20(a2)
   180c0:	0145a903          	lw	s2,20(a1)
   180c4:	02813023          	sd	s0,32(sp)
   180c8:	00913c23          	sd	s1,24(sp)
   180cc:	01313423          	sd	s3,8(sp)
   180d0:	01413023          	sd	s4,0(sp)
   180d4:	02113423          	sd	ra,40(sp)
   180d8:	40e9093b          	subw	s2,s2,a4
   180dc:	00058993          	mv	s3,a1
   180e0:	00060a13          	mv	s4,a2
   180e4:	01858413          	addi	s0,a1,24
   180e8:	01860493          	addi	s1,a2,24
   180ec:	04091863          	bnez	s2,1813c <__mdiff+0x88>
   180f0:	00271713          	slli	a4,a4,0x2
   180f4:	00e407b3          	add	a5,s0,a4
   180f8:	00e48733          	add	a4,s1,a4
   180fc:	0080006f          	j	18104 <__mdiff+0x50>
   18100:	16f47663          	bgeu	s0,a5,1826c <__mdiff+0x1b8>
   18104:	ffc78793          	addi	a5,a5,-4
   18108:	ffc70713          	addi	a4,a4,-4
   1810c:	0007a583          	lw	a1,0(a5)
   18110:	00072683          	lw	a3,0(a4)
   18114:	fed586e3          	beq	a1,a3,18100 <__mdiff+0x4c>
   18118:	02d5f663          	bgeu	a1,a3,18144 <__mdiff+0x90>
   1811c:	00040713          	mv	a4,s0
   18120:	00098793          	mv	a5,s3
   18124:	00048413          	mv	s0,s1
   18128:	000a0993          	mv	s3,s4
   1812c:	00070493          	mv	s1,a4
   18130:	00078a13          	mv	s4,a5
   18134:	00100913          	li	s2,1
   18138:	00c0006f          	j	18144 <__mdiff+0x90>
   1813c:	fe0940e3          	bltz	s2,1811c <__mdiff+0x68>
   18140:	00000913          	li	s2,0
   18144:	0089a583          	lw	a1,8(s3)
   18148:	d30ff0ef          	jal	ra,17678 <_Balloc>
   1814c:	0149a883          	lw	a7,20(s3)
   18150:	014a2e83          	lw	t4,20(s4)
   18154:	00010e37          	lui	t3,0x10
   18158:	00289313          	slli	t1,a7,0x2
   1815c:	002e9e93          	slli	t4,t4,0x2
   18160:	01252823          	sw	s2,16(a0)
   18164:	00640333          	add	t1,s0,t1
   18168:	01d48eb3          	add	t4,s1,t4
   1816c:	01850593          	addi	a1,a0,24
   18170:	00000713          	li	a4,0
   18174:	fffe0e13          	addi	t3,t3,-1 # ffff <main-0xb1>
   18178:	0080006f          	j	18180 <__mdiff+0xcc>
   1817c:	00080593          	mv	a1,a6
   18180:	00042683          	lw	a3,0(s0)
   18184:	0004a603          	lw	a2,0(s1)
   18188:	00458813          	addi	a6,a1,4
   1818c:	01c6f7b3          	and	a5,a3,t3
   18190:	00e787bb          	addw	a5,a5,a4
   18194:	01c67733          	and	a4,a2,t3
   18198:	40e787bb          	subw	a5,a5,a4
   1819c:	0106561b          	srliw	a2,a2,0x10
   181a0:	0106d71b          	srliw	a4,a3,0x10
   181a4:	40c7073b          	subw	a4,a4,a2
   181a8:	4107d69b          	sraiw	a3,a5,0x10
   181ac:	00d7073b          	addw	a4,a4,a3
   181b0:	0107169b          	slliw	a3,a4,0x10
   181b4:	01c7f7b3          	and	a5,a5,t3
   181b8:	00d7e7b3          	or	a5,a5,a3
   181bc:	0007879b          	sext.w	a5,a5
   181c0:	00448493          	addi	s1,s1,4
   181c4:	fef82e23          	sw	a5,-4(a6)
   181c8:	00440413          	addi	s0,s0,4
   181cc:	4107571b          	sraiw	a4,a4,0x10
   181d0:	fbd4e6e3          	bltu	s1,t4,1817c <__mdiff+0xc8>
   181d4:	06647063          	bgeu	s0,t1,18234 <__mdiff+0x180>
   181d8:	00010e37          	lui	t3,0x10
   181dc:	00080593          	mv	a1,a6
   181e0:	00040613          	mv	a2,s0
   181e4:	fffe0e13          	addi	t3,t3,-1 # ffff <main-0xb1>
   181e8:	00062683          	lw	a3,0(a2)
   181ec:	00458593          	addi	a1,a1,4
   181f0:	00460613          	addi	a2,a2,4
   181f4:	01c6f7b3          	and	a5,a3,t3
   181f8:	00e787bb          	addw	a5,a5,a4
   181fc:	0106d71b          	srliw	a4,a3,0x10
   18200:	4107d69b          	sraiw	a3,a5,0x10
   18204:	00d7073b          	addw	a4,a4,a3
   18208:	0107169b          	slliw	a3,a4,0x10
   1820c:	01c7f7b3          	and	a5,a5,t3
   18210:	00d7e7b3          	or	a5,a5,a3
   18214:	0007879b          	sext.w	a5,a5
   18218:	fef5ae23          	sw	a5,-4(a1)
   1821c:	4107571b          	sraiw	a4,a4,0x10
   18220:	fc6664e3          	bltu	a2,t1,181e8 <__mdiff+0x134>
   18224:	fff30593          	addi	a1,t1,-1
   18228:	408585b3          	sub	a1,a1,s0
   1822c:	ffc5f593          	andi	a1,a1,-4
   18230:	00b805b3          	add	a1,a6,a1
   18234:	00079a63          	bnez	a5,18248 <__mdiff+0x194>
   18238:	ffc58593          	addi	a1,a1,-4
   1823c:	0005a783          	lw	a5,0(a1)
   18240:	fff8889b          	addiw	a7,a7,-1
   18244:	fe078ae3          	beqz	a5,18238 <__mdiff+0x184>
   18248:	02813083          	ld	ra,40(sp)
   1824c:	02013403          	ld	s0,32(sp)
   18250:	01152a23          	sw	a7,20(a0)
   18254:	01813483          	ld	s1,24(sp)
   18258:	01013903          	ld	s2,16(sp)
   1825c:	00813983          	ld	s3,8(sp)
   18260:	00013a03          	ld	s4,0(sp)
   18264:	03010113          	addi	sp,sp,48
   18268:	00008067          	ret
   1826c:	00000593          	li	a1,0
   18270:	c08ff0ef          	jal	ra,17678 <_Balloc>
   18274:	02813083          	ld	ra,40(sp)
   18278:	02013403          	ld	s0,32(sp)
   1827c:	00100793          	li	a5,1
   18280:	00f52a23          	sw	a5,20(a0)
   18284:	00052c23          	sw	zero,24(a0)
   18288:	01813483          	ld	s1,24(sp)
   1828c:	01013903          	ld	s2,16(sp)
   18290:	00813983          	ld	s3,8(sp)
   18294:	00013a03          	ld	s4,0(sp)
   18298:	03010113          	addi	sp,sp,48
   1829c:	00008067          	ret

00000000000182a0 <__ulp>:
   182a0:	02055513          	srli	a0,a0,0x20
   182a4:	7ff007b7          	lui	a5,0x7ff00
   182a8:	00f577b3          	and	a5,a0,a5
   182ac:	fcc00537          	lui	a0,0xfcc00
   182b0:	00f5053b          	addw	a0,a0,a5
   182b4:	0005079b          	sext.w	a5,a0
   182b8:	00f05663          	blez	a5,182c4 <__ulp+0x24>
   182bc:	02051513          	slli	a0,a0,0x20
   182c0:	00008067          	ret
   182c4:	40a0053b          	negw	a0,a0
   182c8:	4145579b          	sraiw	a5,a0,0x14
   182cc:	01300713          	li	a4,19
   182d0:	00f74a63          	blt	a4,a5,182e4 <__ulp+0x44>
   182d4:	00080537          	lui	a0,0x80
   182d8:	40f5553b          	sraw	a0,a0,a5
   182dc:	02051513          	slli	a0,a0,0x20
   182e0:	00008067          	ret
   182e4:	fec7871b          	addiw	a4,a5,-20
   182e8:	01e00693          	li	a3,30
   182ec:	00000513          	li	a0,0
   182f0:	00100793          	li	a5,1
   182f4:	00e6c663          	blt	a3,a4,18300 <__ulp+0x60>
   182f8:	800007b7          	lui	a5,0x80000
   182fc:	00e7d7bb          	srlw	a5,a5,a4
   18300:	02055513          	srli	a0,a0,0x20
   18304:	02079793          	slli	a5,a5,0x20
   18308:	0207d793          	srli	a5,a5,0x20
   1830c:	02051513          	slli	a0,a0,0x20
   18310:	00f56533          	or	a0,a0,a5
   18314:	00008067          	ret

0000000000018318 <__b2d>:
   18318:	fd010113          	addi	sp,sp,-48
   1831c:	02813023          	sd	s0,32(sp)
   18320:	01452403          	lw	s0,20(a0) # 80014 <__BSS_END__+0x5b3f4>
   18324:	01213823          	sd	s2,16(sp)
   18328:	01850913          	addi	s2,a0,24
   1832c:	00241413          	slli	s0,s0,0x2
   18330:	00890433          	add	s0,s2,s0
   18334:	00913c23          	sd	s1,24(sp)
   18338:	ffc42483          	lw	s1,-4(s0)
   1833c:	01313423          	sd	s3,8(sp)
   18340:	01413023          	sd	s4,0(sp)
   18344:	00048513          	mv	a0,s1
   18348:	00058a13          	mv	s4,a1
   1834c:	02113423          	sd	ra,40(sp)
   18350:	e88ff0ef          	jal	ra,179d8 <__hi0bits>
   18354:	02000693          	li	a3,32
   18358:	40a687bb          	subw	a5,a3,a0
   1835c:	00fa2023          	sw	a5,0(s4)
   18360:	00a00793          	li	a5,10
   18364:	ffc40993          	addi	s3,s0,-4
   18368:	0aa7d663          	bge	a5,a0,18414 <__b2d+0xfc>
   1836c:	ff55079b          	addiw	a5,a0,-11
   18370:	07397063          	bgeu	s2,s3,183d0 <__b2d+0xb8>
   18374:	ff842703          	lw	a4,-8(s0)
   18378:	06078063          	beqz	a5,183d8 <__b2d+0xc0>
   1837c:	40f6853b          	subw	a0,a3,a5
   18380:	00f496bb          	sllw	a3,s1,a5
   18384:	00a754bb          	srlw	s1,a4,a0
   18388:	0096e6b3          	or	a3,a3,s1
   1838c:	3ff004b7          	lui	s1,0x3ff00
   18390:	0096e6b3          	or	a3,a3,s1
   18394:	00f7173b          	sllw	a4,a4,a5
   18398:	ff840613          	addi	a2,s0,-8
   1839c:	02069793          	slli	a5,a3,0x20
   183a0:	0007069b          	sext.w	a3,a4
   183a4:	00c97a63          	bgeu	s2,a2,183b8 <__b2d+0xa0>
   183a8:	ff442683          	lw	a3,-12(s0)
   183ac:	00a6d53b          	srlw	a0,a3,a0
   183b0:	00e566b3          	or	a3,a0,a4
   183b4:	0006869b          	sext.w	a3,a3
   183b8:	0207d793          	srli	a5,a5,0x20
   183bc:	02069693          	slli	a3,a3,0x20
   183c0:	0206d693          	srli	a3,a3,0x20
   183c4:	02079793          	slli	a5,a5,0x20
   183c8:	00d7e7b3          	or	a5,a5,a3
   183cc:	0240006f          	j	183f0 <__b2d+0xd8>
   183d0:	00000713          	li	a4,0
   183d4:	08079663          	bnez	a5,18460 <__b2d+0x148>
   183d8:	3ff007b7          	lui	a5,0x3ff00
   183dc:	00f4e7b3          	or	a5,s1,a5
   183e0:	02071713          	slli	a4,a4,0x20
   183e4:	02075713          	srli	a4,a4,0x20
   183e8:	02079793          	slli	a5,a5,0x20
   183ec:	00e7e7b3          	or	a5,a5,a4
   183f0:	02813083          	ld	ra,40(sp)
   183f4:	02013403          	ld	s0,32(sp)
   183f8:	01813483          	ld	s1,24(sp)
   183fc:	01013903          	ld	s2,16(sp)
   18400:	00813983          	ld	s3,8(sp)
   18404:	00013a03          	ld	s4,0(sp)
   18408:	00078513          	mv	a0,a5
   1840c:	03010113          	addi	sp,sp,48
   18410:	00008067          	ret
   18414:	00b00693          	li	a3,11
   18418:	40a686bb          	subw	a3,a3,a0
   1841c:	3ff00737          	lui	a4,0x3ff00
   18420:	00d4d7bb          	srlw	a5,s1,a3
   18424:	00e7e7b3          	or	a5,a5,a4
   18428:	02079793          	slli	a5,a5,0x20
   1842c:	00000713          	li	a4,0
   18430:	01397663          	bgeu	s2,s3,1843c <__b2d+0x124>
   18434:	ff842703          	lw	a4,-8(s0)
   18438:	00d7573b          	srlw	a4,a4,a3
   1843c:	0155051b          	addiw	a0,a0,21
   18440:	00a494bb          	sllw	s1,s1,a0
   18444:	009764b3          	or	s1,a4,s1
   18448:	0207d793          	srli	a5,a5,0x20
   1844c:	02049493          	slli	s1,s1,0x20
   18450:	0204d493          	srli	s1,s1,0x20
   18454:	02079793          	slli	a5,a5,0x20
   18458:	0097e7b3          	or	a5,a5,s1
   1845c:	f95ff06f          	j	183f0 <__b2d+0xd8>
   18460:	00f497bb          	sllw	a5,s1,a5
   18464:	3ff00537          	lui	a0,0x3ff00
   18468:	00a7e7b3          	or	a5,a5,a0
   1846c:	02079793          	slli	a5,a5,0x20
   18470:	00000693          	li	a3,0
   18474:	f45ff06f          	j	183b8 <__b2d+0xa0>

0000000000018478 <__d2b>:
   18478:	fc010113          	addi	sp,sp,-64
   1847c:	02913423          	sd	s1,40(sp)
   18480:	00058493          	mv	s1,a1
   18484:	00100593          	li	a1,1
   18488:	02813823          	sd	s0,48(sp)
   1848c:	03213023          	sd	s2,32(sp)
   18490:	01313c23          	sd	s3,24(sp)
   18494:	01413823          	sd	s4,16(sp)
   18498:	02113c23          	sd	ra,56(sp)
   1849c:	00060993          	mv	s3,a2
   184a0:	00068913          	mv	s2,a3
   184a4:	9d4ff0ef          	jal	ra,17678 <_Balloc>
   184a8:	4204d793          	srai	a5,s1,0x20
   184ac:	0147d41b          	srliw	s0,a5,0x14
   184b0:	7ff47413          	andi	s0,s0,2047
   184b4:	02c79793          	slli	a5,a5,0x2c
   184b8:	00050a13          	mv	s4,a0
   184bc:	02c7d793          	srli	a5,a5,0x2c
   184c0:	00040663          	beqz	s0,184cc <__d2b+0x54>
   184c4:	00100737          	lui	a4,0x100
   184c8:	00e7e7b3          	or	a5,a5,a4
   184cc:	00f12623          	sw	a5,12(sp)
   184d0:	0004849b          	sext.w	s1,s1
   184d4:	08048e63          	beqz	s1,18570 <__d2b+0xf8>
   184d8:	00810513          	addi	a0,sp,8
   184dc:	00912423          	sw	s1,8(sp)
   184e0:	d6cff0ef          	jal	ra,17a4c <__lo0bits>
   184e4:	06051063          	bnez	a0,18544 <__d2b+0xcc>
   184e8:	00812703          	lw	a4,8(sp)
   184ec:	00c12783          	lw	a5,12(sp)
   184f0:	00ea2c23          	sw	a4,24(s4)
   184f4:	00f034b3          	snez	s1,a5
   184f8:	00148493          	addi	s1,s1,1 # 3ff00001 <__BSS_END__+0x3fedb3e1>
   184fc:	00fa2e23          	sw	a5,28(s4)
   18500:	009a2a23          	sw	s1,20(s4)
   18504:	08040863          	beqz	s0,18594 <__d2b+0x11c>
   18508:	bcd4041b          	addiw	s0,s0,-1075
   1850c:	00a4043b          	addw	s0,s0,a0
   18510:	03500793          	li	a5,53
   18514:	0089a023          	sw	s0,0(s3)
   18518:	40a7853b          	subw	a0,a5,a0
   1851c:	00a92023          	sw	a0,0(s2)
   18520:	03813083          	ld	ra,56(sp)
   18524:	03013403          	ld	s0,48(sp)
   18528:	000a0513          	mv	a0,s4
   1852c:	02813483          	ld	s1,40(sp)
   18530:	02013903          	ld	s2,32(sp)
   18534:	01813983          	ld	s3,24(sp)
   18538:	01013a03          	ld	s4,16(sp)
   1853c:	04010113          	addi	sp,sp,64
   18540:	00008067          	ret
   18544:	00c12703          	lw	a4,12(sp)
   18548:	00812683          	lw	a3,8(sp)
   1854c:	02000793          	li	a5,32
   18550:	40a787bb          	subw	a5,a5,a0
   18554:	00f717bb          	sllw	a5,a4,a5
   18558:	00d7e7b3          	or	a5,a5,a3
   1855c:	00a7573b          	srlw	a4,a4,a0
   18560:	00fa2c23          	sw	a5,24(s4)
   18564:	00e12623          	sw	a4,12(sp)
   18568:	0007079b          	sext.w	a5,a4
   1856c:	f89ff06f          	j	184f4 <__d2b+0x7c>
   18570:	00c10513          	addi	a0,sp,12
   18574:	cd8ff0ef          	jal	ra,17a4c <__lo0bits>
   18578:	00100793          	li	a5,1
   1857c:	00fa2a23          	sw	a5,20(s4)
   18580:	00c12783          	lw	a5,12(sp)
   18584:	0205051b          	addiw	a0,a0,32
   18588:	00100493          	li	s1,1
   1858c:	00fa2c23          	sw	a5,24(s4)
   18590:	f6041ce3          	bnez	s0,18508 <__d2b+0x90>
   18594:	bce5051b          	addiw	a0,a0,-1074
   18598:	00249793          	slli	a5,s1,0x2
   1859c:	00a9a023          	sw	a0,0(s3)
   185a0:	00fa07b3          	add	a5,s4,a5
   185a4:	0147a503          	lw	a0,20(a5) # 3ff00014 <__BSS_END__+0x3fedb3f4>
   185a8:	0054949b          	slliw	s1,s1,0x5
   185ac:	c2cff0ef          	jal	ra,179d8 <__hi0bits>
   185b0:	40a484bb          	subw	s1,s1,a0
   185b4:	00992023          	sw	s1,0(s2)
   185b8:	f69ff06f          	j	18520 <__d2b+0xa8>

00000000000185bc <__ratio>:
   185bc:	fd010113          	addi	sp,sp,-48
   185c0:	00913c23          	sd	s1,24(sp)
   185c4:	00058493          	mv	s1,a1
   185c8:	00810593          	addi	a1,sp,8
   185cc:	02113423          	sd	ra,40(sp)
   185d0:	02813023          	sd	s0,32(sp)
   185d4:	01213823          	sd	s2,16(sp)
   185d8:	00050913          	mv	s2,a0
   185dc:	d3dff0ef          	jal	ra,18318 <__b2d>
   185e0:	00c10593          	addi	a1,sp,12
   185e4:	00050413          	mv	s0,a0
   185e8:	00048513          	mv	a0,s1
   185ec:	d2dff0ef          	jal	ra,18318 <__b2d>
   185f0:	0144a703          	lw	a4,20(s1)
   185f4:	01492783          	lw	a5,20(s2)
   185f8:	00c12683          	lw	a3,12(sp)
   185fc:	00050593          	mv	a1,a0
   18600:	40e787bb          	subw	a5,a5,a4
   18604:	00812703          	lw	a4,8(sp)
   18608:	0057979b          	slliw	a5,a5,0x5
   1860c:	40d7073b          	subw	a4,a4,a3
   18610:	00e7873b          	addw	a4,a5,a4
   18614:	00070793          	mv	a5,a4
   18618:	04e05263          	blez	a4,1865c <__ratio+0xa0>
   1861c:	02045713          	srli	a4,s0,0x20
   18620:	0147979b          	slliw	a5,a5,0x14
   18624:	00e787bb          	addw	a5,a5,a4
   18628:	fff00713          	li	a4,-1
   1862c:	02075713          	srli	a4,a4,0x20
   18630:	02079793          	slli	a5,a5,0x20
   18634:	00877433          	and	s0,a4,s0
   18638:	00f46433          	or	s0,s0,a5
   1863c:	00040513          	mv	a0,s0
   18640:	695060ef          	jal	ra,1f4d4 <__divdf3>
   18644:	02813083          	ld	ra,40(sp)
   18648:	02013403          	ld	s0,32(sp)
   1864c:	01813483          	ld	s1,24(sp)
   18650:	01013903          	ld	s2,16(sp)
   18654:	03010113          	addi	sp,sp,48
   18658:	00008067          	ret
   1865c:	02055713          	srli	a4,a0,0x20
   18660:	0147979b          	slliw	a5,a5,0x14
   18664:	fff00513          	li	a0,-1
   18668:	40f707bb          	subw	a5,a4,a5
   1866c:	02055513          	srli	a0,a0,0x20
   18670:	02079793          	slli	a5,a5,0x20
   18674:	00b575b3          	and	a1,a0,a1
   18678:	00f5e5b3          	or	a1,a1,a5
   1867c:	fc1ff06f          	j	1863c <__ratio+0x80>

0000000000018680 <_mprec_log10>:
   18680:	fe010113          	addi	sp,sp,-32
   18684:	00813823          	sd	s0,16(sp)
   18688:	00113c23          	sd	ra,24(sp)
   1868c:	00913423          	sd	s1,8(sp)
   18690:	01700793          	li	a5,23
   18694:	00050413          	mv	s0,a0
   18698:	04a7d063          	bge	a5,a0,186d8 <_mprec_log10+0x58>
   1869c:	0000c797          	auipc	a5,0xc
   186a0:	4ac78793          	addi	a5,a5,1196 # 24b48 <__SDATA_BEGIN__+0x10>
   186a4:	0007b503          	ld	a0,0(a5)
   186a8:	0000c797          	auipc	a5,0xc
   186ac:	4a878793          	addi	a5,a5,1192 # 24b50 <__SDATA_BEGIN__+0x18>
   186b0:	0007b483          	ld	s1,0(a5)
   186b4:	fff4041b          	addiw	s0,s0,-1
   186b8:	00048593          	mv	a1,s1
   186bc:	38c070ef          	jal	ra,1fa48 <__muldf3>
   186c0:	fe041ae3          	bnez	s0,186b4 <_mprec_log10+0x34>
   186c4:	01813083          	ld	ra,24(sp)
   186c8:	01013403          	ld	s0,16(sp)
   186cc:	00813483          	ld	s1,8(sp)
   186d0:	02010113          	addi	sp,sp,32
   186d4:	00008067          	ret
   186d8:	00351413          	slli	s0,a0,0x3
   186dc:	0000a797          	auipc	a5,0xa
   186e0:	bac78793          	addi	a5,a5,-1108 # 22288 <p05.3334>
   186e4:	00878433          	add	s0,a5,s0
   186e8:	01043503          	ld	a0,16(s0)
   186ec:	01813083          	ld	ra,24(sp)
   186f0:	01013403          	ld	s0,16(sp)
   186f4:	00813483          	ld	s1,8(sp)
   186f8:	02010113          	addi	sp,sp,32
   186fc:	00008067          	ret

0000000000018700 <__copybits>:
   18700:	01462683          	lw	a3,20(a2)
   18704:	fff5859b          	addiw	a1,a1,-1
   18708:	4055d59b          	sraiw	a1,a1,0x5
   1870c:	00158593          	addi	a1,a1,1
   18710:	01860793          	addi	a5,a2,24
   18714:	00269693          	slli	a3,a3,0x2
   18718:	00259593          	slli	a1,a1,0x2
   1871c:	00d786b3          	add	a3,a5,a3
   18720:	00b505b3          	add	a1,a0,a1
   18724:	02d7f863          	bgeu	a5,a3,18754 <__copybits+0x54>
   18728:	00050713          	mv	a4,a0
   1872c:	00478793          	addi	a5,a5,4
   18730:	ffc7a803          	lw	a6,-4(a5)
   18734:	00470713          	addi	a4,a4,4 # 100004 <__BSS_END__+0xdb3e4>
   18738:	ff072e23          	sw	a6,-4(a4)
   1873c:	fed7e8e3          	bltu	a5,a3,1872c <__copybits+0x2c>
   18740:	40c687b3          	sub	a5,a3,a2
   18744:	fe778793          	addi	a5,a5,-25
   18748:	ffc7f793          	andi	a5,a5,-4
   1874c:	00478793          	addi	a5,a5,4
   18750:	00f50533          	add	a0,a0,a5
   18754:	00b57863          	bgeu	a0,a1,18764 <__copybits+0x64>
   18758:	00450513          	addi	a0,a0,4 # 3ff00004 <__BSS_END__+0x3fedb3e4>
   1875c:	fe052e23          	sw	zero,-4(a0)
   18760:	feb56ce3          	bltu	a0,a1,18758 <__copybits+0x58>
   18764:	00008067          	ret

0000000000018768 <__any_on>:
   18768:	01452703          	lw	a4,20(a0)
   1876c:	4055d613          	srai	a2,a1,0x5
   18770:	01850693          	addi	a3,a0,24
   18774:	02c75a63          	bge	a4,a2,187a8 <__any_on+0x40>
   18778:	00271793          	slli	a5,a4,0x2
   1877c:	00f687b3          	add	a5,a3,a5
   18780:	04f6fc63          	bgeu	a3,a5,187d8 <__any_on+0x70>
   18784:	ffc7a503          	lw	a0,-4(a5)
   18788:	ffc78793          	addi	a5,a5,-4
   1878c:	00051a63          	bnez	a0,187a0 <__any_on+0x38>
   18790:	04f6f263          	bgeu	a3,a5,187d4 <__any_on+0x6c>
   18794:	ffc78793          	addi	a5,a5,-4
   18798:	0007a703          	lw	a4,0(a5)
   1879c:	fe070ae3          	beqz	a4,18790 <__any_on+0x28>
   187a0:	00100513          	li	a0,1
   187a4:	00008067          	ret
   187a8:	00261793          	slli	a5,a2,0x2
   187ac:	00f687b3          	add	a5,a3,a5
   187b0:	fce658e3          	bge	a2,a4,18780 <__any_on+0x18>
   187b4:	01f5f593          	andi	a1,a1,31
   187b8:	fc0584e3          	beqz	a1,18780 <__any_on+0x18>
   187bc:	0007a603          	lw	a2,0(a5)
   187c0:	00100513          	li	a0,1
   187c4:	00b6573b          	srlw	a4,a2,a1
   187c8:	00b715bb          	sllw	a1,a4,a1
   187cc:	fac58ae3          	beq	a1,a2,18780 <__any_on+0x18>
   187d0:	00008067          	ret
   187d4:	00008067          	ret
   187d8:	00000513          	li	a0,0
   187dc:	00008067          	ret

00000000000187e0 <_sbrk_r>:
   187e0:	ff010113          	addi	sp,sp,-16
   187e4:	00813023          	sd	s0,0(sp)
   187e8:	00050413          	mv	s0,a0
   187ec:	00058513          	mv	a0,a1
   187f0:	0000c797          	auipc	a5,0xc
   187f4:	4207a423          	sw	zero,1064(a5) # 24c18 <errno>
   187f8:	00113423          	sd	ra,8(sp)
   187fc:	371060ef          	jal	ra,1f36c <_sbrk>
   18800:	fff00793          	li	a5,-1
   18804:	00f50a63          	beq	a0,a5,18818 <_sbrk_r+0x38>
   18808:	00813083          	ld	ra,8(sp)
   1880c:	00013403          	ld	s0,0(sp)
   18810:	01010113          	addi	sp,sp,16
   18814:	00008067          	ret
   18818:	0000c797          	auipc	a5,0xc
   1881c:	40078793          	addi	a5,a5,1024 # 24c18 <errno>
   18820:	0007a783          	lw	a5,0(a5)
   18824:	fe0782e3          	beqz	a5,18808 <_sbrk_r+0x28>
   18828:	00f42023          	sw	a5,0(s0)
   1882c:	00813083          	ld	ra,8(sp)
   18830:	00013403          	ld	s0,0(sp)
   18834:	01010113          	addi	sp,sp,16
   18838:	00008067          	ret

000000000001883c <frexp>:
   1883c:	fe010113          	addi	sp,sp,-32
   18840:	00813823          	sd	s0,16(sp)
   18844:	42055693          	srai	a3,a0,0x20
   18848:	80000437          	lui	s0,0x80000
   1884c:	00913423          	sd	s1,8(sp)
   18850:	00113c23          	sd	ra,24(sp)
   18854:	0006861b          	sext.w	a2,a3
   18858:	fff44413          	not	s0,s0
   1885c:	00058493          	mv	s1,a1
   18860:	0005a023          	sw	zero,0(a1)
   18864:	008677b3          	and	a5,a2,s0
   18868:	7ff005b7          	lui	a1,0x7ff00
   1886c:	00050713          	mv	a4,a0
   18870:	06b7dc63          	bge	a5,a1,188e8 <frexp+0xac>
   18874:	00a7e5b3          	or	a1,a5,a0
   18878:	0005859b          	sext.w	a1,a1
   1887c:	06058663          	beqz	a1,188e8 <frexp+0xac>
   18880:	7ff005b7          	lui	a1,0x7ff00
   18884:	00b67633          	and	a2,a2,a1
   18888:	00000593          	li	a1,0
   1888c:	02061263          	bnez	a2,188b0 <frexp+0x74>
   18890:	0000c797          	auipc	a5,0xc
   18894:	2c878793          	addi	a5,a5,712 # 24b58 <__SDATA_BEGIN__+0x20>
   18898:	0007b583          	ld	a1,0(a5)
   1889c:	1ac070ef          	jal	ra,1fa48 <__muldf3>
   188a0:	42055693          	srai	a3,a0,0x20
   188a4:	00050713          	mv	a4,a0
   188a8:	0086f7b3          	and	a5,a3,s0
   188ac:	fca00593          	li	a1,-54
   188b0:	80100637          	lui	a2,0x80100
   188b4:	fff60613          	addi	a2,a2,-1 # ffffffff800fffff <__BSS_END__+0xffffffff800db3df>
   188b8:	00c6f6b3          	and	a3,a3,a2
   188bc:	3fe00637          	lui	a2,0x3fe00
   188c0:	00c6e6b3          	or	a3,a3,a2
   188c4:	4147d79b          	sraiw	a5,a5,0x14
   188c8:	fff00613          	li	a2,-1
   188cc:	c027879b          	addiw	a5,a5,-1022
   188d0:	02065613          	srli	a2,a2,0x20
   188d4:	00b787bb          	addw	a5,a5,a1
   188d8:	02069693          	slli	a3,a3,0x20
   188dc:	00e67733          	and	a4,a2,a4
   188e0:	00f4a023          	sw	a5,0(s1)
   188e4:	00d76733          	or	a4,a4,a3
   188e8:	01813083          	ld	ra,24(sp)
   188ec:	01013403          	ld	s0,16(sp)
   188f0:	00813483          	ld	s1,8(sp)
   188f4:	00070513          	mv	a0,a4
   188f8:	02010113          	addi	sp,sp,32
   188fc:	00008067          	ret

0000000000018900 <_sprintf_r>:
   18900:	f0010113          	addi	sp,sp,-256
   18904:	0d810e13          	addi	t3,sp,216
   18908:	0ef13423          	sd	a5,232(sp)
   1890c:	80000337          	lui	t1,0x80000
   18910:	ffff07b7          	lui	a5,0xffff0
   18914:	00058e93          	mv	t4,a1
   18918:	fff34313          	not	t1,t1
   1891c:	0cd13c23          	sd	a3,216(sp)
   18920:	20878793          	addi	a5,a5,520 # ffffffffffff0208 <__BSS_END__+0xfffffffffffcb5e8>
   18924:	01010593          	addi	a1,sp,16
   18928:	000e0693          	mv	a3,t3
   1892c:	0c113423          	sd	ra,200(sp)
   18930:	02f12023          	sw	a5,32(sp)
   18934:	0ee13023          	sd	a4,224(sp)
   18938:	0f013823          	sd	a6,240(sp)
   1893c:	0f113c23          	sd	a7,248(sp)
   18940:	01d13823          	sd	t4,16(sp)
   18944:	03d13423          	sd	t4,40(sp)
   18948:	02612823          	sw	t1,48(sp)
   1894c:	00612e23          	sw	t1,28(sp)
   18950:	01c13423          	sd	t3,8(sp)
   18954:	5a0000ef          	jal	ra,18ef4 <_svfprintf_r>
   18958:	01013783          	ld	a5,16(sp)
   1895c:	00078023          	sb	zero,0(a5)
   18960:	0c813083          	ld	ra,200(sp)
   18964:	10010113          	addi	sp,sp,256
   18968:	00008067          	ret

000000000001896c <sprintf>:
   1896c:	00050e93          	mv	t4,a0
   18970:	75818513          	addi	a0,gp,1880 # 24b78 <_impure_ptr>
   18974:	f0010113          	addi	sp,sp,-256
   18978:	00053503          	ld	a0,0(a0)
   1897c:	0d010e13          	addi	t3,sp,208
   18980:	0ef13423          	sd	a5,232(sp)
   18984:	80000337          	lui	t1,0x80000
   18988:	ffff07b7          	lui	a5,0xffff0
   1898c:	fff34313          	not	t1,t1
   18990:	0cc13823          	sd	a2,208(sp)
   18994:	0cd13c23          	sd	a3,216(sp)
   18998:	20878793          	addi	a5,a5,520 # ffffffffffff0208 <__BSS_END__+0xfffffffffffcb5e8>
   1899c:	00058613          	mv	a2,a1
   189a0:	000e0693          	mv	a3,t3
   189a4:	01010593          	addi	a1,sp,16
   189a8:	0c113423          	sd	ra,200(sp)
   189ac:	02f12023          	sw	a5,32(sp)
   189b0:	0ee13023          	sd	a4,224(sp)
   189b4:	0f013823          	sd	a6,240(sp)
   189b8:	0f113c23          	sd	a7,248(sp)
   189bc:	01d13823          	sd	t4,16(sp)
   189c0:	03d13423          	sd	t4,40(sp)
   189c4:	02612823          	sw	t1,48(sp)
   189c8:	00612e23          	sw	t1,28(sp)
   189cc:	01c13423          	sd	t3,8(sp)
   189d0:	524000ef          	jal	ra,18ef4 <_svfprintf_r>
   189d4:	01013783          	ld	a5,16(sp)
   189d8:	00078023          	sb	zero,0(a5)
   189dc:	0c813083          	ld	ra,200(sp)
   189e0:	10010113          	addi	sp,sp,256
   189e4:	00008067          	ret

00000000000189e8 <__sread>:
   189e8:	ff010113          	addi	sp,sp,-16
   189ec:	00813023          	sd	s0,0(sp)
   189f0:	00058413          	mv	s0,a1
   189f4:	01259583          	lh	a1,18(a1) # 7ff00012 <__BSS_END__+0x7fedb3f2>
   189f8:	00113423          	sd	ra,8(sp)
   189fc:	431040ef          	jal	ra,1d62c <_read_r>
   18a00:	02054063          	bltz	a0,18a20 <__sread+0x38>
   18a04:	09043783          	ld	a5,144(s0) # ffffffff80000090 <__BSS_END__+0xffffffff7ffdb470>
   18a08:	00813083          	ld	ra,8(sp)
   18a0c:	00a787b3          	add	a5,a5,a0
   18a10:	08f43823          	sd	a5,144(s0)
   18a14:	00013403          	ld	s0,0(sp)
   18a18:	01010113          	addi	sp,sp,16
   18a1c:	00008067          	ret
   18a20:	01045783          	lhu	a5,16(s0)
   18a24:	fffff737          	lui	a4,0xfffff
   18a28:	fff70713          	addi	a4,a4,-1 # ffffffffffffefff <__BSS_END__+0xfffffffffffda3df>
   18a2c:	00e7f7b3          	and	a5,a5,a4
   18a30:	00f41823          	sh	a5,16(s0)
   18a34:	00813083          	ld	ra,8(sp)
   18a38:	00013403          	ld	s0,0(sp)
   18a3c:	01010113          	addi	sp,sp,16
   18a40:	00008067          	ret

0000000000018a44 <__seofread>:
   18a44:	00000513          	li	a0,0
   18a48:	00008067          	ret

0000000000018a4c <__swrite>:
   18a4c:	01059783          	lh	a5,16(a1)
   18a50:	fd010113          	addi	sp,sp,-48
   18a54:	02813023          	sd	s0,32(sp)
   18a58:	00913c23          	sd	s1,24(sp)
   18a5c:	01213823          	sd	s2,16(sp)
   18a60:	01313423          	sd	s3,8(sp)
   18a64:	02113423          	sd	ra,40(sp)
   18a68:	1007f713          	andi	a4,a5,256
   18a6c:	00058413          	mv	s0,a1
   18a70:	00050493          	mv	s1,a0
   18a74:	00060913          	mv	s2,a2
   18a78:	00068993          	mv	s3,a3
   18a7c:	01259583          	lh	a1,18(a1)
   18a80:	02071e63          	bnez	a4,18abc <__swrite+0x70>
   18a84:	fffff737          	lui	a4,0xfffff
   18a88:	fff70713          	addi	a4,a4,-1 # ffffffffffffefff <__BSS_END__+0xfffffffffffda3df>
   18a8c:	00e7f7b3          	and	a5,a5,a4
   18a90:	00f41823          	sh	a5,16(s0)
   18a94:	02013403          	ld	s0,32(sp)
   18a98:	02813083          	ld	ra,40(sp)
   18a9c:	00098693          	mv	a3,s3
   18aa0:	00090613          	mv	a2,s2
   18aa4:	00813983          	ld	s3,8(sp)
   18aa8:	01013903          	ld	s2,16(sp)
   18aac:	00048513          	mv	a0,s1
   18ab0:	01813483          	ld	s1,24(sp)
   18ab4:	03010113          	addi	sp,sp,48
   18ab8:	6c10306f          	j	1c978 <_write_r>
   18abc:	00200693          	li	a3,2
   18ac0:	00000613          	li	a2,0
   18ac4:	0c5040ef          	jal	ra,1d388 <_lseek_r>
   18ac8:	01041783          	lh	a5,16(s0)
   18acc:	01241583          	lh	a1,18(s0)
   18ad0:	fb5ff06f          	j	18a84 <__swrite+0x38>

0000000000018ad4 <__sseek>:
   18ad4:	ff010113          	addi	sp,sp,-16
   18ad8:	00813023          	sd	s0,0(sp)
   18adc:	00058413          	mv	s0,a1
   18ae0:	01259583          	lh	a1,18(a1)
   18ae4:	00113423          	sd	ra,8(sp)
   18ae8:	0a1040ef          	jal	ra,1d388 <_lseek_r>
   18aec:	fff00793          	li	a5,-1
   18af0:	02f50463          	beq	a0,a5,18b18 <__sseek+0x44>
   18af4:	01045783          	lhu	a5,16(s0)
   18af8:	00001737          	lui	a4,0x1
   18afc:	08a43823          	sd	a0,144(s0)
   18b00:	00e7e7b3          	or	a5,a5,a4
   18b04:	00f41823          	sh	a5,16(s0)
   18b08:	00813083          	ld	ra,8(sp)
   18b0c:	00013403          	ld	s0,0(sp)
   18b10:	01010113          	addi	sp,sp,16
   18b14:	00008067          	ret
   18b18:	01045783          	lhu	a5,16(s0)
   18b1c:	fffff737          	lui	a4,0xfffff
   18b20:	fff70713          	addi	a4,a4,-1 # ffffffffffffefff <__BSS_END__+0xfffffffffffda3df>
   18b24:	00e7f7b3          	and	a5,a5,a4
   18b28:	00f41823          	sh	a5,16(s0)
   18b2c:	00813083          	ld	ra,8(sp)
   18b30:	00013403          	ld	s0,0(sp)
   18b34:	01010113          	addi	sp,sp,16
   18b38:	00008067          	ret

0000000000018b3c <__sclose>:
   18b3c:	01259583          	lh	a1,18(a1)
   18b40:	7690306f          	j	1caa8 <_close_r>

0000000000018b44 <strcmp>:
   18b44:	00b56733          	or	a4,a0,a1
   18b48:	fff00393          	li	t2,-1
   18b4c:	00777713          	andi	a4,a4,7
   18b50:	0c071c63          	bnez	a4,18c28 <strcmp+0xe4>
   18b54:	0000c797          	auipc	a5,0xc
   18b58:	00c7b783          	ld	a5,12(a5) # 24b60 <mask>
   18b5c:	00053603          	ld	a2,0(a0)
   18b60:	0005b683          	ld	a3,0(a1)
   18b64:	00f672b3          	and	t0,a2,a5
   18b68:	00f66333          	or	t1,a2,a5
   18b6c:	00f282b3          	add	t0,t0,a5
   18b70:	0062e2b3          	or	t0,t0,t1
   18b74:	0c729e63          	bne	t0,t2,18c50 <strcmp+0x10c>
   18b78:	04d61663          	bne	a2,a3,18bc4 <strcmp+0x80>
   18b7c:	00853603          	ld	a2,8(a0)
   18b80:	0085b683          	ld	a3,8(a1)
   18b84:	00f672b3          	and	t0,a2,a5
   18b88:	00f66333          	or	t1,a2,a5
   18b8c:	00f282b3          	add	t0,t0,a5
   18b90:	0062e2b3          	or	t0,t0,t1
   18b94:	0a729a63          	bne	t0,t2,18c48 <strcmp+0x104>
   18b98:	02d61663          	bne	a2,a3,18bc4 <strcmp+0x80>
   18b9c:	01053603          	ld	a2,16(a0)
   18ba0:	0105b683          	ld	a3,16(a1)
   18ba4:	00f672b3          	and	t0,a2,a5
   18ba8:	00f66333          	or	t1,a2,a5
   18bac:	00f282b3          	add	t0,t0,a5
   18bb0:	0062e2b3          	or	t0,t0,t1
   18bb4:	0a729463          	bne	t0,t2,18c5c <strcmp+0x118>
   18bb8:	01850513          	addi	a0,a0,24
   18bbc:	01858593          	addi	a1,a1,24
   18bc0:	f8d60ee3          	beq	a2,a3,18b5c <strcmp+0x18>
   18bc4:	03061713          	slli	a4,a2,0x30
   18bc8:	03069793          	slli	a5,a3,0x30
   18bcc:	02f71a63          	bne	a4,a5,18c00 <strcmp+0xbc>
   18bd0:	02061713          	slli	a4,a2,0x20
   18bd4:	02069793          	slli	a5,a3,0x20
   18bd8:	02f71463          	bne	a4,a5,18c00 <strcmp+0xbc>
   18bdc:	01061713          	slli	a4,a2,0x10
   18be0:	01069793          	slli	a5,a3,0x10
   18be4:	00f71e63          	bne	a4,a5,18c00 <strcmp+0xbc>
   18be8:	03065713          	srli	a4,a2,0x30
   18bec:	0306d793          	srli	a5,a3,0x30
   18bf0:	40f70533          	sub	a0,a4,a5
   18bf4:	0ff57593          	andi	a1,a0,255
   18bf8:	02059063          	bnez	a1,18c18 <strcmp+0xd4>
   18bfc:	00008067          	ret
   18c00:	03075713          	srli	a4,a4,0x30
   18c04:	0307d793          	srli	a5,a5,0x30
   18c08:	40f70533          	sub	a0,a4,a5
   18c0c:	0ff57593          	andi	a1,a0,255
   18c10:	00059463          	bnez	a1,18c18 <strcmp+0xd4>
   18c14:	00008067          	ret
   18c18:	0ff77713          	andi	a4,a4,255
   18c1c:	0ff7f793          	andi	a5,a5,255
   18c20:	40f70533          	sub	a0,a4,a5
   18c24:	00008067          	ret
   18c28:	00054603          	lbu	a2,0(a0)
   18c2c:	0005c683          	lbu	a3,0(a1)
   18c30:	00150513          	addi	a0,a0,1
   18c34:	00158593          	addi	a1,a1,1
   18c38:	00d61463          	bne	a2,a3,18c40 <strcmp+0xfc>
   18c3c:	fe0616e3          	bnez	a2,18c28 <strcmp+0xe4>
   18c40:	40d60533          	sub	a0,a2,a3
   18c44:	00008067          	ret
   18c48:	00850513          	addi	a0,a0,8
   18c4c:	00858593          	addi	a1,a1,8
   18c50:	fcd61ce3          	bne	a2,a3,18c28 <strcmp+0xe4>
   18c54:	00000513          	li	a0,0
   18c58:	00008067          	ret
   18c5c:	01050513          	addi	a0,a0,16
   18c60:	01058593          	addi	a1,a1,16
   18c64:	fcd612e3          	bne	a2,a3,18c28 <strcmp+0xe4>
   18c68:	00000513          	li	a0,0
   18c6c:	00008067          	ret

0000000000018c70 <strcpy>:
   18c70:	00b567b3          	or	a5,a0,a1
   18c74:	0077f793          	andi	a5,a5,7
   18c78:	0a079863          	bnez	a5,18d28 <strcpy+0xb8>
   18c7c:	0000c797          	auipc	a5,0xc
   18c80:	ee478793          	addi	a5,a5,-284 # 24b60 <mask>
   18c84:	0007b683          	ld	a3,0(a5)
   18c88:	0005b703          	ld	a4,0(a1)
   18c8c:	fff00613          	li	a2,-1
   18c90:	00d777b3          	and	a5,a4,a3
   18c94:	00d787b3          	add	a5,a5,a3
   18c98:	00e7e7b3          	or	a5,a5,a4
   18c9c:	00d7e7b3          	or	a5,a5,a3
   18ca0:	0ac79263          	bne	a5,a2,18d44 <strcpy+0xd4>
   18ca4:	00050613          	mv	a2,a0
   18ca8:	fff00813          	li	a6,-1
   18cac:	00860613          	addi	a2,a2,8 # 3fe00008 <__BSS_END__+0x3fddb3e8>
   18cb0:	00858593          	addi	a1,a1,8
   18cb4:	fee63c23          	sd	a4,-8(a2)
   18cb8:	0005b703          	ld	a4,0(a1)
   18cbc:	00d777b3          	and	a5,a4,a3
   18cc0:	00d787b3          	add	a5,a5,a3
   18cc4:	00e7e7b3          	or	a5,a5,a4
   18cc8:	00d7e7b3          	or	a5,a5,a3
   18ccc:	ff0780e3          	beq	a5,a6,18cac <strcpy+0x3c>
   18cd0:	0005c783          	lbu	a5,0(a1)
   18cd4:	0015c703          	lbu	a4,1(a1)
   18cd8:	0025c683          	lbu	a3,2(a1)
   18cdc:	00f60023          	sb	a5,0(a2)
   18ce0:	04078263          	beqz	a5,18d24 <strcpy+0xb4>
   18ce4:	00e600a3          	sb	a4,1(a2)
   18ce8:	02070e63          	beqz	a4,18d24 <strcpy+0xb4>
   18cec:	0035c783          	lbu	a5,3(a1)
   18cf0:	00d60123          	sb	a3,2(a2)
   18cf4:	02068863          	beqz	a3,18d24 <strcpy+0xb4>
   18cf8:	0045c703          	lbu	a4,4(a1)
   18cfc:	00f601a3          	sb	a5,3(a2)
   18d00:	02078263          	beqz	a5,18d24 <strcpy+0xb4>
   18d04:	0055c783          	lbu	a5,5(a1)
   18d08:	00e60223          	sb	a4,4(a2)
   18d0c:	00070c63          	beqz	a4,18d24 <strcpy+0xb4>
   18d10:	0065c703          	lbu	a4,6(a1)
   18d14:	00f602a3          	sb	a5,5(a2)
   18d18:	00078663          	beqz	a5,18d24 <strcpy+0xb4>
   18d1c:	00e60323          	sb	a4,6(a2)
   18d20:	02071663          	bnez	a4,18d4c <strcpy+0xdc>
   18d24:	00008067          	ret
   18d28:	00050793          	mv	a5,a0
   18d2c:	0005c703          	lbu	a4,0(a1)
   18d30:	00178793          	addi	a5,a5,1
   18d34:	00158593          	addi	a1,a1,1
   18d38:	fee78fa3          	sb	a4,-1(a5)
   18d3c:	fe0718e3          	bnez	a4,18d2c <strcpy+0xbc>
   18d40:	00008067          	ret
   18d44:	00050613          	mv	a2,a0
   18d48:	f89ff06f          	j	18cd0 <strcpy+0x60>
   18d4c:	000603a3          	sb	zero,7(a2)
   18d50:	00008067          	ret

0000000000018d54 <strlen>:
   18d54:	00757793          	andi	a5,a0,7
   18d58:	00050713          	mv	a4,a0
   18d5c:	06079e63          	bnez	a5,18dd8 <strlen+0x84>
   18d60:	0000c797          	auipc	a5,0xc
   18d64:	e0078793          	addi	a5,a5,-512 # 24b60 <mask>
   18d68:	0007b683          	ld	a3,0(a5)
   18d6c:	fff00593          	li	a1,-1
   18d70:	00870713          	addi	a4,a4,8
   18d74:	ff873603          	ld	a2,-8(a4)
   18d78:	00d677b3          	and	a5,a2,a3
   18d7c:	00d787b3          	add	a5,a5,a3
   18d80:	00c7e7b3          	or	a5,a5,a2
   18d84:	00d7e7b3          	or	a5,a5,a3
   18d88:	feb784e3          	beq	a5,a1,18d70 <strlen+0x1c>
   18d8c:	ff874783          	lbu	a5,-8(a4)
   18d90:	40a706b3          	sub	a3,a4,a0
   18d94:	06078463          	beqz	a5,18dfc <strlen+0xa8>
   18d98:	ff974783          	lbu	a5,-7(a4)
   18d9c:	04078c63          	beqz	a5,18df4 <strlen+0xa0>
   18da0:	ffa74783          	lbu	a5,-6(a4)
   18da4:	06078463          	beqz	a5,18e0c <strlen+0xb8>
   18da8:	ffb74783          	lbu	a5,-5(a4)
   18dac:	04078c63          	beqz	a5,18e04 <strlen+0xb0>
   18db0:	ffc74603          	lbu	a2,-4(a4)
   18db4:	ffd74583          	lbu	a1,-3(a4)
   18db8:	ffe74783          	lbu	a5,-2(a4)
   18dbc:	04060c63          	beqz	a2,18e14 <strlen+0xc0>
   18dc0:	04058e63          	beqz	a1,18e1c <strlen+0xc8>
   18dc4:	00f03533          	snez	a0,a5
   18dc8:	00d50533          	add	a0,a0,a3
   18dcc:	ffe50513          	addi	a0,a0,-2
   18dd0:	00008067          	ret
   18dd4:	f80686e3          	beqz	a3,18d60 <strlen+0xc>
   18dd8:	00074783          	lbu	a5,0(a4)
   18ddc:	00170713          	addi	a4,a4,1
   18de0:	00777693          	andi	a3,a4,7
   18de4:	fe0798e3          	bnez	a5,18dd4 <strlen+0x80>
   18de8:	40a70733          	sub	a4,a4,a0
   18dec:	fff70513          	addi	a0,a4,-1
   18df0:	00008067          	ret
   18df4:	ff968513          	addi	a0,a3,-7
   18df8:	00008067          	ret
   18dfc:	ff868513          	addi	a0,a3,-8
   18e00:	00008067          	ret
   18e04:	ffb68513          	addi	a0,a3,-5
   18e08:	00008067          	ret
   18e0c:	ffa68513          	addi	a0,a3,-6
   18e10:	00008067          	ret
   18e14:	ffc68513          	addi	a0,a3,-4
   18e18:	00008067          	ret
   18e1c:	ffd68513          	addi	a0,a3,-3
   18e20:	00008067          	ret

0000000000018e24 <strncpy>:
   18e24:	00a5e7b3          	or	a5,a1,a0
   18e28:	0077f793          	andi	a5,a5,7
   18e2c:	0a079063          	bnez	a5,18ecc <strncpy+0xa8>
   18e30:	00700793          	li	a5,7
   18e34:	08c7fc63          	bgeu	a5,a2,18ecc <strncpy+0xa8>
   18e38:	0000c797          	auipc	a5,0xc
   18e3c:	d0078793          	addi	a5,a5,-768 # 24b38 <__SDATA_BEGIN__>
   18e40:	0007b303          	ld	t1,0(a5)
   18e44:	0000c797          	auipc	a5,0xc
   18e48:	cfc78793          	addi	a5,a5,-772 # 24b40 <__SDATA_BEGIN__+0x8>
   18e4c:	0007b883          	ld	a7,0(a5)
   18e50:	00050713          	mv	a4,a0
   18e54:	00700e13          	li	t3,7
   18e58:	0005b683          	ld	a3,0(a1)
   18e5c:	006687b3          	add	a5,a3,t1
   18e60:	fff6c813          	not	a6,a3
   18e64:	0107f7b3          	and	a5,a5,a6
   18e68:	0117f7b3          	and	a5,a5,a7
   18e6c:	00079e63          	bnez	a5,18e88 <strncpy+0x64>
   18e70:	00870713          	addi	a4,a4,8
   18e74:	ff860613          	addi	a2,a2,-8
   18e78:	fed73c23          	sd	a3,-8(a4)
   18e7c:	00858593          	addi	a1,a1,8
   18e80:	fcce6ce3          	bltu	t3,a2,18e58 <strncpy+0x34>
   18e84:	06060463          	beqz	a2,18eec <strncpy+0xc8>
   18e88:	0005c803          	lbu	a6,0(a1)
   18e8c:	fff60693          	addi	a3,a2,-1
   18e90:	00158593          	addi	a1,a1,1
   18e94:	01070023          	sb	a6,0(a4)
   18e98:	00170793          	addi	a5,a4,1
   18e9c:	02080c63          	beqz	a6,18ed4 <strncpy+0xb0>
   18ea0:	00c70633          	add	a2,a4,a2
   18ea4:	00d706b3          	add	a3,a4,a3
   18ea8:	0140006f          	j	18ebc <strncpy+0x98>
   18eac:	fff5c703          	lbu	a4,-1(a1)
   18eb0:	00178793          	addi	a5,a5,1
   18eb4:	fee78fa3          	sb	a4,-1(a5)
   18eb8:	02070063          	beqz	a4,18ed8 <strncpy+0xb4>
   18ebc:	00158593          	addi	a1,a1,1
   18ec0:	40f68833          	sub	a6,a3,a5
   18ec4:	fec794e3          	bne	a5,a2,18eac <strncpy+0x88>
   18ec8:	00008067          	ret
   18ecc:	00050713          	mv	a4,a0
   18ed0:	fb5ff06f          	j	18e84 <strncpy+0x60>
   18ed4:	00068813          	mv	a6,a3
   18ed8:	01078733          	add	a4,a5,a6
   18edc:	00080a63          	beqz	a6,18ef0 <strncpy+0xcc>
   18ee0:	00178793          	addi	a5,a5,1
   18ee4:	fe078fa3          	sb	zero,-1(a5)
   18ee8:	fee79ce3          	bne	a5,a4,18ee0 <strncpy+0xbc>
   18eec:	00008067          	ret
   18ef0:	00008067          	ret

0000000000018ef4 <_svfprintf_r>:
   18ef4:	d8010113          	addi	sp,sp,-640
   18ef8:	26113c23          	sd	ra,632(sp)
   18efc:	25613023          	sd	s6,576(sp)
   18f00:	23813823          	sd	s8,560(sp)
   18f04:	23a13023          	sd	s10,544(sp)
   18f08:	00058c13          	mv	s8,a1
   18f0c:	00060d13          	mv	s10,a2
   18f10:	00d13823          	sd	a3,16(sp)
   18f14:	26813823          	sd	s0,624(sp)
   18f18:	26913423          	sd	s1,616(sp)
   18f1c:	27213023          	sd	s2,608(sp)
   18f20:	25313c23          	sd	s3,600(sp)
   18f24:	25413823          	sd	s4,592(sp)
   18f28:	25513423          	sd	s5,584(sp)
   18f2c:	23713c23          	sd	s7,568(sp)
   18f30:	23913423          	sd	s9,552(sp)
   18f34:	21b13c23          	sd	s11,536(sp)
   18f38:	00050b13          	mv	s6,a0
   18f3c:	ae1fd0ef          	jal	ra,16a1c <_localeconv_r>
   18f40:	00053783          	ld	a5,0(a0)
   18f44:	00078513          	mv	a0,a5
   18f48:	08f13023          	sd	a5,128(sp)
   18f4c:	e09ff0ef          	jal	ra,18d54 <strlen>
   18f50:	010c5783          	lhu	a5,16(s8)
   18f54:	06a13c23          	sd	a0,120(sp)
   18f58:	10013023          	sd	zero,256(sp)
   18f5c:	10013423          	sd	zero,264(sp)
   18f60:	0807f793          	andi	a5,a5,128
   18f64:	00078863          	beqz	a5,18f74 <_svfprintf_r+0x80>
   18f68:	018c3783          	ld	a5,24(s8)
   18f6c:	00079463          	bnez	a5,18f74 <_svfprintf_r+0x80>
   18f70:	5700106f          	j	1a4e0 <_svfprintf_r+0x15ec>
   18f74:	000d4783          	lbu	a5,0(s10)
   18f78:	19010b93          	addi	s7,sp,400
   18f7c:	11713823          	sd	s7,272(sp)
   18f80:	12013023          	sd	zero,288(sp)
   18f84:	10012c23          	sw	zero,280(sp)
   18f88:	02013423          	sd	zero,40(sp)
   18f8c:	02013823          	sd	zero,48(sp)
   18f90:	08013823          	sd	zero,144(sp)
   18f94:	06013823          	sd	zero,112(sp)
   18f98:	08013423          	sd	zero,136(sp)
   18f9c:	08013c23          	sd	zero,152(sp)
   18fa0:	00013423          	sd	zero,8(sp)
   18fa4:	000b8313          	mv	t1,s7
   18fa8:	01000d93          	li	s11,16
   18fac:	00009997          	auipc	s3,0x9
   18fb0:	58498993          	addi	s3,s3,1412 # 22530 <zeroes.4526>
   18fb4:	6a078863          	beqz	a5,19664 <_svfprintf_r+0x770>
   18fb8:	02500693          	li	a3,37
   18fbc:	00d79463          	bne	a5,a3,18fc4 <_svfprintf_r+0xd0>
   18fc0:	41c0106f          	j	1a3dc <_svfprintf_r+0x14e8>
   18fc4:	000d0413          	mv	s0,s10
   18fc8:	00c0006f          	j	18fd4 <_svfprintf_r+0xe0>
   18fcc:	0cd78463          	beq	a5,a3,19094 <_svfprintf_r+0x1a0>
   18fd0:	00048413          	mv	s0,s1
   18fd4:	00144783          	lbu	a5,1(s0)
   18fd8:	00140493          	addi	s1,s0,1
   18fdc:	fe0798e3          	bnez	a5,18fcc <_svfprintf_r+0xd8>
   18fe0:	41a4893b          	subw	s2,s1,s10
   18fe4:	68090063          	beqz	s2,19664 <_svfprintf_r+0x770>
   18fe8:	12013683          	ld	a3,288(sp)
   18fec:	11812783          	lw	a5,280(sp)
   18ff0:	01a33023          	sd	s10,0(t1) # ffffffff80000000 <__BSS_END__+0xffffffff7ffdb3e0>
   18ff4:	012686b3          	add	a3,a3,s2
   18ff8:	0017879b          	addiw	a5,a5,1
   18ffc:	01233423          	sd	s2,8(t1)
   19000:	12d13023          	sd	a3,288(sp)
   19004:	10f12c23          	sw	a5,280(sp)
   19008:	0007869b          	sext.w	a3,a5
   1900c:	00700793          	li	a5,7
   19010:	01030313          	addi	t1,t1,16
   19014:	08d7c663          	blt	a5,a3,190a0 <_svfprintf_r+0x1ac>
   19018:	00813703          	ld	a4,8(sp)
   1901c:	00144783          	lbu	a5,1(s0)
   19020:	00e9073b          	addw	a4,s2,a4
   19024:	00e13423          	sd	a4,8(sp)
   19028:	62078e63          	beqz	a5,19664 <_svfprintf_r+0x770>
   1902c:	00148913          	addi	s2,s1,1
   19030:	0014c483          	lbu	s1,1(s1)
   19034:	0c010fa3          	sb	zero,223(sp)
   19038:	fff00e93          	li	t4,-1
   1903c:	00000a13          	li	s4,0
   19040:	00000413          	li	s0,0
   19044:	00900a93          	li	s5,9
   19048:	02a00c93          	li	s9,42
   1904c:	00190913          	addi	s2,s2,1
   19050:	0004849b          	sext.w	s1,s1
   19054:	05a00613          	li	a2,90
   19058:	fe04879b          	addiw	a5,s1,-32
   1905c:	0007869b          	sext.w	a3,a5
   19060:	1ad66e63          	bltu	a2,a3,1921c <_svfprintf_r+0x328>
   19064:	02079793          	slli	a5,a5,0x20
   19068:	00009717          	auipc	a4,0x9
   1906c:	34870713          	addi	a4,a4,840 # 223b0 <__mprec_bigtens+0x28>
   19070:	01e7d793          	srli	a5,a5,0x1e
   19074:	00e787b3          	add	a5,a5,a4
   19078:	0007a783          	lw	a5,0(a5)
   1907c:	00e787b3          	add	a5,a5,a4
   19080:	00078067          	jr	a5
   19084:	01046413          	ori	s0,s0,16
   19088:	0004041b          	sext.w	s0,s0
   1908c:	00094483          	lbu	s1,0(s2)
   19090:	fbdff06f          	j	1904c <_svfprintf_r+0x158>
   19094:	41a4893b          	subw	s2,s1,s10
   19098:	f8090ae3          	beqz	s2,1902c <_svfprintf_r+0x138>
   1909c:	f4dff06f          	j	18fe8 <_svfprintf_r+0xf4>
   190a0:	11010613          	addi	a2,sp,272
   190a4:	000c0593          	mv	a1,s8
   190a8:	000b0513          	mv	a0,s6
   190ac:	4bd040ef          	jal	ra,1dd68 <__ssprint_r>
   190b0:	02051a63          	bnez	a0,190e4 <_svfprintf_r+0x1f0>
   190b4:	000b8313          	mv	t1,s7
   190b8:	f61ff06f          	j	19018 <_svfprintf_r+0x124>
   190bc:	11010613          	addi	a2,sp,272
   190c0:	000c0593          	mv	a1,s8
   190c4:	000b0513          	mv	a0,s6
   190c8:	4a1040ef          	jal	ra,1dd68 <__ssprint_r>
   190cc:	56050863          	beqz	a0,1963c <_svfprintf_r+0x748>
   190d0:	02013783          	ld	a5,32(sp)
   190d4:	00078863          	beqz	a5,190e4 <_svfprintf_r+0x1f0>
   190d8:	02013583          	ld	a1,32(sp)
   190dc:	000b0513          	mv	a0,s6
   190e0:	885fa0ef          	jal	ra,13964 <_free_r>
   190e4:	010c5783          	lhu	a5,16(s8)
   190e8:	0407f793          	andi	a5,a5,64
   190ec:	00078463          	beqz	a5,190f4 <_svfprintf_r+0x200>
   190f0:	2c80206f          	j	1b3b8 <_svfprintf_r+0x24c4>
   190f4:	27813083          	ld	ra,632(sp)
   190f8:	27013403          	ld	s0,624(sp)
   190fc:	00813503          	ld	a0,8(sp)
   19100:	26813483          	ld	s1,616(sp)
   19104:	26013903          	ld	s2,608(sp)
   19108:	25813983          	ld	s3,600(sp)
   1910c:	25013a03          	ld	s4,592(sp)
   19110:	24813a83          	ld	s5,584(sp)
   19114:	24013b03          	ld	s6,576(sp)
   19118:	23813b83          	ld	s7,568(sp)
   1911c:	23013c03          	ld	s8,560(sp)
   19120:	22813c83          	ld	s9,552(sp)
   19124:	22013d03          	ld	s10,544(sp)
   19128:	21813d83          	ld	s11,536(sp)
   1912c:	28010113          	addi	sp,sp,640
   19130:	00008067          	ret
   19134:	01013703          	ld	a4,16(sp)
   19138:	00009797          	auipc	a5,0x9
   1913c:	e5878793          	addi	a5,a5,-424 # 21f90 <zeroes.4541+0x60>
   19140:	02f13823          	sd	a5,48(sp)
   19144:	02047793          	andi	a5,s0,32
   19148:	00870693          	addi	a3,a4,8
   1914c:	10078463          	beqz	a5,19254 <_svfprintf_r+0x360>
   19150:	00073a83          	ld	s5,0(a4)
   19154:	00147713          	andi	a4,s0,1
   19158:	00070e63          	beqz	a4,19174 <_svfprintf_r+0x280>
   1915c:	000a8c63          	beqz	s5,19174 <_svfprintf_r+0x280>
   19160:	00246413          	ori	s0,s0,2
   19164:	03000713          	li	a4,48
   19168:	0ee10023          	sb	a4,224(sp)
   1916c:	0e9100a3          	sb	s1,225(sp)
   19170:	0004041b          	sext.w	s0,s0
   19174:	bff47813          	andi	a6,s0,-1025
   19178:	0008081b          	sext.w	a6,a6
   1917c:	00d13823          	sd	a3,16(sp)
   19180:	00200713          	li	a4,2
   19184:	0c010fa3          	sb	zero,223(sp)
   19188:	fff00693          	li	a3,-1
   1918c:	30de8a63          	beq	t4,a3,194a0 <_svfprintf_r+0x5ac>
   19190:	f7f87413          	andi	s0,a6,-129
   19194:	0004041b          	sext.w	s0,s0
   19198:	600a98e3          	bnez	s5,19fa8 <_svfprintf_r+0x10b4>
   1919c:	000e8463          	beqz	t4,191a4 <_svfprintf_r+0x2b0>
   191a0:	7ed0006f          	j	1a18c <_svfprintf_r+0x1298>
   191a4:	2a071063          	bnez	a4,19444 <_svfprintf_r+0x550>
   191a8:	00187c93          	andi	s9,a6,1
   191ac:	18c10d13          	addi	s10,sp,396
   191b0:	000c8463          	beqz	s9,191b8 <_svfprintf_r+0x2c4>
   191b4:	2800106f          	j	1a434 <_svfprintf_r+0x1540>
   191b8:	000c8a9b          	sext.w	s5,s9
   191bc:	01dcd463          	bge	s9,t4,191c4 <_svfprintf_r+0x2d0>
   191c0:	000e8a9b          	sext.w	s5,t4
   191c4:	0df14783          	lbu	a5,223(sp)
   191c8:	02013023          	sd	zero,32(sp)
   191cc:	04013c23          	sd	zero,88(sp)
   191d0:	06013423          	sd	zero,104(sp)
   191d4:	06013023          	sd	zero,96(sp)
   191d8:	36078063          	beqz	a5,19538 <_svfprintf_r+0x644>
   191dc:	001a8a9b          	addiw	s5,s5,1
   191e0:	3580006f          	j	19538 <_svfprintf_r+0x644>
   191e4:	00000a13          	li	s4,0
   191e8:	00190913          	addi	s2,s2,1
   191ec:	fff94683          	lbu	a3,-1(s2)
   191f0:	002a179b          	slliw	a5,s4,0x2
   191f4:	01478a3b          	addw	s4,a5,s4
   191f8:	fd04849b          	addiw	s1,s1,-48
   191fc:	001a1a1b          	slliw	s4,s4,0x1
   19200:	fd06879b          	addiw	a5,a3,-48
   19204:	01448a3b          	addw	s4,s1,s4
   19208:	0006849b          	sext.w	s1,a3
   1920c:	fcfafee3          	bgeu	s5,a5,191e8 <_svfprintf_r+0x2f4>
   19210:	fe04879b          	addiw	a5,s1,-32
   19214:	0007869b          	sext.w	a3,a5
   19218:	e4d676e3          	bgeu	a2,a3,19064 <_svfprintf_r+0x170>
   1921c:	44048463          	beqz	s1,19664 <_svfprintf_r+0x770>
   19220:	12910423          	sb	s1,296(sp)
   19224:	0c010fa3          	sb	zero,223(sp)
   19228:	00100a93          	li	s5,1
   1922c:	00100c93          	li	s9,1
   19230:	12810d13          	addi	s10,sp,296
   19234:	2f00006f          	j	19524 <_svfprintf_r+0x630>
   19238:	01013703          	ld	a4,16(sp)
   1923c:	00009797          	auipc	a5,0x9
   19240:	d6c78793          	addi	a5,a5,-660 # 21fa8 <zeroes.4541+0x78>
   19244:	02f13823          	sd	a5,48(sp)
   19248:	02047793          	andi	a5,s0,32
   1924c:	00870693          	addi	a3,a4,8
   19250:	f00790e3          	bnez	a5,19150 <_svfprintf_r+0x25c>
   19254:	01047793          	andi	a5,s0,16
   19258:	00078463          	beqz	a5,19260 <_svfprintf_r+0x36c>
   1925c:	2200106f          	j	1a47c <_svfprintf_r+0x1588>
   19260:	01013783          	ld	a5,16(sp)
   19264:	04047713          	andi	a4,s0,64
   19268:	0007a783          	lw	a5,0(a5)
   1926c:	00071463          	bnez	a4,19274 <_svfprintf_r+0x380>
   19270:	0610106f          	j	1aad0 <_svfprintf_r+0x1bdc>
   19274:	03079a93          	slli	s5,a5,0x30
   19278:	030ada93          	srli	s5,s5,0x30
   1927c:	ed9ff06f          	j	19154 <_svfprintf_r+0x260>
   19280:	00094483          	lbu	s1,0(s2)
   19284:	00446413          	ori	s0,s0,4
   19288:	0004041b          	sext.w	s0,s0
   1928c:	dc1ff06f          	j	1904c <_svfprintf_r+0x158>
   19290:	00094483          	lbu	s1,0(s2)
   19294:	00190793          	addi	a5,s2,1
   19298:	01949463          	bne	s1,s9,192a0 <_svfprintf_r+0x3ac>
   1929c:	2d80206f          	j	1b574 <_svfprintf_r+0x2680>
   192a0:	fd04869b          	addiw	a3,s1,-48
   192a4:	00078913          	mv	s2,a5
   192a8:	00000e93          	li	t4,0
   192ac:	dadae6e3          	bltu	s5,a3,19058 <_svfprintf_r+0x164>
   192b0:	00190913          	addi	s2,s2,1
   192b4:	002e979b          	slliw	a5,t4,0x2
   192b8:	fff94483          	lbu	s1,-1(s2)
   192bc:	01d78ebb          	addw	t4,a5,t4
   192c0:	001e9e9b          	slliw	t4,t4,0x1
   192c4:	00de8ebb          	addw	t4,t4,a3
   192c8:	fd04869b          	addiw	a3,s1,-48
   192cc:	fedaf2e3          	bgeu	s5,a3,192b0 <_svfprintf_r+0x3bc>
   192d0:	d89ff06f          	j	19058 <_svfprintf_r+0x164>
   192d4:	08046413          	ori	s0,s0,128
   192d8:	0004041b          	sext.w	s0,s0
   192dc:	00094483          	lbu	s1,0(s2)
   192e0:	d6dff06f          	j	1904c <_svfprintf_r+0x158>
   192e4:	01013783          	ld	a5,16(sp)
   192e8:	01046813          	ori	a6,s0,16
   192ec:	0008081b          	sext.w	a6,a6
   192f0:	00878693          	addi	a3,a5,8
   192f4:	01013783          	ld	a5,16(sp)
   192f8:	00100713          	li	a4,1
   192fc:	0007ba83          	ld	s5,0(a5)
   19300:	00d13823          	sd	a3,16(sp)
   19304:	e81ff06f          	j	19184 <_svfprintf_r+0x290>
   19308:	01013783          	ld	a5,16(sp)
   1930c:	0c010fa3          	sb	zero,223(sp)
   19310:	0007bd03          	ld	s10,0(a5)
   19314:	00878693          	addi	a3,a5,8
   19318:	000d1463          	bnez	s10,19320 <_svfprintf_r+0x42c>
   1931c:	1ec0106f          	j	1a508 <_svfprintf_r+0x1614>
   19320:	fff00793          	li	a5,-1
   19324:	00fe9463          	bne	t4,a5,1932c <_svfprintf_r+0x438>
   19328:	6900106f          	j	1a9b8 <_svfprintf_r+0x1ac4>
   1932c:	000e8613          	mv	a2,t4
   19330:	00000593          	li	a1,0
   19334:	000d0513          	mv	a0,s10
   19338:	02d13c23          	sd	a3,56(sp)
   1933c:	00613c23          	sd	t1,24(sp)
   19340:	01d13823          	sd	t4,16(sp)
   19344:	a3cfe0ef          	jal	ra,17580 <memchr>
   19348:	02a13023          	sd	a0,32(sp)
   1934c:	01013e83          	ld	t4,16(sp)
   19350:	01813303          	ld	t1,24(sp)
   19354:	03813683          	ld	a3,56(sp)
   19358:	00051463          	bnez	a0,19360 <_svfprintf_r+0x46c>
   1935c:	3a10106f          	j	1aefc <_svfprintf_r+0x2008>
   19360:	02013783          	ld	a5,32(sp)
   19364:	00d13823          	sd	a3,16(sp)
   19368:	02013023          	sd	zero,32(sp)
   1936c:	41a78cbb          	subw	s9,a5,s10
   19370:	fffcca93          	not	s5,s9
   19374:	0df14783          	lbu	a5,223(sp)
   19378:	43fada93          	srai	s5,s5,0x3f
   1937c:	015cfab3          	and	s5,s9,s5
   19380:	04013c23          	sd	zero,88(sp)
   19384:	06013423          	sd	zero,104(sp)
   19388:	06013023          	sd	zero,96(sp)
   1938c:	000a8a9b          	sext.w	s5,s5
   19390:	00000e93          	li	t4,0
   19394:	e40794e3          	bnez	a5,191dc <_svfprintf_r+0x2e8>
   19398:	1a00006f          	j	19538 <_svfprintf_r+0x644>
   1939c:	01013703          	ld	a4,16(sp)
   193a0:	01046813          	ori	a6,s0,16
   193a4:	0008041b          	sext.w	s0,a6
   193a8:	00870713          	addi	a4,a4,8
   193ac:	01013783          	ld	a5,16(sp)
   193b0:	0007ba83          	ld	s5,0(a5)
   193b4:	00e13823          	sd	a4,16(sp)
   193b8:	bff47813          	andi	a6,s0,-1025
   193bc:	0008081b          	sext.w	a6,a6
   193c0:	00000713          	li	a4,0
   193c4:	dc1ff06f          	j	19184 <_svfprintf_r+0x290>
   193c8:	00094483          	lbu	s1,0(s2)
   193cc:	06800793          	li	a5,104
   193d0:	00f49463          	bne	s1,a5,193d8 <_svfprintf_r+0x4e4>
   193d4:	0e40106f          	j	1a4b8 <_svfprintf_r+0x15c4>
   193d8:	04046413          	ori	s0,s0,64
   193dc:	0004041b          	sext.w	s0,s0
   193e0:	c6dff06f          	j	1904c <_svfprintf_r+0x158>
   193e4:	01013703          	ld	a4,16(sp)
   193e8:	02047793          	andi	a5,s0,32
   193ec:	00870693          	addi	a3,a4,8
   193f0:	00078463          	beqz	a5,193f8 <_svfprintf_r+0x504>
   193f4:	0500106f          	j	1a444 <_svfprintf_r+0x1550>
   193f8:	01047793          	andi	a5,s0,16
   193fc:	00078463          	beqz	a5,19404 <_svfprintf_r+0x510>
   19400:	0440106f          	j	1a444 <_svfprintf_r+0x1550>
   19404:	04047793          	andi	a5,s0,64
   19408:	00079463          	bnez	a5,19410 <_svfprintf_r+0x51c>
   1940c:	7100106f          	j	1ab1c <_svfprintf_r+0x1c28>
   19410:	01013783          	ld	a5,16(sp)
   19414:	00040813          	mv	a6,s0
   19418:	00d13823          	sd	a3,16(sp)
   1941c:	00079a83          	lh	s5,0(a5)
   19420:	000a8713          	mv	a4,s5
   19424:	06074263          	bltz	a4,19488 <_svfprintf_r+0x594>
   19428:	fff00713          	li	a4,-1
   1942c:	0aee80e3          	beq	t4,a4,19ccc <_svfprintf_r+0xdd8>
   19430:	f7f87813          	andi	a6,a6,-129
   19434:	0008041b          	sext.w	s0,a6
   19438:	080a98e3          	bnez	s5,19cc8 <_svfprintf_r+0xdd4>
   1943c:	000e8463          	beqz	t4,19444 <_svfprintf_r+0x550>
   19440:	0bd0106f          	j	1acfc <_svfprintf_r+0x1e08>
   19444:	00000e93          	li	t4,0
   19448:	00000c93          	li	s9,0
   1944c:	18c10d13          	addi	s10,sp,396
   19450:	d69ff06f          	j	191b8 <_svfprintf_r+0x2c4>
   19454:	00846413          	ori	s0,s0,8
   19458:	0004041b          	sext.w	s0,s0
   1945c:	00094483          	lbu	s1,0(s2)
   19460:	bedff06f          	j	1904c <_svfprintf_r+0x158>
   19464:	01013783          	ld	a5,16(sp)
   19468:	01046813          	ori	a6,s0,16
   1946c:	0008081b          	sext.w	a6,a6
   19470:	00878693          	addi	a3,a5,8
   19474:	01013783          	ld	a5,16(sp)
   19478:	0007b703          	ld	a4,0(a5)
   1947c:	00d13823          	sd	a3,16(sp)
   19480:	00070a93          	mv	s5,a4
   19484:	fa0752e3          	bgez	a4,19428 <_svfprintf_r+0x534>
   19488:	02d00713          	li	a4,45
   1948c:	0ce10fa3          	sb	a4,223(sp)
   19490:	fff00693          	li	a3,-1
   19494:	41500ab3          	neg	s5,s5
   19498:	00100713          	li	a4,1
   1949c:	cede9ae3          	bne	t4,a3,19190 <_svfprintf_r+0x29c>
   194a0:	00100693          	li	a3,1
   194a4:	02d704e3          	beq	a4,a3,19ccc <_svfprintf_r+0xdd8>
   194a8:	00200693          	li	a3,2
   194ac:	4ed70ae3          	beq	a4,a3,1a1a0 <_svfprintf_r+0x12ac>
   194b0:	18c10c93          	addi	s9,sp,396
   194b4:	000c8613          	mv	a2,s9
   194b8:	0080006f          	j	194c0 <_svfprintf_r+0x5cc>
   194bc:	000d0613          	mv	a2,s10
   194c0:	007af693          	andi	a3,s5,7
   194c4:	03068693          	addi	a3,a3,48
   194c8:	fed60fa3          	sb	a3,-1(a2)
   194cc:	003ada93          	srli	s5,s5,0x3
   194d0:	fff60d13          	addi	s10,a2,-1
   194d4:	fe0a94e3          	bnez	s5,194bc <_svfprintf_r+0x5c8>
   194d8:	00187793          	andi	a5,a6,1
   194dc:	020780e3          	beqz	a5,19cfc <_svfprintf_r+0xe08>
   194e0:	03000793          	li	a5,48
   194e4:	00f68ce3          	beq	a3,a5,19cfc <_svfprintf_r+0xe08>
   194e8:	ffe60613          	addi	a2,a2,-2
   194ec:	fefd0fa3          	sb	a5,-1(s10)
   194f0:	40cc8cbb          	subw	s9,s9,a2
   194f4:	00080413          	mv	s0,a6
   194f8:	00060d13          	mv	s10,a2
   194fc:	cbdff06f          	j	191b8 <_svfprintf_r+0x2c4>
   19500:	01013703          	ld	a4,16(sp)
   19504:	0c010fa3          	sb	zero,223(sp)
   19508:	00100a93          	li	s5,1
   1950c:	00072783          	lw	a5,0(a4)
   19510:	00870713          	addi	a4,a4,8
   19514:	00e13823          	sd	a4,16(sp)
   19518:	12f10423          	sb	a5,296(sp)
   1951c:	00100c93          	li	s9,1
   19520:	12810d13          	addi	s10,sp,296
   19524:	02013023          	sd	zero,32(sp)
   19528:	00000e93          	li	t4,0
   1952c:	04013c23          	sd	zero,88(sp)
   19530:	06013423          	sd	zero,104(sp)
   19534:	06013023          	sd	zero,96(sp)
   19538:	00247f13          	andi	t5,s0,2
   1953c:	000f0f1b          	sext.w	t5,t5
   19540:	000f0463          	beqz	t5,19548 <_svfprintf_r+0x654>
   19544:	002a8a9b          	addiw	s5,s5,2
   19548:	08447f93          	andi	t6,s0,132
   1954c:	12013783          	ld	a5,288(sp)
   19550:	000f9663          	bnez	t6,1955c <_svfprintf_r+0x668>
   19554:	415a083b          	subw	a6,s4,s5
   19558:	25004ce3          	bgtz	a6,19fb0 <_svfprintf_r+0x10bc>
   1955c:	0df14683          	lbu	a3,223(sp)
   19560:	02068c63          	beqz	a3,19598 <_svfprintf_r+0x6a4>
   19564:	11812683          	lw	a3,280(sp)
   19568:	0df10613          	addi	a2,sp,223
   1956c:	00c33023          	sd	a2,0(t1)
   19570:	0016869b          	addiw	a3,a3,1
   19574:	00100613          	li	a2,1
   19578:	00178793          	addi	a5,a5,1
   1957c:	00c33423          	sd	a2,8(t1)
   19580:	10d12c23          	sw	a3,280(sp)
   19584:	0006861b          	sext.w	a2,a3
   19588:	12f13023          	sd	a5,288(sp)
   1958c:	00700693          	li	a3,7
   19590:	01030313          	addi	t1,t1,16
   19594:	0ec6c863          	blt	a3,a2,19684 <_svfprintf_r+0x790>
   19598:	020f0c63          	beqz	t5,195d0 <_svfprintf_r+0x6dc>
   1959c:	11812683          	lw	a3,280(sp)
   195a0:	0e010613          	addi	a2,sp,224
   195a4:	00c33023          	sd	a2,0(t1)
   195a8:	0016869b          	addiw	a3,a3,1
   195ac:	00200613          	li	a2,2
   195b0:	00278793          	addi	a5,a5,2
   195b4:	00c33423          	sd	a2,8(t1)
   195b8:	10d12c23          	sw	a3,280(sp)
   195bc:	0006861b          	sext.w	a2,a3
   195c0:	12f13023          	sd	a5,288(sp)
   195c4:	00700693          	li	a3,7
   195c8:	01030313          	addi	t1,t1,16
   195cc:	2cc6cce3          	blt	a3,a2,1a0a4 <_svfprintf_r+0x11b0>
   195d0:	08000693          	li	a3,128
   195d4:	04df8ce3          	beq	t6,a3,19e2c <_svfprintf_r+0xf38>
   195d8:	419e8ebb          	subw	t4,t4,s9
   195dc:	11d04ee3          	bgtz	t4,19ef8 <_svfprintf_r+0x1004>
   195e0:	10047693          	andi	a3,s0,256
   195e4:	72069263          	bnez	a3,19d08 <_svfprintf_r+0xe14>
   195e8:	11812703          	lw	a4,280(sp)
   195ec:	019787b3          	add	a5,a5,s9
   195f0:	01a33023          	sd	s10,0(t1)
   195f4:	0017069b          	addiw	a3,a4,1
   195f8:	01933423          	sd	s9,8(t1)
   195fc:	12f13023          	sd	a5,288(sp)
   19600:	10d12c23          	sw	a3,280(sp)
   19604:	00700713          	li	a4,7
   19608:	1cd74663          	blt	a4,a3,197d4 <_svfprintf_r+0x8e0>
   1960c:	01030313          	addi	t1,t1,16
   19610:	00447413          	andi	s0,s0,4
   19614:	00040663          	beqz	s0,19620 <_svfprintf_r+0x72c>
   19618:	415a043b          	subw	s0,s4,s5
   1961c:	2a804ee3          	bgtz	s0,1a0d8 <_svfprintf_r+0x11e4>
   19620:	000a0713          	mv	a4,s4
   19624:	015a5463          	bge	s4,s5,1962c <_svfprintf_r+0x738>
   19628:	000a8713          	mv	a4,s5
   1962c:	00813683          	ld	a3,8(sp)
   19630:	00d7073b          	addw	a4,a4,a3
   19634:	00e13423          	sd	a4,8(sp)
   19638:	a80792e3          	bnez	a5,190bc <_svfprintf_r+0x1c8>
   1963c:	02013783          	ld	a5,32(sp)
   19640:	10012c23          	sw	zero,280(sp)
   19644:	00078863          	beqz	a5,19654 <_svfprintf_r+0x760>
   19648:	02013583          	ld	a1,32(sp)
   1964c:	000b0513          	mv	a0,s6
   19650:	b14fa0ef          	jal	ra,13964 <_free_r>
   19654:	000b8313          	mv	t1,s7
   19658:	00090d13          	mv	s10,s2
   1965c:	000d4783          	lbu	a5,0(s10)
   19660:	94079ce3          	bnez	a5,18fb8 <_svfprintf_r+0xc4>
   19664:	12013783          	ld	a5,288(sp)
   19668:	a6078ee3          	beqz	a5,190e4 <_svfprintf_r+0x1f0>
   1966c:	11010613          	addi	a2,sp,272
   19670:	000c0593          	mv	a1,s8
   19674:	000b0513          	mv	a0,s6
   19678:	6f0040ef          	jal	ra,1dd68 <__ssprint_r>
   1967c:	010c5783          	lhu	a5,16(s8)
   19680:	a69ff06f          	j	190e8 <_svfprintf_r+0x1f4>
   19684:	11010613          	addi	a2,sp,272
   19688:	000c0593          	mv	a1,s8
   1968c:	000b0513          	mv	a0,s6
   19690:	05d13023          	sd	t4,64(sp)
   19694:	03f13c23          	sd	t6,56(sp)
   19698:	01e13c23          	sd	t5,24(sp)
   1969c:	6cc040ef          	jal	ra,1dd68 <__ssprint_r>
   196a0:	a20518e3          	bnez	a0,190d0 <_svfprintf_r+0x1dc>
   196a4:	12013783          	ld	a5,288(sp)
   196a8:	000b8313          	mv	t1,s7
   196ac:	04013e83          	ld	t4,64(sp)
   196b0:	03813f83          	ld	t6,56(sp)
   196b4:	01813f03          	ld	t5,24(sp)
   196b8:	ee1ff06f          	j	19598 <_svfprintf_r+0x6a4>
   196bc:	11812e83          	lw	t4,280(sp)
   196c0:	02813703          	ld	a4,40(sp)
   196c4:	00178c93          	addi	s9,a5,1
   196c8:	00100613          	li	a2,1
   196cc:	001e879b          	addiw	a5,t4,1
   196d0:	01a33023          	sd	s10,0(t1)
   196d4:	00078693          	mv	a3,a5
   196d8:	01030493          	addi	s1,t1,16
   196dc:	46e654e3          	bge	a2,a4,1a344 <_svfprintf_r+0x1450>
   196e0:	00100613          	li	a2,1
   196e4:	10d12c23          	sw	a3,280(sp)
   196e8:	00c33423          	sd	a2,8(t1)
   196ec:	13913023          	sd	s9,288(sp)
   196f0:	00700693          	li	a3,7
   196f4:	4ef6c8e3          	blt	a3,a5,1a3e4 <_svfprintf_r+0x14f0>
   196f8:	0017869b          	addiw	a3,a5,1
   196fc:	07813783          	ld	a5,120(sp)
   19700:	08013703          	ld	a4,128(sp)
   19704:	10d12c23          	sw	a3,280(sp)
   19708:	00fc8cb3          	add	s9,s9,a5
   1970c:	00f4b423          	sd	a5,8(s1)
   19710:	00e4b023          	sd	a4,0(s1)
   19714:	0006879b          	sext.w	a5,a3
   19718:	13913023          	sd	s9,288(sp)
   1971c:	00700693          	li	a3,7
   19720:	01048493          	addi	s1,s1,16
   19724:	4ef6c4e3          	blt	a3,a5,1a40c <_svfprintf_r+0x1518>
   19728:	0017889b          	addiw	a7,a5,1
   1972c:	04f13823          	sd	a5,80(sp)
   19730:	02813783          	ld	a5,40(sp)
   19734:	10013503          	ld	a0,256(sp)
   19738:	10813583          	ld	a1,264(sp)
   1973c:	00088e9b          	sext.w	t4,a7
   19740:	01048313          	addi	t1,s1,16
   19744:	fff7881b          	addiw	a6,a5,-1
   19748:	00000613          	li	a2,0
   1974c:	00000693          	li	a3,0
   19750:	05113423          	sd	a7,72(sp)
   19754:	05d13023          	sd	t4,64(sp)
   19758:	02613c23          	sd	t1,56(sp)
   1975c:	01013c23          	sd	a6,24(sp)
   19760:	001060ef          	jal	ra,1ff60 <__eqtf2>
   19764:	01813803          	ld	a6,24(sp)
   19768:	03813303          	ld	t1,56(sp)
   1976c:	04013e83          	ld	t4,64(sp)
   19770:	04813883          	ld	a7,72(sp)
   19774:	3e050ce3          	beqz	a0,1a36c <_svfprintf_r+0x1478>
   19778:	001d0713          	addi	a4,s10,1
   1977c:	010c8cb3          	add	s9,s9,a6
   19780:	00e4b023          	sd	a4,0(s1)
   19784:	0104b423          	sd	a6,8(s1)
   19788:	13913023          	sd	s9,288(sp)
   1978c:	11112c23          	sw	a7,280(sp)
   19790:	00700713          	li	a4,7
   19794:	01d75463          	bge	a4,t4,1979c <_svfprintf_r+0x8a8>
   19798:	7a10006f          	j	1a738 <_svfprintf_r+0x1844>
   1979c:	05013783          	ld	a5,80(sp)
   197a0:	02048713          	addi	a4,s1,32
   197a4:	00030493          	mv	s1,t1
   197a8:	00278e9b          	addiw	t4,a5,2
   197ac:	00070313          	mv	t1,a4
   197b0:	09013683          	ld	a3,144(sp)
   197b4:	0f010713          	addi	a4,sp,240
   197b8:	00e4b023          	sd	a4,0(s1)
   197bc:	019687b3          	add	a5,a3,s9
   197c0:	00d4b423          	sd	a3,8(s1)
   197c4:	12f13023          	sd	a5,288(sp)
   197c8:	11d12c23          	sw	t4,280(sp)
   197cc:	00700713          	li	a4,7
   197d0:	e5d750e3          	bge	a4,t4,19610 <_svfprintf_r+0x71c>
   197d4:	11010613          	addi	a2,sp,272
   197d8:	000c0593          	mv	a1,s8
   197dc:	000b0513          	mv	a0,s6
   197e0:	588040ef          	jal	ra,1dd68 <__ssprint_r>
   197e4:	8e0516e3          	bnez	a0,190d0 <_svfprintf_r+0x1dc>
   197e8:	12013783          	ld	a5,288(sp)
   197ec:	000b8313          	mv	t1,s7
   197f0:	e21ff06f          	j	19610 <_svfprintf_r+0x71c>
   197f4:	02b00793          	li	a5,43
   197f8:	0cf10fa3          	sb	a5,223(sp)
   197fc:	00094483          	lbu	s1,0(s2)
   19800:	84dff06f          	j	1904c <_svfprintf_r+0x158>
   19804:	01013783          	ld	a5,16(sp)
   19808:	00094483          	lbu	s1,0(s2)
   1980c:	0007aa03          	lw	s4,0(a5)
   19810:	00878793          	addi	a5,a5,8
   19814:	00f13823          	sd	a5,16(sp)
   19818:	820a5ae3          	bgez	s4,1904c <_svfprintf_r+0x158>
   1981c:	41400a3b          	negw	s4,s4
   19820:	a65ff06f          	j	19284 <_svfprintf_r+0x390>
   19824:	000b0513          	mv	a0,s6
   19828:	02613023          	sd	t1,32(sp)
   1982c:	01d13c23          	sd	t4,24(sp)
   19830:	9ecfd0ef          	jal	ra,16a1c <_localeconv_r>
   19834:	00853783          	ld	a5,8(a0)
   19838:	00078513          	mv	a0,a5
   1983c:	08f13c23          	sd	a5,152(sp)
   19840:	d14ff0ef          	jal	ra,18d54 <strlen>
   19844:	00050493          	mv	s1,a0
   19848:	08a13423          	sd	a0,136(sp)
   1984c:	000b0513          	mv	a0,s6
   19850:	9ccfd0ef          	jal	ra,16a1c <_localeconv_r>
   19854:	01053703          	ld	a4,16(a0)
   19858:	00048793          	mv	a5,s1
   1985c:	01813e83          	ld	t4,24(sp)
   19860:	06e13823          	sd	a4,112(sp)
   19864:	02013303          	ld	t1,32(sp)
   19868:	00094483          	lbu	s1,0(s2)
   1986c:	fe078063          	beqz	a5,1904c <_svfprintf_r+0x158>
   19870:	fc070e63          	beqz	a4,1904c <_svfprintf_r+0x158>
   19874:	00074783          	lbu	a5,0(a4)
   19878:	fc078a63          	beqz	a5,1904c <_svfprintf_r+0x158>
   1987c:	40046413          	ori	s0,s0,1024
   19880:	0004041b          	sext.w	s0,s0
   19884:	fc8ff06f          	j	1904c <_svfprintf_r+0x158>
   19888:	00146413          	ori	s0,s0,1
   1988c:	0004041b          	sext.w	s0,s0
   19890:	00094483          	lbu	s1,0(s2)
   19894:	fb8ff06f          	j	1904c <_svfprintf_r+0x158>
   19898:	0df14783          	lbu	a5,223(sp)
   1989c:	00094483          	lbu	s1,0(s2)
   198a0:	fa079663          	bnez	a5,1904c <_svfprintf_r+0x158>
   198a4:	02000793          	li	a5,32
   198a8:	0cf10fa3          	sb	a5,223(sp)
   198ac:	fa0ff06f          	j	1904c <_svfprintf_r+0x158>
   198b0:	01013703          	ld	a4,16(sp)
   198b4:	02047793          	andi	a5,s0,32
   198b8:	00870693          	addi	a3,a4,8
   198bc:	3a079ce3          	bnez	a5,1a474 <_svfprintf_r+0x1580>
   198c0:	01047793          	andi	a5,s0,16
   198c4:	3a0798e3          	bnez	a5,1a474 <_svfprintf_r+0x1580>
   198c8:	01013783          	ld	a5,16(sp)
   198cc:	04047713          	andi	a4,s0,64
   198d0:	0007a783          	lw	a5,0(a5)
   198d4:	00071463          	bnez	a4,198dc <_svfprintf_r+0x9e8>
   198d8:	2280106f          	j	1ab00 <_svfprintf_r+0x1c0c>
   198dc:	03079a93          	slli	s5,a5,0x30
   198e0:	030ada93          	srli	s5,s5,0x30
   198e4:	00d13823          	sd	a3,16(sp)
   198e8:	00040813          	mv	a6,s0
   198ec:	00100713          	li	a4,1
   198f0:	895ff06f          	j	19184 <_svfprintf_r+0x290>
   198f4:	02046413          	ori	s0,s0,32
   198f8:	0004041b          	sext.w	s0,s0
   198fc:	00094483          	lbu	s1,0(s2)
   19900:	f4cff06f          	j	1904c <_svfprintf_r+0x158>
   19904:	01013783          	ld	a5,16(sp)
   19908:	ffff8737          	lui	a4,0xffff8
   1990c:	83074713          	xori	a4,a4,-2000
   19910:	0007ba83          	ld	s5,0(a5)
   19914:	00878793          	addi	a5,a5,8
   19918:	00246813          	ori	a6,s0,2
   1991c:	00f13823          	sd	a5,16(sp)
   19920:	00008797          	auipc	a5,0x8
   19924:	67078793          	addi	a5,a5,1648 # 21f90 <zeroes.4541+0x60>
   19928:	0ee11023          	sh	a4,224(sp)
   1992c:	0008081b          	sext.w	a6,a6
   19930:	02f13823          	sd	a5,48(sp)
   19934:	00200713          	li	a4,2
   19938:	07800493          	li	s1,120
   1993c:	849ff06f          	j	19184 <_svfprintf_r+0x290>
   19940:	01013703          	ld	a4,16(sp)
   19944:	02047793          	andi	a5,s0,32
   19948:	00870713          	addi	a4,a4,8 # ffffffffffff8008 <__BSS_END__+0xfffffffffffd33e8>
   1994c:	a60790e3          	bnez	a5,193ac <_svfprintf_r+0x4b8>
   19950:	01047793          	andi	a5,s0,16
   19954:	a4079ce3          	bnez	a5,193ac <_svfprintf_r+0x4b8>
   19958:	01013783          	ld	a5,16(sp)
   1995c:	04047693          	andi	a3,s0,64
   19960:	0007a783          	lw	a5,0(a5)
   19964:	00069463          	bnez	a3,1996c <_svfprintf_r+0xa78>
   19968:	1840106f          	j	1aaec <_svfprintf_r+0x1bf8>
   1996c:	03079a93          	slli	s5,a5,0x30
   19970:	030ada93          	srli	s5,s5,0x30
   19974:	00e13823          	sd	a4,16(sp)
   19978:	a41ff06f          	j	193b8 <_svfprintf_r+0x4c4>
   1997c:	01013683          	ld	a3,16(sp)
   19980:	02047793          	andi	a5,s0,32
   19984:	0006b703          	ld	a4,0(a3)
   19988:	00868693          	addi	a3,a3,8
   1998c:	00d13823          	sd	a3,16(sp)
   19990:	32079463          	bnez	a5,19cb8 <_svfprintf_r+0xdc4>
   19994:	01047793          	andi	a5,s0,16
   19998:	32079063          	bnez	a5,19cb8 <_svfprintf_r+0xdc4>
   1999c:	04047793          	andi	a5,s0,64
   199a0:	00078463          	beqz	a5,199a8 <_svfprintf_r+0xab4>
   199a4:	2c80106f          	j	1ac6c <_svfprintf_r+0x1d78>
   199a8:	20047413          	andi	s0,s0,512
   199ac:	00813783          	ld	a5,8(sp)
   199b0:	00041463          	bnez	s0,199b8 <_svfprintf_r+0xac4>
   199b4:	1f10106f          	j	1b3a4 <_svfprintf_r+0x24b0>
   199b8:	00f70023          	sb	a5,0(a4)
   199bc:	00090d13          	mv	s10,s2
   199c0:	c9dff06f          	j	1965c <_svfprintf_r+0x768>
   199c4:	00094483          	lbu	s1,0(s2)
   199c8:	06c00793          	li	a5,108
   199cc:	30f480e3          	beq	s1,a5,1a4cc <_svfprintf_r+0x15d8>
   199d0:	01046413          	ori	s0,s0,16
   199d4:	0004041b          	sext.w	s0,s0
   199d8:	e74ff06f          	j	1904c <_svfprintf_r+0x158>
   199dc:	00847793          	andi	a5,s0,8
   199e0:	260796e3          	bnez	a5,1a44c <_svfprintf_r+0x1558>
   199e4:	01013783          	ld	a5,16(sp)
   199e8:	02613023          	sd	t1,32(sp)
   199ec:	01d13c23          	sd	t4,24(sp)
   199f0:	0007b503          	ld	a0,0(a5)
   199f4:	00878793          	addi	a5,a5,8
   199f8:	00f13823          	sd	a5,16(sp)
   199fc:	4f9070ef          	jal	ra,216f4 <__extenddftf2>
   19a00:	02013303          	ld	t1,32(sp)
   19a04:	01813e83          	ld	t4,24(sp)
   19a08:	10a13023          	sd	a0,256(sp)
   19a0c:	10b13423          	sd	a1,264(sp)
   19a10:	10010513          	addi	a0,sp,256
   19a14:	02613023          	sd	t1,32(sp)
   19a18:	01d13c23          	sd	t4,24(sp)
   19a1c:	fa5fc0ef          	jal	ra,169c0 <_ldcheck>
   19a20:	0ea12423          	sw	a0,232(sp)
   19a24:	00200793          	li	a5,2
   19a28:	01813e83          	ld	t4,24(sp)
   19a2c:	02013303          	ld	t1,32(sp)
   19a30:	72f502e3          	beq	a0,a5,1a954 <_svfprintf_r+0x1a60>
   19a34:	00100793          	li	a5,1
   19a38:	00f51463          	bne	a0,a5,19a40 <_svfprintf_r+0xb4c>
   19a3c:	1000106f          	j	1ab3c <_svfprintf_r+0x1c48>
   19a40:	06100793          	li	a5,97
   19a44:	00f49463          	bne	s1,a5,19a4c <_svfprintf_r+0xb58>
   19a48:	13d0106f          	j	1b384 <_svfprintf_r+0x2490>
   19a4c:	04100793          	li	a5,65
   19a50:	00f49463          	bne	s1,a5,19a58 <_svfprintf_r+0xb64>
   19a54:	5800106f          	j	1afd4 <_svfprintf_r+0x20e0>
   19a58:	fdf4f713          	andi	a4,s1,-33
   19a5c:	fff00793          	li	a5,-1
   19a60:	0ae13423          	sd	a4,168(sp)
   19a64:	00fe9463          	bne	t4,a5,19a6c <_svfprintf_r+0xb78>
   19a68:	28c0106f          	j	1acf4 <_svfprintf_r+0x1e00>
   19a6c:	04700793          	li	a5,71
   19a70:	00f71463          	bne	a4,a5,19a78 <_svfprintf_r+0xb84>
   19a74:	1210106f          	j	1b394 <_svfprintf_r+0x24a0>
   19a78:	10813c83          	ld	s9,264(sp)
   19a7c:	10046793          	ori	a5,s0,256
   19a80:	0a813823          	sd	s0,176(sp)
   19a84:	0007879b          	sext.w	a5,a5
   19a88:	10013f03          	ld	t5,256(sp)
   19a8c:	000cd463          	bgez	s9,19a94 <_svfprintf_r+0xba0>
   19a90:	7b80106f          	j	1b248 <_svfprintf_r+0x2354>
   19a94:	0c013423          	sd	zero,200(sp)
   19a98:	00078413          	mv	s0,a5
   19a9c:	02013023          	sd	zero,32(sp)
   19aa0:	0a813703          	ld	a4,168(sp)
   19aa4:	04600793          	li	a5,70
   19aa8:	00f71463          	bne	a4,a5,19ab0 <_svfprintf_r+0xbbc>
   19aac:	2f80106f          	j	1ada4 <_svfprintf_r+0x1eb0>
   19ab0:	04500793          	li	a5,69
   19ab4:	02613c23          	sd	t1,56(sp)
   19ab8:	00f71463          	bne	a4,a5,19ac0 <_svfprintf_r+0xbcc>
   19abc:	0390106f          	j	1b2f4 <_svfprintf_r+0x2400>
   19ac0:	000e8713          	mv	a4,t4
   19ac4:	0e810793          	addi	a5,sp,232
   19ac8:	000f0593          	mv	a1,t5
   19acc:	0f810893          	addi	a7,sp,248
   19ad0:	0ec10813          	addi	a6,sp,236
   19ad4:	00200693          	li	a3,2
   19ad8:	000c8613          	mv	a2,s9
   19adc:	000b0513          	mv	a0,s6
   19ae0:	03d13423          	sd	t4,40(sp)
   19ae4:	01e13c23          	sd	t5,24(sp)
   19ae8:	bc1fb0ef          	jal	ra,156a8 <_ldtoa_r>
   19aec:	0a813703          	ld	a4,168(sp)
   19af0:	04700793          	li	a5,71
   19af4:	00050d13          	mv	s10,a0
   19af8:	01813f03          	ld	t5,24(sp)
   19afc:	02813e83          	ld	t4,40(sp)
   19b00:	03813303          	ld	t1,56(sp)
   19b04:	00f70463          	beq	a4,a5,19b0c <_svfprintf_r+0xc18>
   19b08:	29d0106f          	j	1b5a4 <_svfprintf_r+0x26b0>
   19b0c:	0b013783          	ld	a5,176(sp)
   19b10:	01d50ab3          	add	s5,a0,t4
   19b14:	0017f793          	andi	a5,a5,1
   19b18:	00078463          	beqz	a5,19b20 <_svfprintf_r+0xc2c>
   19b1c:	2e00106f          	j	1adfc <_svfprintf_r+0x1f08>
   19b20:	0f813783          	ld	a5,248(sp)
   19b24:	41a787bb          	subw	a5,a5,s10
   19b28:	02f13423          	sd	a5,40(sp)
   19b2c:	0e812703          	lw	a4,232(sp)
   19b30:	04700793          	li	a5,71
   19b34:	06e13023          	sd	a4,96(sp)
   19b38:	0a813703          	ld	a4,168(sp)
   19b3c:	00f71463          	bne	a4,a5,19b44 <_svfprintf_r+0xc50>
   19b40:	1d80106f          	j	1ad18 <_svfprintf_r+0x1e24>
   19b44:	0a813703          	ld	a4,168(sp)
   19b48:	04600793          	li	a5,70
   19b4c:	00f71463          	bne	a4,a5,19b54 <_svfprintf_r+0xc60>
   19b50:	4080106f          	j	1af58 <_svfprintf_r+0x2064>
   19b54:	06013783          	ld	a5,96(sp)
   19b58:	0a813703          	ld	a4,168(sp)
   19b5c:	04100693          	li	a3,65
   19b60:	fff78a9b          	addiw	s5,a5,-1
   19b64:	0f512423          	sw	s5,232(sp)
   19b68:	0ff4f793          	andi	a5,s1,255
   19b6c:	00000613          	li	a2,0
   19b70:	00d71863          	bne	a4,a3,19b80 <_svfprintf_r+0xc8c>
   19b74:	00f7879b          	addiw	a5,a5,15
   19b78:	0ff7f793          	andi	a5,a5,255
   19b7c:	00100613          	li	a2,1
   19b80:	0ef10823          	sb	a5,240(sp)
   19b84:	02b00793          	li	a5,43
   19b88:	000ada63          	bgez	s5,19b9c <_svfprintf_r+0xca8>
   19b8c:	06013703          	ld	a4,96(sp)
   19b90:	00100793          	li	a5,1
   19b94:	40e78abb          	subw	s5,a5,a4
   19b98:	02d00793          	li	a5,45
   19b9c:	0ef108a3          	sb	a5,241(sp)
   19ba0:	00900793          	li	a5,9
   19ba4:	0157c463          	blt	a5,s5,19bac <_svfprintf_r+0xcb8>
   19ba8:	01d0106f          	j	1b3c4 <_svfprintf_r+0x24d0>
   19bac:	0ff10413          	addi	s0,sp,255
   19bb0:	00040c93          	mv	s9,s0
   19bb4:	00c0006f          	j	19bc0 <_svfprintf_r+0xccc>
   19bb8:	00060c93          	mv	s9,a2
   19bbc:	00050a93          	mv	s5,a0
   19bc0:	00a00593          	li	a1,10
   19bc4:	000a8513          	mv	a0,s5
   19bc8:	00613c23          	sd	t1,24(sp)
   19bcc:	028080ef          	jal	ra,21bf4 <__moddi3>
   19bd0:	0305051b          	addiw	a0,a0,48
   19bd4:	feac8fa3          	sb	a0,-1(s9)
   19bd8:	00a00593          	li	a1,10
   19bdc:	000a8513          	mv	a0,s5
   19be0:	791070ef          	jal	ra,21b70 <__divdi3>
   19be4:	06300793          	li	a5,99
   19be8:	fffc8613          	addi	a2,s9,-1
   19bec:	0005051b          	sext.w	a0,a0
   19bf0:	01813303          	ld	t1,24(sp)
   19bf4:	fd57c2e3          	blt	a5,s5,19bb8 <_svfprintf_r+0xcc4>
   19bf8:	0305079b          	addiw	a5,a0,48
   19bfc:	0ff7f793          	andi	a5,a5,255
   19c00:	ffec8693          	addi	a3,s9,-2
   19c04:	fef60fa3          	sb	a5,-1(a2)
   19c08:	0086e463          	bltu	a3,s0,19c10 <_svfprintf_r+0xd1c>
   19c0c:	18d0106f          	j	1b598 <_svfprintf_r+0x26a4>
   19c10:	0f210613          	addi	a2,sp,242
   19c14:	0080006f          	j	19c1c <_svfprintf_r+0xd28>
   19c18:	0006c783          	lbu	a5,0(a3)
   19c1c:	00160613          	addi	a2,a2,1
   19c20:	00168693          	addi	a3,a3,1
   19c24:	fef60fa3          	sb	a5,-1(a2)
   19c28:	fe8698e3          	bne	a3,s0,19c18 <_svfprintf_r+0xd24>
   19c2c:	10110793          	addi	a5,sp,257
   19c30:	419787b3          	sub	a5,a5,s9
   19c34:	0f210713          	addi	a4,sp,242
   19c38:	00f707b3          	add	a5,a4,a5
   19c3c:	0f010693          	addi	a3,sp,240
   19c40:	40d787bb          	subw	a5,a5,a3
   19c44:	08f13823          	sd	a5,144(sp)
   19c48:	09013783          	ld	a5,144(sp)
   19c4c:	02813703          	ld	a4,40(sp)
   19c50:	00100693          	li	a3,1
   19c54:	00f70cbb          	addw	s9,a4,a5
   19c58:	000c8793          	mv	a5,s9
   19c5c:	00e6c463          	blt	a3,a4,19c64 <_svfprintf_r+0xd70>
   19c60:	0bd0106f          	j	1b51c <_svfprintf_r+0x2628>
   19c64:	07813703          	ld	a4,120(sp)
   19c68:	00e78cbb          	addw	s9,a5,a4
   19c6c:	0b013783          	ld	a5,176(sp)
   19c70:	fffcca93          	not	s5,s9
   19c74:	43fada93          	srai	s5,s5,0x3f
   19c78:	bff7f413          	andi	s0,a5,-1025
   19c7c:	0004041b          	sext.w	s0,s0
   19c80:	015cfab3          	and	s5,s9,s5
   19c84:	10046413          	ori	s0,s0,256
   19c88:	000a8a9b          	sext.w	s5,s5
   19c8c:	04013c23          	sd	zero,88(sp)
   19c90:	06013423          	sd	zero,104(sp)
   19c94:	06013023          	sd	zero,96(sp)
   19c98:	0c813783          	ld	a5,200(sp)
   19c9c:	00079463          	bnez	a5,19ca4 <_svfprintf_r+0xdb0>
   19ca0:	0f00106f          	j	1ad90 <_svfprintf_r+0x1e9c>
   19ca4:	02d00793          	li	a5,45
   19ca8:	0cf10fa3          	sb	a5,223(sp)
   19cac:	00000e93          	li	t4,0
   19cb0:	001a8a9b          	addiw	s5,s5,1
   19cb4:	885ff06f          	j	19538 <_svfprintf_r+0x644>
   19cb8:	00813783          	ld	a5,8(sp)
   19cbc:	00090d13          	mv	s10,s2
   19cc0:	00f73023          	sd	a5,0(a4)
   19cc4:	999ff06f          	j	1965c <_svfprintf_r+0x768>
   19cc8:	00040813          	mv	a6,s0
   19ccc:	00900713          	li	a4,9
   19cd0:	375766e3          	bltu	a4,s5,1a83c <_svfprintf_r+0x1948>
   19cd4:	030a879b          	addiw	a5,s5,48
   19cd8:	18f105a3          	sb	a5,395(sp)
   19cdc:	00080413          	mv	s0,a6
   19ce0:	00100c93          	li	s9,1
   19ce4:	18b10d13          	addi	s10,sp,395
   19ce8:	cd0ff06f          	j	191b8 <_svfprintf_r+0x2c4>
   19cec:	0ff00793          	li	a5,255
   19cf0:	3af686e3          	beq	a3,a5,1a89c <_svfprintf_r+0x19a8>
   19cf4:	00900793          	li	a5,9
   19cf8:	6f57e4e3          	bltu	a5,s5,1abe0 <_svfprintf_r+0x1cec>
   19cfc:	41ac8cbb          	subw	s9,s9,s10
   19d00:	00080413          	mv	s0,a6
   19d04:	cb4ff06f          	j	191b8 <_svfprintf_r+0x2c4>
   19d08:	06500693          	li	a3,101
   19d0c:	9a96d8e3          	bge	a3,s1,196bc <_svfprintf_r+0x7c8>
   19d10:	10013503          	ld	a0,256(sp)
   19d14:	10813583          	ld	a1,264(sp)
   19d18:	00000613          	li	a2,0
   19d1c:	00000693          	li	a3,0
   19d20:	02613c23          	sd	t1,56(sp)
   19d24:	00f13c23          	sd	a5,24(sp)
   19d28:	238060ef          	jal	ra,1ff60 <__eqtf2>
   19d2c:	01813783          	ld	a5,24(sp)
   19d30:	03813303          	ld	t1,56(sp)
   19d34:	4a051063          	bnez	a0,1a1d4 <_svfprintf_r+0x12e0>
   19d38:	11812703          	lw	a4,280(sp)
   19d3c:	00008697          	auipc	a3,0x8
   19d40:	28c68693          	addi	a3,a3,652 # 21fc8 <zeroes.4541+0x98>
   19d44:	00178793          	addi	a5,a5,1
   19d48:	0017071b          	addiw	a4,a4,1
   19d4c:	00d33023          	sd	a3,0(t1)
   19d50:	00100693          	li	a3,1
   19d54:	00d33423          	sd	a3,8(t1)
   19d58:	12f13023          	sd	a5,288(sp)
   19d5c:	0007069b          	sext.w	a3,a4
   19d60:	10e12c23          	sw	a4,280(sp)
   19d64:	00700793          	li	a5,7
   19d68:	01030313          	addi	t1,t1,16
   19d6c:	36d7c2e3          	blt	a5,a3,1a8d0 <_svfprintf_r+0x19dc>
   19d70:	0e812783          	lw	a5,232(sp)
   19d74:	02813703          	ld	a4,40(sp)
   19d78:	00e7ca63          	blt	a5,a4,19d8c <_svfprintf_r+0xe98>
   19d7c:	00147793          	andi	a5,s0,1
   19d80:	00079663          	bnez	a5,19d8c <_svfprintf_r+0xe98>
   19d84:	12013783          	ld	a5,288(sp)
   19d88:	889ff06f          	j	19610 <_svfprintf_r+0x71c>
   19d8c:	08013783          	ld	a5,128(sp)
   19d90:	07813683          	ld	a3,120(sp)
   19d94:	11812703          	lw	a4,280(sp)
   19d98:	00f33023          	sd	a5,0(t1)
   19d9c:	12013783          	ld	a5,288(sp)
   19da0:	0017071b          	addiw	a4,a4,1
   19da4:	00d33423          	sd	a3,8(t1)
   19da8:	00f687b3          	add	a5,a3,a5
   19dac:	10e12c23          	sw	a4,280(sp)
   19db0:	0007069b          	sext.w	a3,a4
   19db4:	12f13023          	sd	a5,288(sp)
   19db8:	00700713          	li	a4,7
   19dbc:	01030313          	addi	t1,t1,16
   19dc0:	6cd74a63          	blt	a4,a3,1a494 <_svfprintf_r+0x15a0>
   19dc4:	02813703          	ld	a4,40(sp)
   19dc8:	fff7049b          	addiw	s1,a4,-1
   19dcc:	849052e3          	blez	s1,19610 <_svfprintf_r+0x71c>
   19dd0:	11812703          	lw	a4,280(sp)
   19dd4:	309ddee3          	bge	s11,s1,1a8f0 <_svfprintf_r+0x19fc>
   19dd8:	00700c93          	li	s9,7
   19ddc:	00c0006f          	j	19de8 <_svfprintf_r+0xef4>
   19de0:	ff04849b          	addiw	s1,s1,-16
   19de4:	309dd6e3          	bge	s11,s1,1a8f0 <_svfprintf_r+0x19fc>
   19de8:	0017071b          	addiw	a4,a4,1
   19dec:	01078793          	addi	a5,a5,16
   19df0:	01333023          	sd	s3,0(t1)
   19df4:	01b33423          	sd	s11,8(t1)
   19df8:	12f13023          	sd	a5,288(sp)
   19dfc:	10e12c23          	sw	a4,280(sp)
   19e00:	01030313          	addi	t1,t1,16
   19e04:	fcecdee3          	bge	s9,a4,19de0 <_svfprintf_r+0xeec>
   19e08:	11010613          	addi	a2,sp,272
   19e0c:	000c0593          	mv	a1,s8
   19e10:	000b0513          	mv	a0,s6
   19e14:	755030ef          	jal	ra,1dd68 <__ssprint_r>
   19e18:	aa051c63          	bnez	a0,190d0 <_svfprintf_r+0x1dc>
   19e1c:	12013783          	ld	a5,288(sp)
   19e20:	11812703          	lw	a4,280(sp)
   19e24:	000b8313          	mv	t1,s7
   19e28:	fb9ff06f          	j	19de0 <_svfprintf_r+0xeec>
   19e2c:	415a083b          	subw	a6,s4,s5
   19e30:	fb005463          	blez	a6,195d8 <_svfprintf_r+0x6e4>
   19e34:	11812683          	lw	a3,280(sp)
   19e38:	070dd863          	bge	s11,a6,19ea8 <_svfprintf_r+0xfb4>
   19e3c:	00700893          	li	a7,7
   19e40:	00c0006f          	j	19e4c <_svfprintf_r+0xf58>
   19e44:	ff08081b          	addiw	a6,a6,-16
   19e48:	070dd063          	bge	s11,a6,19ea8 <_svfprintf_r+0xfb4>
   19e4c:	0016869b          	addiw	a3,a3,1
   19e50:	01078793          	addi	a5,a5,16
   19e54:	01333023          	sd	s3,0(t1)
   19e58:	01b33423          	sd	s11,8(t1)
   19e5c:	12f13023          	sd	a5,288(sp)
   19e60:	10d12c23          	sw	a3,280(sp)
   19e64:	01030313          	addi	t1,t1,16
   19e68:	fcd8dee3          	bge	a7,a3,19e44 <_svfprintf_r+0xf50>
   19e6c:	11010613          	addi	a2,sp,272
   19e70:	000c0593          	mv	a1,s8
   19e74:	000b0513          	mv	a0,s6
   19e78:	03013c23          	sd	a6,56(sp)
   19e7c:	01d13c23          	sd	t4,24(sp)
   19e80:	6e9030ef          	jal	ra,1dd68 <__ssprint_r>
   19e84:	a4051663          	bnez	a0,190d0 <_svfprintf_r+0x1dc>
   19e88:	03813803          	ld	a6,56(sp)
   19e8c:	12013783          	ld	a5,288(sp)
   19e90:	11812683          	lw	a3,280(sp)
   19e94:	ff08081b          	addiw	a6,a6,-16
   19e98:	000b8313          	mv	t1,s7
   19e9c:	00700893          	li	a7,7
   19ea0:	01813e83          	ld	t4,24(sp)
   19ea4:	fb0dc4e3          	blt	s11,a6,19e4c <_svfprintf_r+0xf58>
   19ea8:	0016861b          	addiw	a2,a3,1
   19eac:	010787b3          	add	a5,a5,a6
   19eb0:	01333023          	sd	s3,0(t1)
   19eb4:	01033423          	sd	a6,8(t1)
   19eb8:	12f13023          	sd	a5,288(sp)
   19ebc:	10c12c23          	sw	a2,280(sp)
   19ec0:	00700693          	li	a3,7
   19ec4:	01030313          	addi	t1,t1,16
   19ec8:	f0c6d863          	bge	a3,a2,195d8 <_svfprintf_r+0x6e4>
   19ecc:	11010613          	addi	a2,sp,272
   19ed0:	000c0593          	mv	a1,s8
   19ed4:	000b0513          	mv	a0,s6
   19ed8:	01d13c23          	sd	t4,24(sp)
   19edc:	68d030ef          	jal	ra,1dd68 <__ssprint_r>
   19ee0:	9e051863          	bnez	a0,190d0 <_svfprintf_r+0x1dc>
   19ee4:	01813e83          	ld	t4,24(sp)
   19ee8:	12013783          	ld	a5,288(sp)
   19eec:	000b8313          	mv	t1,s7
   19ef0:	419e8ebb          	subw	t4,t4,s9
   19ef4:	efd05663          	blez	t4,195e0 <_svfprintf_r+0x6ec>
   19ef8:	11812683          	lw	a3,280(sp)
   19efc:	07ddd463          	bge	s11,t4,19f64 <_svfprintf_r+0x1070>
   19f00:	00700813          	li	a6,7
   19f04:	00c0006f          	j	19f10 <_svfprintf_r+0x101c>
   19f08:	ff0e8e9b          	addiw	t4,t4,-16
   19f0c:	05dddc63          	bge	s11,t4,19f64 <_svfprintf_r+0x1070>
   19f10:	0016869b          	addiw	a3,a3,1
   19f14:	01078793          	addi	a5,a5,16
   19f18:	01333023          	sd	s3,0(t1)
   19f1c:	01b33423          	sd	s11,8(t1)
   19f20:	12f13023          	sd	a5,288(sp)
   19f24:	10d12c23          	sw	a3,280(sp)
   19f28:	01030313          	addi	t1,t1,16
   19f2c:	fcd85ee3          	bge	a6,a3,19f08 <_svfprintf_r+0x1014>
   19f30:	11010613          	addi	a2,sp,272
   19f34:	000c0593          	mv	a1,s8
   19f38:	000b0513          	mv	a0,s6
   19f3c:	01d13c23          	sd	t4,24(sp)
   19f40:	629030ef          	jal	ra,1dd68 <__ssprint_r>
   19f44:	98051663          	bnez	a0,190d0 <_svfprintf_r+0x1dc>
   19f48:	01813e83          	ld	t4,24(sp)
   19f4c:	12013783          	ld	a5,288(sp)
   19f50:	11812683          	lw	a3,280(sp)
   19f54:	ff0e8e9b          	addiw	t4,t4,-16
   19f58:	000b8313          	mv	t1,s7
   19f5c:	00700813          	li	a6,7
   19f60:	fbddc8e3          	blt	s11,t4,19f10 <_svfprintf_r+0x101c>
   19f64:	0016861b          	addiw	a2,a3,1
   19f68:	01d787b3          	add	a5,a5,t4
   19f6c:	01333023          	sd	s3,0(t1)
   19f70:	01d33423          	sd	t4,8(t1)
   19f74:	12f13023          	sd	a5,288(sp)
   19f78:	10c12c23          	sw	a2,280(sp)
   19f7c:	00700693          	li	a3,7
   19f80:	01030313          	addi	t1,t1,16
   19f84:	e4c6de63          	bge	a3,a2,195e0 <_svfprintf_r+0x6ec>
   19f88:	11010613          	addi	a2,sp,272
   19f8c:	000c0593          	mv	a1,s8
   19f90:	000b0513          	mv	a0,s6
   19f94:	5d5030ef          	jal	ra,1dd68 <__ssprint_r>
   19f98:	92051c63          	bnez	a0,190d0 <_svfprintf_r+0x1dc>
   19f9c:	12013783          	ld	a5,288(sp)
   19fa0:	000b8313          	mv	t1,s7
   19fa4:	e3cff06f          	j	195e0 <_svfprintf_r+0x6ec>
   19fa8:	00040813          	mv	a6,s0
   19fac:	cf4ff06f          	j	194a0 <_svfprintf_r+0x5ac>
   19fb0:	11812683          	lw	a3,280(sp)
   19fb4:	00008897          	auipc	a7,0x8
   19fb8:	56c88893          	addi	a7,a7,1388 # 22520 <blanks.4525>
   19fbc:	00700293          	li	t0,7
   19fc0:	010dc863          	blt	s11,a6,19fd0 <_svfprintf_r+0x10dc>
   19fc4:	0800006f          	j	1a044 <_svfprintf_r+0x1150>
   19fc8:	ff08081b          	addiw	a6,a6,-16
   19fcc:	070ddc63          	bge	s11,a6,1a044 <_svfprintf_r+0x1150>
   19fd0:	0016869b          	addiw	a3,a3,1
   19fd4:	01078793          	addi	a5,a5,16
   19fd8:	01133023          	sd	a7,0(t1)
   19fdc:	01b33423          	sd	s11,8(t1)
   19fe0:	12f13023          	sd	a5,288(sp)
   19fe4:	10d12c23          	sw	a3,280(sp)
   19fe8:	01030313          	addi	t1,t1,16
   19fec:	fcd2dee3          	bge	t0,a3,19fc8 <_svfprintf_r+0x10d4>
   19ff0:	11010613          	addi	a2,sp,272
   19ff4:	000c0593          	mv	a1,s8
   19ff8:	000b0513          	mv	a0,s6
   19ffc:	05113823          	sd	a7,80(sp)
   1a000:	05013423          	sd	a6,72(sp)
   1a004:	05d13023          	sd	t4,64(sp)
   1a008:	03f13c23          	sd	t6,56(sp)
   1a00c:	01e13c23          	sd	t5,24(sp)
   1a010:	559030ef          	jal	ra,1dd68 <__ssprint_r>
   1a014:	8a051e63          	bnez	a0,190d0 <_svfprintf_r+0x1dc>
   1a018:	04813803          	ld	a6,72(sp)
   1a01c:	12013783          	ld	a5,288(sp)
   1a020:	11812683          	lw	a3,280(sp)
   1a024:	ff08081b          	addiw	a6,a6,-16
   1a028:	000b8313          	mv	t1,s7
   1a02c:	05013883          	ld	a7,80(sp)
   1a030:	00700293          	li	t0,7
   1a034:	04013e83          	ld	t4,64(sp)
   1a038:	03813f83          	ld	t6,56(sp)
   1a03c:	01813f03          	ld	t5,24(sp)
   1a040:	f90dc8e3          	blt	s11,a6,19fd0 <_svfprintf_r+0x10dc>
   1a044:	0016861b          	addiw	a2,a3,1
   1a048:	010787b3          	add	a5,a5,a6
   1a04c:	01133023          	sd	a7,0(t1)
   1a050:	01033423          	sd	a6,8(t1)
   1a054:	12f13023          	sd	a5,288(sp)
   1a058:	10c12c23          	sw	a2,280(sp)
   1a05c:	00700693          	li	a3,7
   1a060:	01030313          	addi	t1,t1,16
   1a064:	cec6dc63          	bge	a3,a2,1955c <_svfprintf_r+0x668>
   1a068:	11010613          	addi	a2,sp,272
   1a06c:	000c0593          	mv	a1,s8
   1a070:	000b0513          	mv	a0,s6
   1a074:	05d13023          	sd	t4,64(sp)
   1a078:	03f13c23          	sd	t6,56(sp)
   1a07c:	01e13c23          	sd	t5,24(sp)
   1a080:	4e9030ef          	jal	ra,1dd68 <__ssprint_r>
   1a084:	00050463          	beqz	a0,1a08c <_svfprintf_r+0x1198>
   1a088:	848ff06f          	j	190d0 <_svfprintf_r+0x1dc>
   1a08c:	12013783          	ld	a5,288(sp)
   1a090:	000b8313          	mv	t1,s7
   1a094:	04013e83          	ld	t4,64(sp)
   1a098:	03813f83          	ld	t6,56(sp)
   1a09c:	01813f03          	ld	t5,24(sp)
   1a0a0:	cbcff06f          	j	1955c <_svfprintf_r+0x668>
   1a0a4:	11010613          	addi	a2,sp,272
   1a0a8:	000c0593          	mv	a1,s8
   1a0ac:	000b0513          	mv	a0,s6
   1a0b0:	03d13c23          	sd	t4,56(sp)
   1a0b4:	01f13c23          	sd	t6,24(sp)
   1a0b8:	4b1030ef          	jal	ra,1dd68 <__ssprint_r>
   1a0bc:	00050463          	beqz	a0,1a0c4 <_svfprintf_r+0x11d0>
   1a0c0:	810ff06f          	j	190d0 <_svfprintf_r+0x1dc>
   1a0c4:	12013783          	ld	a5,288(sp)
   1a0c8:	000b8313          	mv	t1,s7
   1a0cc:	03813e83          	ld	t4,56(sp)
   1a0d0:	01813f83          	ld	t6,24(sp)
   1a0d4:	cfcff06f          	j	195d0 <_svfprintf_r+0x6dc>
   1a0d8:	11812703          	lw	a4,280(sp)
   1a0dc:	00008897          	auipc	a7,0x8
   1a0e0:	44488893          	addi	a7,a7,1092 # 22520 <blanks.4525>
   1a0e4:	00700493          	li	s1,7
   1a0e8:	008dc863          	blt	s11,s0,1a0f8 <_svfprintf_r+0x1204>
   1a0ec:	0600006f          	j	1a14c <_svfprintf_r+0x1258>
   1a0f0:	ff04041b          	addiw	s0,s0,-16
   1a0f4:	048ddc63          	bge	s11,s0,1a14c <_svfprintf_r+0x1258>
   1a0f8:	0017071b          	addiw	a4,a4,1
   1a0fc:	01078793          	addi	a5,a5,16
   1a100:	01133023          	sd	a7,0(t1)
   1a104:	01b33423          	sd	s11,8(t1)
   1a108:	12f13023          	sd	a5,288(sp)
   1a10c:	10e12c23          	sw	a4,280(sp)
   1a110:	01030313          	addi	t1,t1,16
   1a114:	fce4dee3          	bge	s1,a4,1a0f0 <_svfprintf_r+0x11fc>
   1a118:	11010613          	addi	a2,sp,272
   1a11c:	000c0593          	mv	a1,s8
   1a120:	000b0513          	mv	a0,s6
   1a124:	01113c23          	sd	a7,24(sp)
   1a128:	441030ef          	jal	ra,1dd68 <__ssprint_r>
   1a12c:	00050463          	beqz	a0,1a134 <_svfprintf_r+0x1240>
   1a130:	fa1fe06f          	j	190d0 <_svfprintf_r+0x1dc>
   1a134:	ff04041b          	addiw	s0,s0,-16
   1a138:	12013783          	ld	a5,288(sp)
   1a13c:	11812703          	lw	a4,280(sp)
   1a140:	000b8313          	mv	t1,s7
   1a144:	01813883          	ld	a7,24(sp)
   1a148:	fa8dc8e3          	blt	s11,s0,1a0f8 <_svfprintf_r+0x1204>
   1a14c:	0017069b          	addiw	a3,a4,1
   1a150:	008787b3          	add	a5,a5,s0
   1a154:	01133023          	sd	a7,0(t1)
   1a158:	00833423          	sd	s0,8(t1)
   1a15c:	12f13023          	sd	a5,288(sp)
   1a160:	10d12c23          	sw	a3,280(sp)
   1a164:	00700713          	li	a4,7
   1a168:	cad75c63          	bge	a4,a3,19620 <_svfprintf_r+0x72c>
   1a16c:	11010613          	addi	a2,sp,272
   1a170:	000c0593          	mv	a1,s8
   1a174:	000b0513          	mv	a0,s6
   1a178:	3f1030ef          	jal	ra,1dd68 <__ssprint_r>
   1a17c:	00050463          	beqz	a0,1a184 <_svfprintf_r+0x1290>
   1a180:	f51fe06f          	j	190d0 <_svfprintf_r+0x1dc>
   1a184:	12013783          	ld	a5,288(sp)
   1a188:	c98ff06f          	j	19620 <_svfprintf_r+0x72c>
   1a18c:	00100693          	li	a3,1
   1a190:	36d706e3          	beq	a4,a3,1acfc <_svfprintf_r+0x1e08>
   1a194:	00200693          	li	a3,2
   1a198:	00040813          	mv	a6,s0
   1a19c:	b0d71a63          	bne	a4,a3,194b0 <_svfprintf_r+0x5bc>
   1a1a0:	18c10c93          	addi	s9,sp,396
   1a1a4:	000c8d13          	mv	s10,s9
   1a1a8:	03013783          	ld	a5,48(sp)
   1a1ac:	00faf693          	andi	a3,s5,15
   1a1b0:	fffd0d13          	addi	s10,s10,-1
   1a1b4:	00d786b3          	add	a3,a5,a3
   1a1b8:	0006c683          	lbu	a3,0(a3)
   1a1bc:	004ada93          	srli	s5,s5,0x4
   1a1c0:	00dd0023          	sb	a3,0(s10)
   1a1c4:	fe0a92e3          	bnez	s5,1a1a8 <_svfprintf_r+0x12b4>
   1a1c8:	41ac8cbb          	subw	s9,s9,s10
   1a1cc:	00080413          	mv	s0,a6
   1a1d0:	fe9fe06f          	j	191b8 <_svfprintf_r+0x2c4>
   1a1d4:	0e812583          	lw	a1,232(sp)
   1a1d8:	58b05863          	blez	a1,1a768 <_svfprintf_r+0x1874>
   1a1dc:	02813703          	ld	a4,40(sp)
   1a1e0:	06013683          	ld	a3,96(sp)
   1a1e4:	0007049b          	sext.w	s1,a4
   1a1e8:	2ae6c063          	blt	a3,a4,1a488 <_svfprintf_r+0x1594>
   1a1ec:	02905663          	blez	s1,1a218 <_svfprintf_r+0x1324>
   1a1f0:	11812683          	lw	a3,280(sp)
   1a1f4:	009787b3          	add	a5,a5,s1
   1a1f8:	01a33023          	sd	s10,0(t1)
   1a1fc:	0016861b          	addiw	a2,a3,1
   1a200:	00933423          	sd	s1,8(t1)
   1a204:	12f13023          	sd	a5,288(sp)
   1a208:	10c12c23          	sw	a2,280(sp)
   1a20c:	00700693          	li	a3,7
   1a210:	01030313          	addi	t1,t1,16
   1a214:	1ac6c4e3          	blt	a3,a2,1abbc <_svfprintf_r+0x1cc8>
   1a218:	fff4c693          	not	a3,s1
   1a21c:	06013703          	ld	a4,96(sp)
   1a220:	43f6d693          	srai	a3,a3,0x3f
   1a224:	00d4f4b3          	and	s1,s1,a3
   1a228:	409704bb          	subw	s1,a4,s1
   1a22c:	30904063          	bgtz	s1,1a52c <_svfprintf_r+0x1638>
   1a230:	06013703          	ld	a4,96(sp)
   1a234:	40047693          	andi	a3,s0,1024
   1a238:	00ed04b3          	add	s1,s10,a4
   1a23c:	34069863          	bnez	a3,1a58c <_svfprintf_r+0x1698>
   1a240:	0e812683          	lw	a3,232(sp)
   1a244:	02813703          	ld	a4,40(sp)
   1a248:	00e6c663          	blt	a3,a4,1a254 <_svfprintf_r+0x1360>
   1a24c:	00147613          	andi	a2,s0,1
   1a250:	1e060ae3          	beqz	a2,1ac44 <_svfprintf_r+0x1d50>
   1a254:	08013603          	ld	a2,128(sp)
   1a258:	07813703          	ld	a4,120(sp)
   1a25c:	01030313          	addi	t1,t1,16
   1a260:	fec33823          	sd	a2,-16(t1)
   1a264:	11812603          	lw	a2,280(sp)
   1a268:	00e787b3          	add	a5,a5,a4
   1a26c:	fee33c23          	sd	a4,-8(t1)
   1a270:	0016059b          	addiw	a1,a2,1
   1a274:	12f13023          	sd	a5,288(sp)
   1a278:	10b12c23          	sw	a1,280(sp)
   1a27c:	00700613          	li	a2,7
   1a280:	40b64ae3          	blt	a2,a1,1ae94 <_svfprintf_r+0x1fa0>
   1a284:	02813703          	ld	a4,40(sp)
   1a288:	40d706bb          	subw	a3,a4,a3
   1a28c:	00ed0733          	add	a4,s10,a4
   1a290:	4097063b          	subw	a2,a4,s1
   1a294:	0006871b          	sext.w	a4,a3
   1a298:	00e65463          	bge	a2,a4,1a2a0 <_svfprintf_r+0x13ac>
   1a29c:	00060693          	mv	a3,a2
   1a2a0:	00068c9b          	sext.w	s9,a3
   1a2a4:	03905663          	blez	s9,1a2d0 <_svfprintf_r+0x13dc>
   1a2a8:	11812683          	lw	a3,280(sp)
   1a2ac:	019787b3          	add	a5,a5,s9
   1a2b0:	00933023          	sd	s1,0(t1)
   1a2b4:	0016861b          	addiw	a2,a3,1
   1a2b8:	01933423          	sd	s9,8(t1)
   1a2bc:	12f13023          	sd	a5,288(sp)
   1a2c0:	10c12c23          	sw	a2,280(sp)
   1a2c4:	00700693          	li	a3,7
   1a2c8:	01030313          	addi	t1,t1,16
   1a2cc:	44c6cee3          	blt	a3,a2,1af28 <_svfprintf_r+0x2034>
   1a2d0:	fffcc493          	not	s1,s9
   1a2d4:	43f4d493          	srai	s1,s1,0x3f
   1a2d8:	009cf4b3          	and	s1,s9,s1
   1a2dc:	409704bb          	subw	s1,a4,s1
   1a2e0:	b2905863          	blez	s1,19610 <_svfprintf_r+0x71c>
   1a2e4:	11812703          	lw	a4,280(sp)
   1a2e8:	609dd463          	bge	s11,s1,1a8f0 <_svfprintf_r+0x19fc>
   1a2ec:	00700c93          	li	s9,7
   1a2f0:	00c0006f          	j	1a2fc <_svfprintf_r+0x1408>
   1a2f4:	ff04849b          	addiw	s1,s1,-16
   1a2f8:	5e9ddc63          	bge	s11,s1,1a8f0 <_svfprintf_r+0x19fc>
   1a2fc:	0017071b          	addiw	a4,a4,1
   1a300:	01078793          	addi	a5,a5,16
   1a304:	01333023          	sd	s3,0(t1)
   1a308:	01b33423          	sd	s11,8(t1)
   1a30c:	12f13023          	sd	a5,288(sp)
   1a310:	10e12c23          	sw	a4,280(sp)
   1a314:	01030313          	addi	t1,t1,16
   1a318:	fcecdee3          	bge	s9,a4,1a2f4 <_svfprintf_r+0x1400>
   1a31c:	11010613          	addi	a2,sp,272
   1a320:	000c0593          	mv	a1,s8
   1a324:	000b0513          	mv	a0,s6
   1a328:	241030ef          	jal	ra,1dd68 <__ssprint_r>
   1a32c:	00050463          	beqz	a0,1a334 <_svfprintf_r+0x1440>
   1a330:	da1fe06f          	j	190d0 <_svfprintf_r+0x1dc>
   1a334:	12013783          	ld	a5,288(sp)
   1a338:	11812703          	lw	a4,280(sp)
   1a33c:	000b8313          	mv	t1,s7
   1a340:	fb5ff06f          	j	1a2f4 <_svfprintf_r+0x1400>
   1a344:	00147593          	andi	a1,s0,1
   1a348:	b8059c63          	bnez	a1,196e0 <_svfprintf_r+0x7ec>
   1a34c:	00c33423          	sd	a2,8(t1)
   1a350:	13913023          	sd	s9,288(sp)
   1a354:	10f12c23          	sw	a5,280(sp)
   1a358:	00700713          	li	a4,7
   1a35c:	3cf74e63          	blt	a4,a5,1a738 <_svfprintf_r+0x1844>
   1a360:	002e8e9b          	addiw	t4,t4,2
   1a364:	02030313          	addi	t1,t1,32
   1a368:	c48ff06f          	j	197b0 <_svfprintf_r+0x8bc>
   1a36c:	c5005263          	blez	a6,197b0 <_svfprintf_r+0x8bc>
   1a370:	010dc463          	blt	s11,a6,1a378 <_svfprintf_r+0x1484>
   1a374:	1f80106f          	j	1b56c <_svfprintf_r+0x2678>
   1a378:	00700d13          	li	s10,7
   1a37c:	0100006f          	j	1a38c <_svfprintf_r+0x1498>
   1a380:	ff08081b          	addiw	a6,a6,-16
   1a384:	710ddc63          	bge	s11,a6,1aa9c <_svfprintf_r+0x1ba8>
   1a388:	0017889b          	addiw	a7,a5,1
   1a38c:	010c8c93          	addi	s9,s9,16
   1a390:	0134b023          	sd	s3,0(s1)
   1a394:	01b4b423          	sd	s11,8(s1)
   1a398:	13913023          	sd	s9,288(sp)
   1a39c:	0008879b          	sext.w	a5,a7
   1a3a0:	11112c23          	sw	a7,280(sp)
   1a3a4:	01048493          	addi	s1,s1,16
   1a3a8:	fcfd5ce3          	bge	s10,a5,1a380 <_svfprintf_r+0x148c>
   1a3ac:	11010613          	addi	a2,sp,272
   1a3b0:	000c0593          	mv	a1,s8
   1a3b4:	000b0513          	mv	a0,s6
   1a3b8:	01013c23          	sd	a6,24(sp)
   1a3bc:	1ad030ef          	jal	ra,1dd68 <__ssprint_r>
   1a3c0:	00050463          	beqz	a0,1a3c8 <_svfprintf_r+0x14d4>
   1a3c4:	d0dfe06f          	j	190d0 <_svfprintf_r+0x1dc>
   1a3c8:	12013c83          	ld	s9,288(sp)
   1a3cc:	11812783          	lw	a5,280(sp)
   1a3d0:	000b8493          	mv	s1,s7
   1a3d4:	01813803          	ld	a6,24(sp)
   1a3d8:	fa9ff06f          	j	1a380 <_svfprintf_r+0x148c>
   1a3dc:	000d0493          	mv	s1,s10
   1a3e0:	c4dfe06f          	j	1902c <_svfprintf_r+0x138>
   1a3e4:	11010613          	addi	a2,sp,272
   1a3e8:	000c0593          	mv	a1,s8
   1a3ec:	000b0513          	mv	a0,s6
   1a3f0:	179030ef          	jal	ra,1dd68 <__ssprint_r>
   1a3f4:	00050463          	beqz	a0,1a3fc <_svfprintf_r+0x1508>
   1a3f8:	cd9fe06f          	j	190d0 <_svfprintf_r+0x1dc>
   1a3fc:	12013c83          	ld	s9,288(sp)
   1a400:	11812783          	lw	a5,280(sp)
   1a404:	000b8493          	mv	s1,s7
   1a408:	af0ff06f          	j	196f8 <_svfprintf_r+0x804>
   1a40c:	11010613          	addi	a2,sp,272
   1a410:	000c0593          	mv	a1,s8
   1a414:	000b0513          	mv	a0,s6
   1a418:	151030ef          	jal	ra,1dd68 <__ssprint_r>
   1a41c:	00050463          	beqz	a0,1a424 <_svfprintf_r+0x1530>
   1a420:	cb1fe06f          	j	190d0 <_svfprintf_r+0x1dc>
   1a424:	12013c83          	ld	s9,288(sp)
   1a428:	11812783          	lw	a5,280(sp)
   1a42c:	000b8493          	mv	s1,s7
   1a430:	af8ff06f          	j	19728 <_svfprintf_r+0x834>
   1a434:	03000793          	li	a5,48
   1a438:	18f105a3          	sb	a5,395(sp)
   1a43c:	18b10d13          	addi	s10,sp,395
   1a440:	d79fe06f          	j	191b8 <_svfprintf_r+0x2c4>
   1a444:	00040813          	mv	a6,s0
   1a448:	82cff06f          	j	19474 <_svfprintf_r+0x580>
   1a44c:	01013783          	ld	a5,16(sp)
   1a450:	00f78793          	addi	a5,a5,15
   1a454:	ff07f793          	andi	a5,a5,-16
   1a458:	0007b603          	ld	a2,0(a5)
   1a45c:	0087b683          	ld	a3,8(a5)
   1a460:	01078793          	addi	a5,a5,16
   1a464:	00f13823          	sd	a5,16(sp)
   1a468:	10c13023          	sd	a2,256(sp)
   1a46c:	10d13423          	sd	a3,264(sp)
   1a470:	da0ff06f          	j	19a10 <_svfprintf_r+0xb1c>
   1a474:	00040813          	mv	a6,s0
   1a478:	e7dfe06f          	j	192f4 <_svfprintf_r+0x400>
   1a47c:	01013783          	ld	a5,16(sp)
   1a480:	0007ba83          	ld	s5,0(a5)
   1a484:	cd1fe06f          	j	19154 <_svfprintf_r+0x260>
   1a488:	0006849b          	sext.w	s1,a3
   1a48c:	d69042e3          	bgtz	s1,1a1f0 <_svfprintf_r+0x12fc>
   1a490:	d89ff06f          	j	1a218 <_svfprintf_r+0x1324>
   1a494:	11010613          	addi	a2,sp,272
   1a498:	000c0593          	mv	a1,s8
   1a49c:	000b0513          	mv	a0,s6
   1a4a0:	0c9030ef          	jal	ra,1dd68 <__ssprint_r>
   1a4a4:	00050463          	beqz	a0,1a4ac <_svfprintf_r+0x15b8>
   1a4a8:	c29fe06f          	j	190d0 <_svfprintf_r+0x1dc>
   1a4ac:	12013783          	ld	a5,288(sp)
   1a4b0:	000b8313          	mv	t1,s7
   1a4b4:	911ff06f          	j	19dc4 <_svfprintf_r+0xed0>
   1a4b8:	20046413          	ori	s0,s0,512
   1a4bc:	00194483          	lbu	s1,1(s2)
   1a4c0:	0004041b          	sext.w	s0,s0
   1a4c4:	00190913          	addi	s2,s2,1
   1a4c8:	b85fe06f          	j	1904c <_svfprintf_r+0x158>
   1a4cc:	02046413          	ori	s0,s0,32
   1a4d0:	00194483          	lbu	s1,1(s2)
   1a4d4:	0004041b          	sext.w	s0,s0
   1a4d8:	00190913          	addi	s2,s2,1
   1a4dc:	b71fe06f          	j	1904c <_svfprintf_r+0x158>
   1a4e0:	04000593          	li	a1,64
   1a4e4:	000b0513          	mv	a0,s6
   1a4e8:	fccfc0ef          	jal	ra,16cb4 <_malloc_r>
   1a4ec:	00ac3023          	sd	a0,0(s8)
   1a4f0:	00ac3c23          	sd	a0,24(s8)
   1a4f4:	00051463          	bnez	a0,1a4fc <_svfprintf_r+0x1608>
   1a4f8:	0cc0106f          	j	1b5c4 <_svfprintf_r+0x26d0>
   1a4fc:	04000793          	li	a5,64
   1a500:	02fc2023          	sw	a5,32(s8)
   1a504:	a71fe06f          	j	18f74 <_svfprintf_r+0x80>
   1a508:	000e871b          	sext.w	a4,t4
   1a50c:	00600793          	li	a5,6
   1a510:	72e7e663          	bltu	a5,a4,1ac3c <_svfprintf_r+0x1d48>
   1a514:	000e8c9b          	sext.w	s9,t4
   1a518:	000c8a93          	mv	s5,s9
   1a51c:	00d13823          	sd	a3,16(sp)
   1a520:	00008d17          	auipc	s10,0x8
   1a524:	aa0d0d13          	addi	s10,s10,-1376 # 21fc0 <zeroes.4541+0x90>
   1a528:	ffdfe06f          	j	19524 <_svfprintf_r+0x630>
   1a52c:	11812683          	lw	a3,280(sp)
   1a530:	629ddc63          	bge	s11,s1,1ab68 <_svfprintf_r+0x1c74>
   1a534:	00700c93          	li	s9,7
   1a538:	00c0006f          	j	1a544 <_svfprintf_r+0x1650>
   1a53c:	ff04849b          	addiw	s1,s1,-16
   1a540:	629dd463          	bge	s11,s1,1ab68 <_svfprintf_r+0x1c74>
   1a544:	0016869b          	addiw	a3,a3,1
   1a548:	01078793          	addi	a5,a5,16
   1a54c:	01333023          	sd	s3,0(t1)
   1a550:	01b33423          	sd	s11,8(t1)
   1a554:	12f13023          	sd	a5,288(sp)
   1a558:	10d12c23          	sw	a3,280(sp)
   1a55c:	01030313          	addi	t1,t1,16
   1a560:	fcdcdee3          	bge	s9,a3,1a53c <_svfprintf_r+0x1648>
   1a564:	11010613          	addi	a2,sp,272
   1a568:	000c0593          	mv	a1,s8
   1a56c:	000b0513          	mv	a0,s6
   1a570:	7f8030ef          	jal	ra,1dd68 <__ssprint_r>
   1a574:	00050463          	beqz	a0,1a57c <_svfprintf_r+0x1688>
   1a578:	b59fe06f          	j	190d0 <_svfprintf_r+0x1dc>
   1a57c:	12013783          	ld	a5,288(sp)
   1a580:	11812683          	lw	a3,280(sp)
   1a584:	000b8313          	mv	t1,s7
   1a588:	fb5ff06f          	j	1a53c <_svfprintf_r+0x1648>
   1a58c:	02813703          	ld	a4,40(sp)
   1a590:	00700813          	li	a6,7
   1a594:	00ed0733          	add	a4,s10,a4
   1a598:	00e13c23          	sd	a4,24(sp)
   1a59c:	06813703          	ld	a4,104(sp)
   1a5a0:	0c070263          	beqz	a4,1a664 <_svfprintf_r+0x1770>
   1a5a4:	05813703          	ld	a4,88(sp)
   1a5a8:	0c071263          	bnez	a4,1a66c <_svfprintf_r+0x1778>
   1a5ac:	07013703          	ld	a4,112(sp)
   1a5b0:	fff70713          	addi	a4,a4,-1
   1a5b4:	06e13823          	sd	a4,112(sp)
   1a5b8:	06813703          	ld	a4,104(sp)
   1a5bc:	fff7071b          	addiw	a4,a4,-1
   1a5c0:	06e13423          	sd	a4,104(sp)
   1a5c4:	09813683          	ld	a3,152(sp)
   1a5c8:	08813703          	ld	a4,136(sp)
   1a5cc:	01030313          	addi	t1,t1,16
   1a5d0:	fed33823          	sd	a3,-16(t1)
   1a5d4:	11812683          	lw	a3,280(sp)
   1a5d8:	00e787b3          	add	a5,a5,a4
   1a5dc:	fee33c23          	sd	a4,-8(t1)
   1a5e0:	0016861b          	addiw	a2,a3,1
   1a5e4:	12f13023          	sd	a5,288(sp)
   1a5e8:	10c12c23          	sw	a2,280(sp)
   1a5ec:	12c84263          	blt	a6,a2,1a710 <_svfprintf_r+0x181c>
   1a5f0:	07013703          	ld	a4,112(sp)
   1a5f4:	00074603          	lbu	a2,0(a4)
   1a5f8:	01813703          	ld	a4,24(sp)
   1a5fc:	00060c9b          	sext.w	s9,a2
   1a600:	409705bb          	subw	a1,a4,s1
   1a604:	000c869b          	sext.w	a3,s9
   1a608:	0195d463          	bge	a1,s9,1a610 <_svfprintf_r+0x171c>
   1a60c:	0005869b          	sext.w	a3,a1
   1a610:	02d05a63          	blez	a3,1a644 <_svfprintf_r+0x1750>
   1a614:	11812603          	lw	a2,280(sp)
   1a618:	00d787b3          	add	a5,a5,a3
   1a61c:	00933023          	sd	s1,0(t1)
   1a620:	0016059b          	addiw	a1,a2,1
   1a624:	00d33423          	sd	a3,8(t1)
   1a628:	12f13023          	sd	a5,288(sp)
   1a62c:	10b12c23          	sw	a1,280(sp)
   1a630:	2eb84463          	blt	a6,a1,1a918 <_svfprintf_r+0x1a24>
   1a634:	07013703          	ld	a4,112(sp)
   1a638:	01030313          	addi	t1,t1,16
   1a63c:	00074603          	lbu	a2,0(a4)
   1a640:	00060c9b          	sext.w	s9,a2
   1a644:	fff6c593          	not	a1,a3
   1a648:	43f5d593          	srai	a1,a1,0x3f
   1a64c:	00b6f6b3          	and	a3,a3,a1
   1a650:	40dc8cbb          	subw	s9,s9,a3
   1a654:	03904463          	bgtz	s9,1a67c <_svfprintf_r+0x1788>
   1a658:	00c484b3          	add	s1,s1,a2
   1a65c:	06813703          	ld	a4,104(sp)
   1a660:	f40712e3          	bnez	a4,1a5a4 <_svfprintf_r+0x16b0>
   1a664:	05813703          	ld	a4,88(sp)
   1a668:	68070e63          	beqz	a4,1ad04 <_svfprintf_r+0x1e10>
   1a66c:	05813703          	ld	a4,88(sp)
   1a670:	fff7071b          	addiw	a4,a4,-1
   1a674:	04e13c23          	sd	a4,88(sp)
   1a678:	f4dff06f          	j	1a5c4 <_svfprintf_r+0x16d0>
   1a67c:	11812683          	lw	a3,280(sp)
   1a680:	019dc863          	blt	s11,s9,1a690 <_svfprintf_r+0x179c>
   1a684:	05c0006f          	j	1a6e0 <_svfprintf_r+0x17ec>
   1a688:	ff0c8c9b          	addiw	s9,s9,-16
   1a68c:	059dda63          	bge	s11,s9,1a6e0 <_svfprintf_r+0x17ec>
   1a690:	0016869b          	addiw	a3,a3,1
   1a694:	01078793          	addi	a5,a5,16
   1a698:	01333023          	sd	s3,0(t1)
   1a69c:	01b33423          	sd	s11,8(t1)
   1a6a0:	12f13023          	sd	a5,288(sp)
   1a6a4:	10d12c23          	sw	a3,280(sp)
   1a6a8:	01030313          	addi	t1,t1,16
   1a6ac:	fcd85ee3          	bge	a6,a3,1a688 <_svfprintf_r+0x1794>
   1a6b0:	11010613          	addi	a2,sp,272
   1a6b4:	000c0593          	mv	a1,s8
   1a6b8:	000b0513          	mv	a0,s6
   1a6bc:	6ac030ef          	jal	ra,1dd68 <__ssprint_r>
   1a6c0:	00050463          	beqz	a0,1a6c8 <_svfprintf_r+0x17d4>
   1a6c4:	a0dfe06f          	j	190d0 <_svfprintf_r+0x1dc>
   1a6c8:	ff0c8c9b          	addiw	s9,s9,-16
   1a6cc:	12013783          	ld	a5,288(sp)
   1a6d0:	11812683          	lw	a3,280(sp)
   1a6d4:	000b8313          	mv	t1,s7
   1a6d8:	00700813          	li	a6,7
   1a6dc:	fb9dcae3          	blt	s11,s9,1a690 <_svfprintf_r+0x179c>
   1a6e0:	0016861b          	addiw	a2,a3,1
   1a6e4:	019787b3          	add	a5,a5,s9
   1a6e8:	01333023          	sd	s3,0(t1)
   1a6ec:	01933423          	sd	s9,8(t1)
   1a6f0:	12f13023          	sd	a5,288(sp)
   1a6f4:	10c12c23          	sw	a2,280(sp)
   1a6f8:	74c84e63          	blt	a6,a2,1ae54 <_svfprintf_r+0x1f60>
   1a6fc:	07013703          	ld	a4,112(sp)
   1a700:	01030313          	addi	t1,t1,16
   1a704:	00074603          	lbu	a2,0(a4)
   1a708:	00c484b3          	add	s1,s1,a2
   1a70c:	f51ff06f          	j	1a65c <_svfprintf_r+0x1768>
   1a710:	11010613          	addi	a2,sp,272
   1a714:	000c0593          	mv	a1,s8
   1a718:	000b0513          	mv	a0,s6
   1a71c:	64c030ef          	jal	ra,1dd68 <__ssprint_r>
   1a720:	00050463          	beqz	a0,1a728 <_svfprintf_r+0x1834>
   1a724:	9adfe06f          	j	190d0 <_svfprintf_r+0x1dc>
   1a728:	12013783          	ld	a5,288(sp)
   1a72c:	000b8313          	mv	t1,s7
   1a730:	00700813          	li	a6,7
   1a734:	ebdff06f          	j	1a5f0 <_svfprintf_r+0x16fc>
   1a738:	11010613          	addi	a2,sp,272
   1a73c:	000c0593          	mv	a1,s8
   1a740:	000b0513          	mv	a0,s6
   1a744:	624030ef          	jal	ra,1dd68 <__ssprint_r>
   1a748:	00050463          	beqz	a0,1a750 <_svfprintf_r+0x185c>
   1a74c:	985fe06f          	j	190d0 <_svfprintf_r+0x1dc>
   1a750:	11812e83          	lw	t4,280(sp)
   1a754:	12013c83          	ld	s9,288(sp)
   1a758:	1a010313          	addi	t1,sp,416
   1a75c:	001e8e9b          	addiw	t4,t4,1
   1a760:	000b8493          	mv	s1,s7
   1a764:	84cff06f          	j	197b0 <_svfprintf_r+0x8bc>
   1a768:	11812683          	lw	a3,280(sp)
   1a76c:	00008617          	auipc	a2,0x8
   1a770:	85c60613          	addi	a2,a2,-1956 # 21fc8 <zeroes.4541+0x98>
   1a774:	00c33023          	sd	a2,0(t1)
   1a778:	0016869b          	addiw	a3,a3,1
   1a77c:	00100613          	li	a2,1
   1a780:	00178793          	addi	a5,a5,1
   1a784:	00c33423          	sd	a2,8(t1)
   1a788:	10d12c23          	sw	a3,280(sp)
   1a78c:	0006861b          	sext.w	a2,a3
   1a790:	12f13023          	sd	a5,288(sp)
   1a794:	00700693          	li	a3,7
   1a798:	01030313          	addi	t1,t1,16
   1a79c:	06c6cc63          	blt	a3,a2,1a814 <_svfprintf_r+0x1920>
   1a7a0:	26059263          	bnez	a1,1aa04 <_svfprintf_r+0x1b10>
   1a7a4:	02813703          	ld	a4,40(sp)
   1a7a8:	00147693          	andi	a3,s0,1
   1a7ac:	00d766b3          	or	a3,a4,a3
   1a7b0:	00069463          	bnez	a3,1a7b8 <_svfprintf_r+0x18c4>
   1a7b4:	e5dfe06f          	j	19610 <_svfprintf_r+0x71c>
   1a7b8:	11812603          	lw	a2,280(sp)
   1a7bc:	07813703          	ld	a4,120(sp)
   1a7c0:	08013683          	ld	a3,128(sp)
   1a7c4:	00e787b3          	add	a5,a5,a4
   1a7c8:	00d33023          	sd	a3,0(t1)
   1a7cc:	0016069b          	addiw	a3,a2,1
   1a7d0:	00e33423          	sd	a4,8(t1)
   1a7d4:	12f13023          	sd	a5,288(sp)
   1a7d8:	10d12c23          	sw	a3,280(sp)
   1a7dc:	00700613          	li	a2,7
   1a7e0:	4ed64263          	blt	a2,a3,1acc4 <_svfprintf_r+0x1dd0>
   1a7e4:	01030313          	addi	t1,t1,16
   1a7e8:	02813703          	ld	a4,40(sp)
   1a7ec:	0016861b          	addiw	a2,a3,1
   1a7f0:	01a33023          	sd	s10,0(t1)
   1a7f4:	00f707b3          	add	a5,a4,a5
   1a7f8:	00e33423          	sd	a4,8(t1)
   1a7fc:	12f13023          	sd	a5,288(sp)
   1a800:	10c12c23          	sw	a2,280(sp)
   1a804:	00700713          	li	a4,7
   1a808:	00c74463          	blt	a4,a2,1a810 <_svfprintf_r+0x191c>
   1a80c:	e01fe06f          	j	1960c <_svfprintf_r+0x718>
   1a810:	fc5fe06f          	j	197d4 <_svfprintf_r+0x8e0>
   1a814:	11010613          	addi	a2,sp,272
   1a818:	000c0593          	mv	a1,s8
   1a81c:	000b0513          	mv	a0,s6
   1a820:	548030ef          	jal	ra,1dd68 <__ssprint_r>
   1a824:	00050463          	beqz	a0,1a82c <_svfprintf_r+0x1938>
   1a828:	8a9fe06f          	j	190d0 <_svfprintf_r+0x1dc>
   1a82c:	0e812583          	lw	a1,232(sp)
   1a830:	12013783          	ld	a5,288(sp)
   1a834:	000b8313          	mv	t1,s7
   1a838:	f69ff06f          	j	1a7a0 <_svfprintf_r+0x18ac>
   1a83c:	40087413          	andi	s0,a6,1024
   1a840:	18c10c93          	addi	s9,sp,396
   1a844:	0004041b          	sext.w	s0,s0
   1a848:	02013423          	sd	zero,40(sp)
   1a84c:	000c8d13          	mv	s10,s9
   1a850:	00a00593          	li	a1,10
   1a854:	000a8513          	mv	a0,s5
   1a858:	02613c23          	sd	t1,56(sp)
   1a85c:	03d13023          	sd	t4,32(sp)
   1a860:	01013c23          	sd	a6,24(sp)
   1a864:	35c070ef          	jal	ra,21bc0 <__umoddi3>
   1a868:	02813783          	ld	a5,40(sp)
   1a86c:	0305051b          	addiw	a0,a0,48
   1a870:	fead0fa3          	sb	a0,-1(s10)
   1a874:	0017879b          	addiw	a5,a5,1
   1a878:	02f13423          	sd	a5,40(sp)
   1a87c:	fffd0d13          	addi	s10,s10,-1
   1a880:	01813803          	ld	a6,24(sp)
   1a884:	02013e83          	ld	t4,32(sp)
   1a888:	03813303          	ld	t1,56(sp)
   1a88c:	00040863          	beqz	s0,1a89c <_svfprintf_r+0x19a8>
   1a890:	07013703          	ld	a4,112(sp)
   1a894:	00074683          	lbu	a3,0(a4)
   1a898:	c4d78a63          	beq	a5,a3,19cec <_svfprintf_r+0xdf8>
   1a89c:	00a00593          	li	a1,10
   1a8a0:	000a8513          	mv	a0,s5
   1a8a4:	02613c23          	sd	t1,56(sp)
   1a8a8:	03d13023          	sd	t4,32(sp)
   1a8ac:	01013c23          	sd	a6,24(sp)
   1a8b0:	2c8070ef          	jal	ra,21b78 <__udivdi3>
   1a8b4:	00900793          	li	a5,9
   1a8b8:	01813803          	ld	a6,24(sp)
   1a8bc:	02013e83          	ld	t4,32(sp)
   1a8c0:	03813303          	ld	t1,56(sp)
   1a8c4:	c357fc63          	bgeu	a5,s5,19cfc <_svfprintf_r+0xe08>
   1a8c8:	00050a93          	mv	s5,a0
   1a8cc:	f85ff06f          	j	1a850 <_svfprintf_r+0x195c>
   1a8d0:	11010613          	addi	a2,sp,272
   1a8d4:	000c0593          	mv	a1,s8
   1a8d8:	000b0513          	mv	a0,s6
   1a8dc:	48c030ef          	jal	ra,1dd68 <__ssprint_r>
   1a8e0:	00050463          	beqz	a0,1a8e8 <_svfprintf_r+0x19f4>
   1a8e4:	fecfe06f          	j	190d0 <_svfprintf_r+0x1dc>
   1a8e8:	000b8313          	mv	t1,s7
   1a8ec:	c84ff06f          	j	19d70 <_svfprintf_r+0xe7c>
   1a8f0:	0017069b          	addiw	a3,a4,1
   1a8f4:	01333023          	sd	s3,0(t1)
   1a8f8:	00933423          	sd	s1,8(t1)
   1a8fc:	009787b3          	add	a5,a5,s1
   1a900:	12f13023          	sd	a5,288(sp)
   1a904:	10d12c23          	sw	a3,280(sp)
   1a908:	00700713          	li	a4,7
   1a90c:	00d74463          	blt	a4,a3,1a914 <_svfprintf_r+0x1a20>
   1a910:	cfdfe06f          	j	1960c <_svfprintf_r+0x718>
   1a914:	ec1fe06f          	j	197d4 <_svfprintf_r+0x8e0>
   1a918:	11010613          	addi	a2,sp,272
   1a91c:	000c0593          	mv	a1,s8
   1a920:	000b0513          	mv	a0,s6
   1a924:	02d13c23          	sd	a3,56(sp)
   1a928:	440030ef          	jal	ra,1dd68 <__ssprint_r>
   1a92c:	00050463          	beqz	a0,1a934 <_svfprintf_r+0x1a40>
   1a930:	fa0fe06f          	j	190d0 <_svfprintf_r+0x1dc>
   1a934:	07013783          	ld	a5,112(sp)
   1a938:	000b8313          	mv	t1,s7
   1a93c:	00700813          	li	a6,7
   1a940:	0007c603          	lbu	a2,0(a5)
   1a944:	03813683          	ld	a3,56(sp)
   1a948:	12013783          	ld	a5,288(sp)
   1a94c:	00060c9b          	sext.w	s9,a2
   1a950:	cf5ff06f          	j	1a644 <_svfprintf_r+0x1750>
   1a954:	10013503          	ld	a0,256(sp)
   1a958:	10813583          	ld	a1,264(sp)
   1a95c:	00000613          	li	a2,0
   1a960:	00000693          	li	a3,0
   1a964:	00613c23          	sd	t1,24(sp)
   1a968:	7b8050ef          	jal	ra,20120 <__letf2>
   1a96c:	01813303          	ld	t1,24(sp)
   1a970:	50054c63          	bltz	a0,1ae88 <_svfprintf_r+0x1f94>
   1a974:	0df14783          	lbu	a5,223(sp)
   1a978:	04700693          	li	a3,71
   1a97c:	00007d17          	auipc	s10,0x7
   1a980:	5f4d0d13          	addi	s10,s10,1524 # 21f70 <zeroes.4541+0x40>
   1a984:	2296c663          	blt	a3,s1,1abb0 <_svfprintf_r+0x1cbc>
   1a988:	f7f47413          	andi	s0,s0,-129
   1a98c:	02013023          	sd	zero,32(sp)
   1a990:	04013c23          	sd	zero,88(sp)
   1a994:	06013423          	sd	zero,104(sp)
   1a998:	06013023          	sd	zero,96(sp)
   1a99c:	0004041b          	sext.w	s0,s0
   1a9a0:	00300a93          	li	s5,3
   1a9a4:	00300c93          	li	s9,3
   1a9a8:	00000e93          	li	t4,0
   1a9ac:	00078463          	beqz	a5,1a9b4 <_svfprintf_r+0x1ac0>
   1a9b0:	82dfe06f          	j	191dc <_svfprintf_r+0x2e8>
   1a9b4:	b85fe06f          	j	19538 <_svfprintf_r+0x644>
   1a9b8:	000d0513          	mv	a0,s10
   1a9bc:	00613c23          	sd	t1,24(sp)
   1a9c0:	00d13823          	sd	a3,16(sp)
   1a9c4:	b90fe0ef          	jal	ra,18d54 <strlen>
   1a9c8:	00050c9b          	sext.w	s9,a0
   1a9cc:	fffcca93          	not	s5,s9
   1a9d0:	0df14783          	lbu	a5,223(sp)
   1a9d4:	43fada93          	srai	s5,s5,0x3f
   1a9d8:	015cfab3          	and	s5,s9,s5
   1a9dc:	02013023          	sd	zero,32(sp)
   1a9e0:	04013c23          	sd	zero,88(sp)
   1a9e4:	06013423          	sd	zero,104(sp)
   1a9e8:	06013023          	sd	zero,96(sp)
   1a9ec:	000a8a9b          	sext.w	s5,s5
   1a9f0:	00000e93          	li	t4,0
   1a9f4:	01813303          	ld	t1,24(sp)
   1a9f8:	00078463          	beqz	a5,1aa00 <_svfprintf_r+0x1b0c>
   1a9fc:	fe0fe06f          	j	191dc <_svfprintf_r+0x2e8>
   1aa00:	b39fe06f          	j	19538 <_svfprintf_r+0x644>
   1aa04:	11812603          	lw	a2,280(sp)
   1aa08:	07813703          	ld	a4,120(sp)
   1aa0c:	08013683          	ld	a3,128(sp)
   1aa10:	01030313          	addi	t1,t1,16
   1aa14:	00e787b3          	add	a5,a5,a4
   1aa18:	fed33823          	sd	a3,-16(t1)
   1aa1c:	0016069b          	addiw	a3,a2,1
   1aa20:	fee33c23          	sd	a4,-8(t1)
   1aa24:	12f13023          	sd	a5,288(sp)
   1aa28:	10d12c23          	sw	a3,280(sp)
   1aa2c:	00700613          	li	a2,7
   1aa30:	28d64a63          	blt	a2,a3,1acc4 <_svfprintf_r+0x1dd0>
   1aa34:	da05dae3          	bgez	a1,1a7e8 <_svfprintf_r+0x18f4>
   1aa38:	ff000613          	li	a2,-16
   1aa3c:	40b004bb          	negw	s1,a1
   1aa40:	0ec5dee3          	bge	a1,a2,1b33c <_svfprintf_r+0x2448>
   1aa44:	00700c93          	li	s9,7
   1aa48:	00c0006f          	j	1aa54 <_svfprintf_r+0x1b60>
   1aa4c:	ff04849b          	addiw	s1,s1,-16
   1aa50:	0e9dd6e3          	bge	s11,s1,1b33c <_svfprintf_r+0x2448>
   1aa54:	0016869b          	addiw	a3,a3,1
   1aa58:	01078793          	addi	a5,a5,16
   1aa5c:	01333023          	sd	s3,0(t1)
   1aa60:	01b33423          	sd	s11,8(t1)
   1aa64:	12f13023          	sd	a5,288(sp)
   1aa68:	10d12c23          	sw	a3,280(sp)
   1aa6c:	01030313          	addi	t1,t1,16
   1aa70:	fcdcdee3          	bge	s9,a3,1aa4c <_svfprintf_r+0x1b58>
   1aa74:	11010613          	addi	a2,sp,272
   1aa78:	000c0593          	mv	a1,s8
   1aa7c:	000b0513          	mv	a0,s6
   1aa80:	2e8030ef          	jal	ra,1dd68 <__ssprint_r>
   1aa84:	00050463          	beqz	a0,1aa8c <_svfprintf_r+0x1b98>
   1aa88:	e48fe06f          	j	190d0 <_svfprintf_r+0x1dc>
   1aa8c:	12013783          	ld	a5,288(sp)
   1aa90:	11812683          	lw	a3,280(sp)
   1aa94:	000b8313          	mv	t1,s7
   1aa98:	fb5ff06f          	j	1aa4c <_svfprintf_r+0x1b58>
   1aa9c:	00178e9b          	addiw	t4,a5,1
   1aaa0:	01048793          	addi	a5,s1,16
   1aaa4:	010c8cb3          	add	s9,s9,a6
   1aaa8:	0134b023          	sd	s3,0(s1)
   1aaac:	0104b423          	sd	a6,8(s1)
   1aab0:	13913023          	sd	s9,288(sp)
   1aab4:	11d12c23          	sw	t4,280(sp)
   1aab8:	00700713          	li	a4,7
   1aabc:	c7d74ee3          	blt	a4,t4,1a738 <_svfprintf_r+0x1844>
   1aac0:	001e8e9b          	addiw	t4,t4,1
   1aac4:	01078313          	addi	t1,a5,16
   1aac8:	00078493          	mv	s1,a5
   1aacc:	ce5fe06f          	j	197b0 <_svfprintf_r+0x8bc>
   1aad0:	20047713          	andi	a4,s0,512
   1aad4:	0ff7fa93          	andi	s5,a5,255
   1aad8:	00070463          	beqz	a4,1aae0 <_svfprintf_r+0x1bec>
   1aadc:	e78fe06f          	j	19154 <_svfprintf_r+0x260>
   1aae0:	02079a93          	slli	s5,a5,0x20
   1aae4:	020ada93          	srli	s5,s5,0x20
   1aae8:	e6cfe06f          	j	19154 <_svfprintf_r+0x260>
   1aaec:	20047693          	andi	a3,s0,512
   1aaf0:	1a068e63          	beqz	a3,1acac <_svfprintf_r+0x1db8>
   1aaf4:	0ff7fa93          	andi	s5,a5,255
   1aaf8:	00e13823          	sd	a4,16(sp)
   1aafc:	8bdfe06f          	j	193b8 <_svfprintf_r+0x4c4>
   1ab00:	20047713          	andi	a4,s0,512
   1ab04:	18070863          	beqz	a4,1ac94 <_svfprintf_r+0x1da0>
   1ab08:	0ff7fa93          	andi	s5,a5,255
   1ab0c:	00d13823          	sd	a3,16(sp)
   1ab10:	00040813          	mv	a6,s0
   1ab14:	00100713          	li	a4,1
   1ab18:	e6cfe06f          	j	19184 <_svfprintf_r+0x290>
   1ab1c:	20047793          	andi	a5,s0,512
   1ab20:	14078e63          	beqz	a5,1ac7c <_svfprintf_r+0x1d88>
   1ab24:	01013783          	ld	a5,16(sp)
   1ab28:	00040813          	mv	a6,s0
   1ab2c:	00d13823          	sd	a3,16(sp)
   1ab30:	00078a83          	lb	s5,0(a5)
   1ab34:	000a8713          	mv	a4,s5
   1ab38:	8edfe06f          	j	19424 <_svfprintf_r+0x530>
   1ab3c:	10813783          	ld	a5,264(sp)
   1ab40:	1607de63          	bgez	a5,1acbc <_svfprintf_r+0x1dc8>
   1ab44:	02d00793          	li	a5,45
   1ab48:	0cf10fa3          	sb	a5,223(sp)
   1ab4c:	04700693          	li	a3,71
   1ab50:	00007d17          	auipc	s10,0x7
   1ab54:	430d0d13          	addi	s10,s10,1072 # 21f80 <zeroes.4541+0x50>
   1ab58:	e296d8e3          	bge	a3,s1,1a988 <_svfprintf_r+0x1a94>
   1ab5c:	00007d17          	auipc	s10,0x7
   1ab60:	42cd0d13          	addi	s10,s10,1068 # 21f88 <zeroes.4541+0x58>
   1ab64:	e25ff06f          	j	1a988 <_svfprintf_r+0x1a94>
   1ab68:	0016861b          	addiw	a2,a3,1
   1ab6c:	009787b3          	add	a5,a5,s1
   1ab70:	01333023          	sd	s3,0(t1)
   1ab74:	00933423          	sd	s1,8(t1)
   1ab78:	12f13023          	sd	a5,288(sp)
   1ab7c:	10c12c23          	sw	a2,280(sp)
   1ab80:	00700693          	li	a3,7
   1ab84:	01030313          	addi	t1,t1,16
   1ab88:	eac6d463          	bge	a3,a2,1a230 <_svfprintf_r+0x133c>
   1ab8c:	11010613          	addi	a2,sp,272
   1ab90:	000c0593          	mv	a1,s8
   1ab94:	000b0513          	mv	a0,s6
   1ab98:	1d0030ef          	jal	ra,1dd68 <__ssprint_r>
   1ab9c:	00050463          	beqz	a0,1aba4 <_svfprintf_r+0x1cb0>
   1aba0:	d30fe06f          	j	190d0 <_svfprintf_r+0x1dc>
   1aba4:	12013783          	ld	a5,288(sp)
   1aba8:	000b8313          	mv	t1,s7
   1abac:	e84ff06f          	j	1a230 <_svfprintf_r+0x133c>
   1abb0:	00007d17          	auipc	s10,0x7
   1abb4:	3c8d0d13          	addi	s10,s10,968 # 21f78 <zeroes.4541+0x48>
   1abb8:	dd1ff06f          	j	1a988 <_svfprintf_r+0x1a94>
   1abbc:	11010613          	addi	a2,sp,272
   1abc0:	000c0593          	mv	a1,s8
   1abc4:	000b0513          	mv	a0,s6
   1abc8:	1a0030ef          	jal	ra,1dd68 <__ssprint_r>
   1abcc:	00050463          	beqz	a0,1abd4 <_svfprintf_r+0x1ce0>
   1abd0:	d00fe06f          	j	190d0 <_svfprintf_r+0x1dc>
   1abd4:	12013783          	ld	a5,288(sp)
   1abd8:	000b8313          	mv	t1,s7
   1abdc:	e3cff06f          	j	1a218 <_svfprintf_r+0x1324>
   1abe0:	08813783          	ld	a5,136(sp)
   1abe4:	09813583          	ld	a1,152(sp)
   1abe8:	02613c23          	sd	t1,56(sp)
   1abec:	40fd0d33          	sub	s10,s10,a5
   1abf0:	00078613          	mv	a2,a5
   1abf4:	000d0513          	mv	a0,s10
   1abf8:	03d13023          	sd	t4,32(sp)
   1abfc:	01013c23          	sd	a6,24(sp)
   1ac00:	a24fe0ef          	jal	ra,18e24 <strncpy>
   1ac04:	07013703          	ld	a4,112(sp)
   1ac08:	000a8513          	mv	a0,s5
   1ac0c:	00a00593          	li	a1,10
   1ac10:	00174683          	lbu	a3,1(a4)
   1ac14:	02013423          	sd	zero,40(sp)
   1ac18:	00d037b3          	snez	a5,a3
   1ac1c:	00f707b3          	add	a5,a4,a5
   1ac20:	06f13823          	sd	a5,112(sp)
   1ac24:	755060ef          	jal	ra,21b78 <__udivdi3>
   1ac28:	01813803          	ld	a6,24(sp)
   1ac2c:	02013e83          	ld	t4,32(sp)
   1ac30:	03813303          	ld	t1,56(sp)
   1ac34:	00050a93          	mv	s5,a0
   1ac38:	c19ff06f          	j	1a850 <_svfprintf_r+0x195c>
   1ac3c:	00600e93          	li	t4,6
   1ac40:	8d5ff06f          	j	1a514 <_svfprintf_r+0x1620>
   1ac44:	02813703          	ld	a4,40(sp)
   1ac48:	40d706bb          	subw	a3,a4,a3
   1ac4c:	00ed0733          	add	a4,s10,a4
   1ac50:	409708bb          	subw	a7,a4,s1
   1ac54:	0006871b          	sext.w	a4,a3
   1ac58:	00068493          	mv	s1,a3
   1ac5c:	00e8d463          	bge	a7,a4,1ac64 <_svfprintf_r+0x1d70>
   1ac60:	00088493          	mv	s1,a7
   1ac64:	00048c9b          	sext.w	s9,s1
   1ac68:	e68ff06f          	j	1a2d0 <_svfprintf_r+0x13dc>
   1ac6c:	00813783          	ld	a5,8(sp)
   1ac70:	00090d13          	mv	s10,s2
   1ac74:	00f71023          	sh	a5,0(a4)
   1ac78:	9e5fe06f          	j	1965c <_svfprintf_r+0x768>
   1ac7c:	01013783          	ld	a5,16(sp)
   1ac80:	00040813          	mv	a6,s0
   1ac84:	00d13823          	sd	a3,16(sp)
   1ac88:	0007aa83          	lw	s5,0(a5)
   1ac8c:	000a8713          	mv	a4,s5
   1ac90:	f94fe06f          	j	19424 <_svfprintf_r+0x530>
   1ac94:	02079a93          	slli	s5,a5,0x20
   1ac98:	020ada93          	srli	s5,s5,0x20
   1ac9c:	00d13823          	sd	a3,16(sp)
   1aca0:	00040813          	mv	a6,s0
   1aca4:	00100713          	li	a4,1
   1aca8:	cdcfe06f          	j	19184 <_svfprintf_r+0x290>
   1acac:	02079a93          	slli	s5,a5,0x20
   1acb0:	020ada93          	srli	s5,s5,0x20
   1acb4:	00e13823          	sd	a4,16(sp)
   1acb8:	f00fe06f          	j	193b8 <_svfprintf_r+0x4c4>
   1acbc:	0df14783          	lbu	a5,223(sp)
   1acc0:	e8dff06f          	j	1ab4c <_svfprintf_r+0x1c58>
   1acc4:	11010613          	addi	a2,sp,272
   1acc8:	000c0593          	mv	a1,s8
   1accc:	000b0513          	mv	a0,s6
   1acd0:	098030ef          	jal	ra,1dd68 <__ssprint_r>
   1acd4:	00050463          	beqz	a0,1acdc <_svfprintf_r+0x1de8>
   1acd8:	bf8fe06f          	j	190d0 <_svfprintf_r+0x1dc>
   1acdc:	0e812583          	lw	a1,232(sp)
   1ace0:	12013783          	ld	a5,288(sp)
   1ace4:	11812683          	lw	a3,280(sp)
   1ace8:	000b8313          	mv	t1,s7
   1acec:	ae05dee3          	bgez	a1,1a7e8 <_svfprintf_r+0x18f4>
   1acf0:	d49ff06f          	j	1aa38 <_svfprintf_r+0x1b44>
   1acf4:	00600e93          	li	t4,6
   1acf8:	d81fe06f          	j	19a78 <_svfprintf_r+0xb84>
   1acfc:	00040813          	mv	a6,s0
   1ad00:	fd5fe06f          	j	19cd4 <_svfprintf_r+0xde0>
   1ad04:	02813703          	ld	a4,40(sp)
   1ad08:	00ed06b3          	add	a3,s10,a4
   1ad0c:	d296fa63          	bgeu	a3,s1,1a240 <_svfprintf_r+0x134c>
   1ad10:	00068493          	mv	s1,a3
   1ad14:	d2cff06f          	j	1a240 <_svfprintf_r+0x134c>
   1ad18:	06013703          	ld	a4,96(sp)
   1ad1c:	ffd00793          	li	a5,-3
   1ad20:	00f74463          	blt	a4,a5,1ad28 <_svfprintf_r+0x1e34>
   1ad24:	00eeda63          	bge	t4,a4,1ad38 <_svfprintf_r+0x1e44>
   1ad28:	ffe4849b          	addiw	s1,s1,-2
   1ad2c:	fdf4f793          	andi	a5,s1,-33
   1ad30:	0af13423          	sd	a5,168(sp)
   1ad34:	e21fe06f          	j	19b54 <_svfprintf_r+0xc60>
   1ad38:	02813783          	ld	a5,40(sp)
   1ad3c:	06013703          	ld	a4,96(sp)
   1ad40:	24f74e63          	blt	a4,a5,1af9c <_svfprintf_r+0x20a8>
   1ad44:	0b013783          	ld	a5,176(sp)
   1ad48:	00070c93          	mv	s9,a4
   1ad4c:	0017f793          	andi	a5,a5,1
   1ad50:	00078663          	beqz	a5,1ad5c <_svfprintf_r+0x1e68>
   1ad54:	07813783          	ld	a5,120(sp)
   1ad58:	00e78cbb          	addw	s9,a5,a4
   1ad5c:	0b013783          	ld	a5,176(sp)
   1ad60:	4007f793          	andi	a5,a5,1024
   1ad64:	00078663          	beqz	a5,1ad70 <_svfprintf_r+0x1e7c>
   1ad68:	06013783          	ld	a5,96(sp)
   1ad6c:	6ef04e63          	bgtz	a5,1b468 <_svfprintf_r+0x2574>
   1ad70:	fffcca93          	not	s5,s9
   1ad74:	43fada93          	srai	s5,s5,0x3f
   1ad78:	015cfab3          	and	s5,s9,s5
   1ad7c:	000a8a9b          	sext.w	s5,s5
   1ad80:	06700493          	li	s1,103
   1ad84:	04013c23          	sd	zero,88(sp)
   1ad88:	06013423          	sd	zero,104(sp)
   1ad8c:	f0dfe06f          	j	19c98 <_svfprintf_r+0xda4>
   1ad90:	0df14783          	lbu	a5,223(sp)
   1ad94:	00000e93          	li	t4,0
   1ad98:	00078463          	beqz	a5,1ada0 <_svfprintf_r+0x1eac>
   1ad9c:	c40fe06f          	j	191dc <_svfprintf_r+0x2e8>
   1ada0:	f98fe06f          	j	19538 <_svfprintf_r+0x644>
   1ada4:	0e810793          	addi	a5,sp,232
   1ada8:	000e8713          	mv	a4,t4
   1adac:	00300693          	li	a3,3
   1adb0:	000f0593          	mv	a1,t5
   1adb4:	0f810893          	addi	a7,sp,248
   1adb8:	0ec10813          	addi	a6,sp,236
   1adbc:	000c8613          	mv	a2,s9
   1adc0:	000b0513          	mv	a0,s6
   1adc4:	02613c23          	sd	t1,56(sp)
   1adc8:	03d13423          	sd	t4,40(sp)
   1adcc:	01e13c23          	sd	t5,24(sp)
   1add0:	8d9fa0ef          	jal	ra,156a8 <_ldtoa_r>
   1add4:	00054683          	lbu	a3,0(a0)
   1add8:	03000793          	li	a5,48
   1addc:	00050d13          	mv	s10,a0
   1ade0:	01813f03          	ld	t5,24(sp)
   1ade4:	02813e83          	ld	t4,40(sp)
   1ade8:	03813303          	ld	t1,56(sp)
   1adec:	0cf68863          	beq	a3,a5,1aebc <_svfprintf_r+0x1fc8>
   1adf0:	0e812783          	lw	a5,232(sp)
   1adf4:	01d787b3          	add	a5,a5,t4
   1adf8:	00fd0ab3          	add	s5,s10,a5
   1adfc:	00000613          	li	a2,0
   1ae00:	00000693          	li	a3,0
   1ae04:	000f0513          	mv	a0,t5
   1ae08:	000c8593          	mv	a1,s9
   1ae0c:	02613423          	sd	t1,40(sp)
   1ae10:	01d13c23          	sd	t4,24(sp)
   1ae14:	14c050ef          	jal	ra,1ff60 <__eqtf2>
   1ae18:	000a8793          	mv	a5,s5
   1ae1c:	01813e83          	ld	t4,24(sp)
   1ae20:	02813303          	ld	t1,40(sp)
   1ae24:	00051463          	bnez	a0,1ae2c <_svfprintf_r+0x1f38>
   1ae28:	cfdfe06f          	j	19b24 <_svfprintf_r+0xc30>
   1ae2c:	0f813783          	ld	a5,248(sp)
   1ae30:	03000613          	li	a2,48
   1ae34:	0157e463          	bltu	a5,s5,1ae3c <_svfprintf_r+0x1f48>
   1ae38:	cedfe06f          	j	19b24 <_svfprintf_r+0xc30>
   1ae3c:	00178693          	addi	a3,a5,1
   1ae40:	0ed13c23          	sd	a3,248(sp)
   1ae44:	00c78023          	sb	a2,0(a5)
   1ae48:	0f813783          	ld	a5,248(sp)
   1ae4c:	ff57e8e3          	bltu	a5,s5,1ae3c <_svfprintf_r+0x1f48>
   1ae50:	cd5fe06f          	j	19b24 <_svfprintf_r+0xc30>
   1ae54:	11010613          	addi	a2,sp,272
   1ae58:	000c0593          	mv	a1,s8
   1ae5c:	000b0513          	mv	a0,s6
   1ae60:	709020ef          	jal	ra,1dd68 <__ssprint_r>
   1ae64:	00050463          	beqz	a0,1ae6c <_svfprintf_r+0x1f78>
   1ae68:	a68fe06f          	j	190d0 <_svfprintf_r+0x1dc>
   1ae6c:	07013783          	ld	a5,112(sp)
   1ae70:	000b8313          	mv	t1,s7
   1ae74:	00700813          	li	a6,7
   1ae78:	0007c603          	lbu	a2,0(a5)
   1ae7c:	12013783          	ld	a5,288(sp)
   1ae80:	00c484b3          	add	s1,s1,a2
   1ae84:	fd8ff06f          	j	1a65c <_svfprintf_r+0x1768>
   1ae88:	02d00793          	li	a5,45
   1ae8c:	0cf10fa3          	sb	a5,223(sp)
   1ae90:	ae9ff06f          	j	1a978 <_svfprintf_r+0x1a84>
   1ae94:	11010613          	addi	a2,sp,272
   1ae98:	000c0593          	mv	a1,s8
   1ae9c:	000b0513          	mv	a0,s6
   1aea0:	6c9020ef          	jal	ra,1dd68 <__ssprint_r>
   1aea4:	00050463          	beqz	a0,1aeac <_svfprintf_r+0x1fb8>
   1aea8:	a28fe06f          	j	190d0 <_svfprintf_r+0x1dc>
   1aeac:	0e812683          	lw	a3,232(sp)
   1aeb0:	12013783          	ld	a5,288(sp)
   1aeb4:	000b8313          	mv	t1,s7
   1aeb8:	bccff06f          	j	1a284 <_svfprintf_r+0x1390>
   1aebc:	000f0513          	mv	a0,t5
   1aec0:	00000613          	li	a2,0
   1aec4:	00000693          	li	a3,0
   1aec8:	000c8593          	mv	a1,s9
   1aecc:	02613c23          	sd	t1,56(sp)
   1aed0:	03d13423          	sd	t4,40(sp)
   1aed4:	01e13c23          	sd	t5,24(sp)
   1aed8:	088050ef          	jal	ra,1ff60 <__eqtf2>
   1aedc:	01813f03          	ld	t5,24(sp)
   1aee0:	02813e83          	ld	t4,40(sp)
   1aee4:	03813303          	ld	t1,56(sp)
   1aee8:	f00504e3          	beqz	a0,1adf0 <_svfprintf_r+0x1efc>
   1aeec:	00100693          	li	a3,1
   1aef0:	41d687bb          	subw	a5,a3,t4
   1aef4:	0ef12423          	sw	a5,232(sp)
   1aef8:	efdff06f          	j	1adf4 <_svfprintf_r+0x1f00>
   1aefc:	0df14783          	lbu	a5,223(sp)
   1af00:	00d13823          	sd	a3,16(sp)
   1af04:	04013c23          	sd	zero,88(sp)
   1af08:	06013423          	sd	zero,104(sp)
   1af0c:	06013023          	sd	zero,96(sp)
   1af10:	000e8a93          	mv	s5,t4
   1af14:	000e8c93          	mv	s9,t4
   1af18:	00000e93          	li	t4,0
   1af1c:	00078463          	beqz	a5,1af24 <_svfprintf_r+0x2030>
   1af20:	abcfe06f          	j	191dc <_svfprintf_r+0x2e8>
   1af24:	e14fe06f          	j	19538 <_svfprintf_r+0x644>
   1af28:	11010613          	addi	a2,sp,272
   1af2c:	000c0593          	mv	a1,s8
   1af30:	000b0513          	mv	a0,s6
   1af34:	635020ef          	jal	ra,1dd68 <__ssprint_r>
   1af38:	00050463          	beqz	a0,1af40 <_svfprintf_r+0x204c>
   1af3c:	994fe06f          	j	190d0 <_svfprintf_r+0x1dc>
   1af40:	0e812703          	lw	a4,232(sp)
   1af44:	02813683          	ld	a3,40(sp)
   1af48:	12013783          	ld	a5,288(sp)
   1af4c:	000b8313          	mv	t1,s7
   1af50:	40e6873b          	subw	a4,a3,a4
   1af54:	b7cff06f          	j	1a2d0 <_svfprintf_r+0x13dc>
   1af58:	0b013783          	ld	a5,176(sp)
   1af5c:	06013703          	ld	a4,96(sp)
   1af60:	0017f793          	andi	a5,a5,1
   1af64:	00fee7b3          	or	a5,t4,a5
   1af68:	0007879b          	sext.w	a5,a5
   1af6c:	5ce05263          	blez	a4,1b530 <_svfprintf_r+0x263c>
   1af70:	58079c63          	bnez	a5,1b508 <_svfprintf_r+0x2614>
   1af74:	06013c83          	ld	s9,96(sp)
   1af78:	06600493          	li	s1,102
   1af7c:	0b013783          	ld	a5,176(sp)
   1af80:	4007f793          	andi	a5,a5,1024
   1af84:	4e079463          	bnez	a5,1b46c <_svfprintf_r+0x2578>
   1af88:	fffcca93          	not	s5,s9
   1af8c:	43fada93          	srai	s5,s5,0x3f
   1af90:	015cfab3          	and	s5,s9,s5
   1af94:	000a8a9b          	sext.w	s5,s5
   1af98:	dedff06f          	j	1ad84 <_svfprintf_r+0x1e90>
   1af9c:	02813703          	ld	a4,40(sp)
   1afa0:	07813783          	ld	a5,120(sp)
   1afa4:	06700493          	li	s1,103
   1afa8:	00e78cbb          	addw	s9,a5,a4
   1afac:	06013703          	ld	a4,96(sp)
   1afb0:	fce046e3          	bgtz	a4,1af7c <_svfprintf_r+0x2088>
   1afb4:	40ec87bb          	subw	a5,s9,a4
   1afb8:	0017879b          	addiw	a5,a5,1
   1afbc:	00078c9b          	sext.w	s9,a5
   1afc0:	fffcca93          	not	s5,s9
   1afc4:	43fada93          	srai	s5,s5,0x3f
   1afc8:	0157f7b3          	and	a5,a5,s5
   1afcc:	00078a9b          	sext.w	s5,a5
   1afd0:	db5ff06f          	j	1ad84 <_svfprintf_r+0x1e90>
   1afd4:	03000793          	li	a5,48
   1afd8:	0ef10023          	sb	a5,224(sp)
   1afdc:	05800713          	li	a4,88
   1afe0:	00246793          	ori	a5,s0,2
   1afe4:	0007879b          	sext.w	a5,a5
   1afe8:	0ee100a3          	sb	a4,225(sp)
   1afec:	06300693          	li	a3,99
   1aff0:	0af13823          	sd	a5,176(sp)
   1aff4:	02013023          	sd	zero,32(sp)
   1aff8:	12810d13          	addi	s10,sp,296
   1affc:	2dd6c663          	blt	a3,t4,1b2c8 <_svfprintf_r+0x23d4>
   1b000:	10813c83          	ld	s9,264(sp)
   1b004:	fdf4f793          	andi	a5,s1,-33
   1b008:	10246413          	ori	s0,s0,258
   1b00c:	0af13423          	sd	a5,168(sp)
   1b010:	0c013423          	sd	zero,200(sp)
   1b014:	0004041b          	sext.w	s0,s0
   1b018:	10013f03          	ld	t5,256(sp)
   1b01c:	220cca63          	bltz	s9,1b250 <_svfprintf_r+0x235c>
   1b020:	06100793          	li	a5,97
   1b024:	3cf48863          	beq	s1,a5,1b3f4 <_svfprintf_r+0x2500>
   1b028:	04100793          	li	a5,65
   1b02c:	00f48463          	beq	s1,a5,1b034 <_svfprintf_r+0x2140>
   1b030:	a71fe06f          	j	19aa0 <_svfprintf_r+0xbac>
   1b034:	000f0513          	mv	a0,t5
   1b038:	000c8593          	mv	a1,s9
   1b03c:	04613023          	sd	t1,64(sp)
   1b040:	03d13c23          	sd	t4,56(sp)
   1b044:	7d0060ef          	jal	ra,21814 <__trunctfdf2>
   1b048:	0e810593          	addi	a1,sp,232
   1b04c:	ff0fd0ef          	jal	ra,1883c <frexp>
   1b050:	6a4060ef          	jal	ra,216f4 <__extenddftf2>
   1b054:	00007797          	auipc	a5,0x7
   1b058:	f0c78793          	addi	a5,a5,-244 # 21f60 <zeroes.4541+0x30>
   1b05c:	0087b683          	ld	a3,8(a5)
   1b060:	00000613          	li	a2,0
   1b064:	1a4050ef          	jal	ra,20208 <__multf3>
   1b068:	00000613          	li	a2,0
   1b06c:	00000693          	li	a3,0
   1b070:	02a13423          	sd	a0,40(sp)
   1b074:	00b13c23          	sd	a1,24(sp)
   1b078:	6e9040ef          	jal	ra,1ff60 <__eqtf2>
   1b07c:	01813f83          	ld	t6,24(sp)
   1b080:	02813f03          	ld	t5,40(sp)
   1b084:	03813e83          	ld	t4,56(sp)
   1b088:	04013303          	ld	t1,64(sp)
   1b08c:	00051663          	bnez	a0,1b098 <_svfprintf_r+0x21a4>
   1b090:	00100793          	li	a5,1
   1b094:	0ef12423          	sw	a5,232(sp)
   1b098:	00007797          	auipc	a5,0x7
   1b09c:	f1078793          	addi	a5,a5,-240 # 21fa8 <zeroes.4541+0x78>
   1b0a0:	06f13423          	sd	a5,104(sp)
   1b0a4:	000e879b          	sext.w	a5,t4
   1b0a8:	02079c93          	slli	s9,a5,0x20
   1b0ac:	00fd07bb          	addw	a5,s10,a5
   1b0b0:	0af12e23          	sw	a5,188(sp)
   1b0b4:	00007797          	auipc	a5,0x7
   1b0b8:	e8c78793          	addi	a5,a5,-372 # 21f40 <zeroes.4541+0x10>
   1b0bc:	0087b783          	ld	a5,8(a5)
   1b0c0:	020cdc93          	srli	s9,s9,0x20
   1b0c4:	001c8c93          	addi	s9,s9,1
   1b0c8:	019d0cb3          	add	s9,s10,s9
   1b0cc:	01a13c23          	sd	s10,24(sp)
   1b0d0:	0cf13023          	sd	a5,192(sp)
   1b0d4:	03c0006f          	j	1b110 <_svfprintf_r+0x221c>
   1b0d8:	00000613          	li	a2,0
   1b0dc:	00000693          	li	a3,0
   1b0e0:	06b13023          	sd	a1,96(sp)
   1b0e4:	04a13c23          	sd	a0,88(sp)
   1b0e8:	679040ef          	jal	ra,1ff60 <__eqtf2>
   1b0ec:	04013e83          	ld	t4,64(sp)
   1b0f0:	04813303          	ld	t1,72(sp)
   1b0f4:	05813883          	ld	a7,88(sp)
   1b0f8:	06013803          	ld	a6,96(sp)
   1b0fc:	02813783          	ld	a5,40(sp)
   1b100:	03813f83          	ld	t6,56(sp)
   1b104:	05013f03          	ld	t5,80(sp)
   1b108:	2a050463          	beqz	a0,1b3b0 <_svfprintf_r+0x24bc>
   1b10c:	00f13c23          	sd	a5,24(sp)
   1b110:	0c013683          	ld	a3,192(sp)
   1b114:	00000613          	li	a2,0
   1b118:	000f0513          	mv	a0,t5
   1b11c:	000f8593          	mv	a1,t6
   1b120:	04613423          	sd	t1,72(sp)
   1b124:	05d13023          	sd	t4,64(sp)
   1b128:	0e0050ef          	jal	ra,20208 <__multf3>
   1b12c:	02b13423          	sd	a1,40(sp)
   1b130:	02a13c23          	sd	a0,56(sp)
   1b134:	45c060ef          	jal	ra,21590 <__fixtfsi>
   1b138:	00050a9b          	sext.w	s5,a0
   1b13c:	000a8513          	mv	a0,s5
   1b140:	524060ef          	jal	ra,21664 <__floatsitf>
   1b144:	03813803          	ld	a6,56(sp)
   1b148:	02813783          	ld	a5,40(sp)
   1b14c:	00058693          	mv	a3,a1
   1b150:	00050613          	mv	a2,a0
   1b154:	00078593          	mv	a1,a5
   1b158:	00080513          	mv	a0,a6
   1b15c:	19d050ef          	jal	ra,20af8 <__subtf3>
   1b160:	06813783          	ld	a5,104(sp)
   1b164:	0bc12703          	lw	a4,188(sp)
   1b168:	04a13823          	sd	a0,80(sp)
   1b16c:	015787b3          	add	a5,a5,s5
   1b170:	0007c683          	lbu	a3,0(a5)
   1b174:	01813783          	ld	a5,24(sp)
   1b178:	02b13c23          	sd	a1,56(sp)
   1b17c:	00050893          	mv	a7,a0
   1b180:	00d78023          	sb	a3,0(a5)
   1b184:	00178793          	addi	a5,a5,1
   1b188:	40f7073b          	subw	a4,a4,a5
   1b18c:	0ae13023          	sd	a4,160(sp)
   1b190:	02f13423          	sd	a5,40(sp)
   1b194:	00058813          	mv	a6,a1
   1b198:	04013e83          	ld	t4,64(sp)
   1b19c:	04813303          	ld	t1,72(sp)
   1b1a0:	f2fc9ce3          	bne	s9,a5,1b0d8 <_svfprintf_r+0x21e4>
   1b1a4:	fff00793          	li	a5,-1
   1b1a8:	0af13023          	sd	a5,160(sp)
   1b1ac:	00007797          	auipc	a5,0x7
   1b1b0:	da478793          	addi	a5,a5,-604 # 21f50 <zeroes.4541+0x20>
   1b1b4:	0087b783          	ld	a5,8(a5)
   1b1b8:	00000613          	li	a2,0
   1b1bc:	00088513          	mv	a0,a7
   1b1c0:	00078693          	mv	a3,a5
   1b1c4:	00080593          	mv	a1,a6
   1b1c8:	04613023          	sd	t1,64(sp)
   1b1cc:	03d13c23          	sd	t4,56(sp)
   1b1d0:	02f13423          	sd	a5,40(sp)
   1b1d4:	05113823          	sd	a7,80(sp)
   1b1d8:	05013423          	sd	a6,72(sp)
   1b1dc:	65d040ef          	jal	ra,20038 <__getf2>
   1b1e0:	03813e83          	ld	t4,56(sp)
   1b1e4:	04013303          	ld	t1,64(sp)
   1b1e8:	08a04063          	bgtz	a0,1b268 <_svfprintf_r+0x2374>
   1b1ec:	05013883          	ld	a7,80(sp)
   1b1f0:	04813803          	ld	a6,72(sp)
   1b1f4:	02813683          	ld	a3,40(sp)
   1b1f8:	00000613          	li	a2,0
   1b1fc:	00088513          	mv	a0,a7
   1b200:	00080593          	mv	a1,a6
   1b204:	55d040ef          	jal	ra,1ff60 <__eqtf2>
   1b208:	03813e83          	ld	t4,56(sp)
   1b20c:	04013303          	ld	t1,64(sp)
   1b210:	00051663          	bnez	a0,1b21c <_svfprintf_r+0x2328>
   1b214:	001afa93          	andi	s5,s5,1
   1b218:	040a9863          	bnez	s5,1b268 <_svfprintf_r+0x2374>
   1b21c:	0a013703          	ld	a4,160(sp)
   1b220:	03000693          	li	a3,48
   1b224:	00170793          	addi	a5,a4,1
   1b228:	00fc87b3          	add	a5,s9,a5
   1b22c:	00074863          	bltz	a4,1b23c <_svfprintf_r+0x2348>
   1b230:	001c8c93          	addi	s9,s9,1
   1b234:	fedc8fa3          	sb	a3,-1(s9)
   1b238:	ff979ce3          	bne	a5,s9,1b230 <_svfprintf_r+0x233c>
   1b23c:	41ac87bb          	subw	a5,s9,s10
   1b240:	02f13423          	sd	a5,40(sp)
   1b244:	8e9fe06f          	j	19b2c <_svfprintf_r+0xc38>
   1b248:	02013023          	sd	zero,32(sp)
   1b24c:	00078413          	mv	s0,a5
   1b250:	fff00793          	li	a5,-1
   1b254:	03f79793          	slli	a5,a5,0x3f
   1b258:	00fcccb3          	xor	s9,s9,a5
   1b25c:	02d00793          	li	a5,45
   1b260:	0cf13423          	sd	a5,200(sp)
   1b264:	dbdff06f          	j	1b020 <_svfprintf_r+0x212c>
   1b268:	01813783          	ld	a5,24(sp)
   1b26c:	0ef13c23          	sd	a5,248(sp)
   1b270:	06813783          	ld	a5,104(sp)
   1b274:	fffcc683          	lbu	a3,-1(s9)
   1b278:	00f7c603          	lbu	a2,15(a5)
   1b27c:	000c8793          	mv	a5,s9
   1b280:	02d61063          	bne	a2,a3,1b2a0 <_svfprintf_r+0x23ac>
   1b284:	03000593          	li	a1,48
   1b288:	feb78fa3          	sb	a1,-1(a5)
   1b28c:	0f813783          	ld	a5,248(sp)
   1b290:	fff78693          	addi	a3,a5,-1
   1b294:	0ed13c23          	sd	a3,248(sp)
   1b298:	fff7c683          	lbu	a3,-1(a5)
   1b29c:	fed606e3          	beq	a2,a3,1b288 <_svfprintf_r+0x2394>
   1b2a0:	0016861b          	addiw	a2,a3,1
   1b2a4:	03900593          	li	a1,57
   1b2a8:	0ff67613          	andi	a2,a2,255
   1b2ac:	00b68663          	beq	a3,a1,1b2b8 <_svfprintf_r+0x23c4>
   1b2b0:	fec78fa3          	sb	a2,-1(a5)
   1b2b4:	f89ff06f          	j	1b23c <_svfprintf_r+0x2348>
   1b2b8:	06813703          	ld	a4,104(sp)
   1b2bc:	00a74603          	lbu	a2,10(a4)
   1b2c0:	fec78fa3          	sb	a2,-1(a5)
   1b2c4:	f79ff06f          	j	1b23c <_svfprintf_r+0x2348>
   1b2c8:	001e859b          	addiw	a1,t4,1
   1b2cc:	000b0513          	mv	a0,s6
   1b2d0:	02613023          	sd	t1,32(sp)
   1b2d4:	01d13c23          	sd	t4,24(sp)
   1b2d8:	9ddfb0ef          	jal	ra,16cb4 <_malloc_r>
   1b2dc:	00050d13          	mv	s10,a0
   1b2e0:	01813e83          	ld	t4,24(sp)
   1b2e4:	02013303          	ld	t1,32(sp)
   1b2e8:	2c050463          	beqz	a0,1b5b0 <_svfprintf_r+0x26bc>
   1b2ec:	02a13023          	sd	a0,32(sp)
   1b2f0:	d11ff06f          	j	1b000 <_svfprintf_r+0x210c>
   1b2f4:	001e8a9b          	addiw	s5,t4,1
   1b2f8:	000a8713          	mv	a4,s5
   1b2fc:	000f0593          	mv	a1,t5
   1b300:	0f810893          	addi	a7,sp,248
   1b304:	0ec10813          	addi	a6,sp,236
   1b308:	0e810793          	addi	a5,sp,232
   1b30c:	00200693          	li	a3,2
   1b310:	000c8613          	mv	a2,s9
   1b314:	000b0513          	mv	a0,s6
   1b318:	03d13423          	sd	t4,40(sp)
   1b31c:	01e13c23          	sd	t5,24(sp)
   1b320:	b88fa0ef          	jal	ra,156a8 <_ldtoa_r>
   1b324:	00050d13          	mv	s10,a0
   1b328:	01813f03          	ld	t5,24(sp)
   1b32c:	02813e83          	ld	t4,40(sp)
   1b330:	03813303          	ld	t1,56(sp)
   1b334:	015d0ab3          	add	s5,s10,s5
   1b338:	ac5ff06f          	j	1adfc <_svfprintf_r+0x1f08>
   1b33c:	0016869b          	addiw	a3,a3,1
   1b340:	009787b3          	add	a5,a5,s1
   1b344:	01333023          	sd	s3,0(t1)
   1b348:	00933423          	sd	s1,8(t1)
   1b34c:	12f13023          	sd	a5,288(sp)
   1b350:	10d12c23          	sw	a3,280(sp)
   1b354:	00700613          	li	a2,7
   1b358:	c8d65663          	bge	a2,a3,1a7e4 <_svfprintf_r+0x18f0>
   1b35c:	11010613          	addi	a2,sp,272
   1b360:	000c0593          	mv	a1,s8
   1b364:	000b0513          	mv	a0,s6
   1b368:	201020ef          	jal	ra,1dd68 <__ssprint_r>
   1b36c:	00050463          	beqz	a0,1b374 <_svfprintf_r+0x2480>
   1b370:	d61fd06f          	j	190d0 <_svfprintf_r+0x1dc>
   1b374:	12013783          	ld	a5,288(sp)
   1b378:	11812683          	lw	a3,280(sp)
   1b37c:	000b8313          	mv	t1,s7
   1b380:	c68ff06f          	j	1a7e8 <_svfprintf_r+0x18f4>
   1b384:	03000793          	li	a5,48
   1b388:	0ef10023          	sb	a5,224(sp)
   1b38c:	07800713          	li	a4,120
   1b390:	c51ff06f          	j	1afe0 <_svfprintf_r+0x20ec>
   1b394:	000e8463          	beqz	t4,1b39c <_svfprintf_r+0x24a8>
   1b398:	ee0fe06f          	j	19a78 <_svfprintf_r+0xb84>
   1b39c:	00100e93          	li	t4,1
   1b3a0:	ed8fe06f          	j	19a78 <_svfprintf_r+0xb84>
   1b3a4:	00f72023          	sw	a5,0(a4)
   1b3a8:	00090d13          	mv	s10,s2
   1b3ac:	ab0fe06f          	j	1965c <_svfprintf_r+0x768>
   1b3b0:	00078c93          	mv	s9,a5
   1b3b4:	df9ff06f          	j	1b1ac <_svfprintf_r+0x22b8>
   1b3b8:	fff00793          	li	a5,-1
   1b3bc:	00f13423          	sd	a5,8(sp)
   1b3c0:	d35fd06f          	j	190f4 <_svfprintf_r+0x200>
   1b3c4:	0f210693          	addi	a3,sp,242
   1b3c8:	00061863          	bnez	a2,1b3d8 <_svfprintf_r+0x24e4>
   1b3cc:	03000793          	li	a5,48
   1b3d0:	0ef10923          	sb	a5,242(sp)
   1b3d4:	0f310693          	addi	a3,sp,243
   1b3d8:	21010713          	addi	a4,sp,528
   1b3dc:	030a879b          	addiw	a5,s5,48
   1b3e0:	40e68633          	sub	a2,a3,a4
   1b3e4:	00f68023          	sb	a5,0(a3)
   1b3e8:	1216079b          	addiw	a5,a2,289
   1b3ec:	08f13823          	sd	a5,144(sp)
   1b3f0:	859fe06f          	j	19c48 <_svfprintf_r+0xd54>
   1b3f4:	000f0513          	mv	a0,t5
   1b3f8:	000c8593          	mv	a1,s9
   1b3fc:	04613023          	sd	t1,64(sp)
   1b400:	03d13c23          	sd	t4,56(sp)
   1b404:	410060ef          	jal	ra,21814 <__trunctfdf2>
   1b408:	0e810593          	addi	a1,sp,232
   1b40c:	c30fd0ef          	jal	ra,1883c <frexp>
   1b410:	2e4060ef          	jal	ra,216f4 <__extenddftf2>
   1b414:	00007797          	auipc	a5,0x7
   1b418:	b4c78793          	addi	a5,a5,-1204 # 21f60 <zeroes.4541+0x30>
   1b41c:	0087b683          	ld	a3,8(a5)
   1b420:	00000613          	li	a2,0
   1b424:	5e5040ef          	jal	ra,20208 <__multf3>
   1b428:	00000613          	li	a2,0
   1b42c:	00000693          	li	a3,0
   1b430:	02a13423          	sd	a0,40(sp)
   1b434:	00b13c23          	sd	a1,24(sp)
   1b438:	329040ef          	jal	ra,1ff60 <__eqtf2>
   1b43c:	01813f83          	ld	t6,24(sp)
   1b440:	02813f03          	ld	t5,40(sp)
   1b444:	03813e83          	ld	t4,56(sp)
   1b448:	04013303          	ld	t1,64(sp)
   1b44c:	00051663          	bnez	a0,1b458 <_svfprintf_r+0x2564>
   1b450:	00100793          	li	a5,1
   1b454:	0ef12423          	sw	a5,232(sp)
   1b458:	00007797          	auipc	a5,0x7
   1b45c:	b3878793          	addi	a5,a5,-1224 # 21f90 <zeroes.4541+0x60>
   1b460:	06f13423          	sd	a5,104(sp)
   1b464:	c41ff06f          	j	1b0a4 <_svfprintf_r+0x21b0>
   1b468:	06700493          	li	s1,103
   1b46c:	07013783          	ld	a5,112(sp)
   1b470:	04013c23          	sd	zero,88(sp)
   1b474:	06013423          	sd	zero,104(sp)
   1b478:	0007c783          	lbu	a5,0(a5)
   1b47c:	0ff00593          	li	a1,255
   1b480:	04b78863          	beq	a5,a1,1b4d0 <_svfprintf_r+0x25dc>
   1b484:	06013703          	ld	a4,96(sp)
   1b488:	0007869b          	sext.w	a3,a5
   1b48c:	04e6d263          	bge	a3,a4,1b4d0 <_svfprintf_r+0x25dc>
   1b490:	07013503          	ld	a0,112(sp)
   1b494:	40d7073b          	subw	a4,a4,a3
   1b498:	06e13023          	sd	a4,96(sp)
   1b49c:	00154603          	lbu	a2,1(a0)
   1b4a0:	02060063          	beqz	a2,1b4c0 <_svfprintf_r+0x25cc>
   1b4a4:	06813783          	ld	a5,104(sp)
   1b4a8:	0017879b          	addiw	a5,a5,1
   1b4ac:	06f13423          	sd	a5,104(sp)
   1b4b0:	00150793          	addi	a5,a0,1
   1b4b4:	06f13823          	sd	a5,112(sp)
   1b4b8:	00060793          	mv	a5,a2
   1b4bc:	fc5ff06f          	j	1b480 <_svfprintf_r+0x258c>
   1b4c0:	05813703          	ld	a4,88(sp)
   1b4c4:	0017071b          	addiw	a4,a4,1
   1b4c8:	04e13c23          	sd	a4,88(sp)
   1b4cc:	fb5ff06f          	j	1b480 <_svfprintf_r+0x258c>
   1b4d0:	06813783          	ld	a5,104(sp)
   1b4d4:	05813703          	ld	a4,88(sp)
   1b4d8:	08813583          	ld	a1,136(sp)
   1b4dc:	00613c23          	sd	t1,24(sp)
   1b4e0:	00e7853b          	addw	a0,a5,a4
   1b4e4:	628060ef          	jal	ra,21b0c <__muldi3>
   1b4e8:	0195053b          	addw	a0,a0,s9
   1b4ec:	00050c9b          	sext.w	s9,a0
   1b4f0:	fffcca93          	not	s5,s9
   1b4f4:	43fada93          	srai	s5,s5,0x3f
   1b4f8:	01557533          	and	a0,a0,s5
   1b4fc:	00050a9b          	sext.w	s5,a0
   1b500:	01813303          	ld	t1,24(sp)
   1b504:	f94fe06f          	j	19c98 <_svfprintf_r+0xda4>
   1b508:	07813783          	ld	a5,120(sp)
   1b50c:	06600493          	li	s1,102
   1b510:	00e78cbb          	addw	s9,a5,a4
   1b514:	01dc8cbb          	addw	s9,s9,t4
   1b518:	a65ff06f          	j	1af7c <_svfprintf_r+0x2088>
   1b51c:	0b013703          	ld	a4,176(sp)
   1b520:	00177693          	andi	a3,a4,1
   1b524:	00069463          	bnez	a3,1b52c <_svfprintf_r+0x2638>
   1b528:	f44fe06f          	j	19c6c <_svfprintf_r+0xd78>
   1b52c:	f38fe06f          	j	19c64 <_svfprintf_r+0xd70>
   1b530:	00079a63          	bnez	a5,1b544 <_svfprintf_r+0x2650>
   1b534:	00100a93          	li	s5,1
   1b538:	06600493          	li	s1,102
   1b53c:	00100c93          	li	s9,1
   1b540:	845ff06f          	j	1ad84 <_svfprintf_r+0x1e90>
   1b544:	07813783          	ld	a5,120(sp)
   1b548:	06600493          	li	s1,102
   1b54c:	0017879b          	addiw	a5,a5,1
   1b550:	01d78ebb          	addw	t4,a5,t4
   1b554:	000e8c9b          	sext.w	s9,t4
   1b558:	fffcca93          	not	s5,s9
   1b55c:	43fada93          	srai	s5,s5,0x3f
   1b560:	015efeb3          	and	t4,t4,s5
   1b564:	000e8a9b          	sext.w	s5,t4
   1b568:	81dff06f          	j	1ad84 <_svfprintf_r+0x1e90>
   1b56c:	00030793          	mv	a5,t1
   1b570:	d34ff06f          	j	1aaa4 <_svfprintf_r+0x1bb0>
   1b574:	01013703          	ld	a4,16(sp)
   1b578:	00072e83          	lw	t4,0(a4)
   1b57c:	00870693          	addi	a3,a4,8
   1b580:	000ed463          	bgez	t4,1b588 <_svfprintf_r+0x2694>
   1b584:	fff00e93          	li	t4,-1
   1b588:	00194483          	lbu	s1,1(s2)
   1b58c:	00d13823          	sd	a3,16(sp)
   1b590:	00078913          	mv	s2,a5
   1b594:	ab9fd06f          	j	1904c <_svfprintf_r+0x158>
   1b598:	00200793          	li	a5,2
   1b59c:	08f13823          	sd	a5,144(sp)
   1b5a0:	ea8fe06f          	j	19c48 <_svfprintf_r+0xd54>
   1b5a4:	000e8a93          	mv	s5,t4
   1b5a8:	015d0ab3          	add	s5,s10,s5
   1b5ac:	851ff06f          	j	1adfc <_svfprintf_r+0x1f08>
   1b5b0:	010c5783          	lhu	a5,16(s8)
   1b5b4:	0407e713          	ori	a4,a5,64
   1b5b8:	00070793          	mv	a5,a4
   1b5bc:	00ec1823          	sh	a4,16(s8)
   1b5c0:	b29fd06f          	j	190e8 <_svfprintf_r+0x1f4>
   1b5c4:	00c00793          	li	a5,12
   1b5c8:	00fb2023          	sw	a5,0(s6)
   1b5cc:	fff00793          	li	a5,-1
   1b5d0:	00f13423          	sd	a5,8(sp)
   1b5d4:	b21fd06f          	j	190f4 <_svfprintf_r+0x200>

000000000001b5d8 <__sprint_r.part.0>:
   1b5d8:	0ac5a783          	lw	a5,172(a1)
   1b5dc:	fb010113          	addi	sp,sp,-80
   1b5e0:	01513c23          	sd	s5,24(sp)
   1b5e4:	04113423          	sd	ra,72(sp)
   1b5e8:	04813023          	sd	s0,64(sp)
   1b5ec:	02913c23          	sd	s1,56(sp)
   1b5f0:	03213823          	sd	s2,48(sp)
   1b5f4:	03313423          	sd	s3,40(sp)
   1b5f8:	03413023          	sd	s4,32(sp)
   1b5fc:	01613823          	sd	s6,16(sp)
   1b600:	01713423          	sd	s7,8(sp)
   1b604:	03279713          	slli	a4,a5,0x32
   1b608:	00060a93          	mv	s5,a2
   1b60c:	0c075063          	bgez	a4,1b6cc <__sprint_r.part.0+0xf4>
   1b610:	01063703          	ld	a4,16(a2)
   1b614:	00058913          	mv	s2,a1
   1b618:	00050993          	mv	s3,a0
   1b61c:	00063b03          	ld	s6,0(a2)
   1b620:	fff00a13          	li	s4,-1
   1b624:	0a070063          	beqz	a4,1b6c4 <__sprint_r.part.0+0xec>
   1b628:	008b3783          	ld	a5,8(s6)
   1b62c:	000b3403          	ld	s0,0(s6)
   1b630:	0027d793          	srli	a5,a5,0x2
   1b634:	00078b9b          	sext.w	s7,a5
   1b638:	07705c63          	blez	s7,1b6b0 <__sprint_r.part.0+0xd8>
   1b63c:	fff7849b          	addiw	s1,a5,-1
   1b640:	02049493          	slli	s1,s1,0x20
   1b644:	01e4d493          	srli	s1,s1,0x1e
   1b648:	00440793          	addi	a5,s0,4
   1b64c:	00f484b3          	add	s1,s1,a5
   1b650:	0080006f          	j	1b658 <__sprint_r.part.0+0x80>
   1b654:	04848c63          	beq	s1,s0,1b6ac <__sprint_r.part.0+0xd4>
   1b658:	00042583          	lw	a1,0(s0)
   1b65c:	00090613          	mv	a2,s2
   1b660:	00098513          	mv	a0,s3
   1b664:	6ec010ef          	jal	ra,1cd50 <_fputwc_r>
   1b668:	0005051b          	sext.w	a0,a0
   1b66c:	00440413          	addi	s0,s0,4
   1b670:	ff4512e3          	bne	a0,s4,1b654 <__sprint_r.part.0+0x7c>
   1b674:	fff00513          	li	a0,-1
   1b678:	04813083          	ld	ra,72(sp)
   1b67c:	04013403          	ld	s0,64(sp)
   1b680:	000ab823          	sd	zero,16(s5)
   1b684:	000aa423          	sw	zero,8(s5)
   1b688:	03813483          	ld	s1,56(sp)
   1b68c:	03013903          	ld	s2,48(sp)
   1b690:	02813983          	ld	s3,40(sp)
   1b694:	02013a03          	ld	s4,32(sp)
   1b698:	01813a83          	ld	s5,24(sp)
   1b69c:	01013b03          	ld	s6,16(sp)
   1b6a0:	00813b83          	ld	s7,8(sp)
   1b6a4:	05010113          	addi	sp,sp,80
   1b6a8:	00008067          	ret
   1b6ac:	010ab703          	ld	a4,16(s5)
   1b6b0:	002b9b93          	slli	s7,s7,0x2
   1b6b4:	41770733          	sub	a4,a4,s7
   1b6b8:	00eab823          	sd	a4,16(s5)
   1b6bc:	010b0b13          	addi	s6,s6,16
   1b6c0:	f60714e3          	bnez	a4,1b628 <__sprint_r.part.0+0x50>
   1b6c4:	00000513          	li	a0,0
   1b6c8:	fb1ff06f          	j	1b678 <__sprint_r.part.0+0xa0>
   1b6cc:	798010ef          	jal	ra,1ce64 <__sfvwrite_r>
   1b6d0:	fa9ff06f          	j	1b678 <__sprint_r.part.0+0xa0>

000000000001b6d4 <__sprint_r>:
   1b6d4:	01063703          	ld	a4,16(a2)
   1b6d8:	00070463          	beqz	a4,1b6e0 <__sprint_r+0xc>
   1b6dc:	efdff06f          	j	1b5d8 <__sprint_r.part.0>
   1b6e0:	00062423          	sw	zero,8(a2)
   1b6e4:	00000513          	li	a0,0
   1b6e8:	00008067          	ret

000000000001b6ec <_vfiprintf_r>:
   1b6ec:	e2010113          	addi	sp,sp,-480
   1b6f0:	1d213023          	sd	s2,448(sp)
   1b6f4:	1b313c23          	sd	s3,440(sp)
   1b6f8:	19a13023          	sd	s10,384(sp)
   1b6fc:	1c113c23          	sd	ra,472(sp)
   1b700:	1c813823          	sd	s0,464(sp)
   1b704:	1c913423          	sd	s1,456(sp)
   1b708:	1b413823          	sd	s4,432(sp)
   1b70c:	1b513423          	sd	s5,424(sp)
   1b710:	1b613023          	sd	s6,416(sp)
   1b714:	19713c23          	sd	s7,408(sp)
   1b718:	19813823          	sd	s8,400(sp)
   1b71c:	19913423          	sd	s9,392(sp)
   1b720:	17b13c23          	sd	s11,376(sp)
   1b724:	00d13823          	sd	a3,16(sp)
   1b728:	00050993          	mv	s3,a0
   1b72c:	00058913          	mv	s2,a1
   1b730:	00060d13          	mv	s10,a2
   1b734:	00050663          	beqz	a0,1b740 <_vfiprintf_r+0x54>
   1b738:	05052783          	lw	a5,80(a0)
   1b73c:	0a078ce3          	beqz	a5,1bff4 <_vfiprintf_r+0x908>
   1b740:	01091703          	lh	a4,16(s2)
   1b744:	03071793          	slli	a5,a4,0x30
   1b748:	0307d793          	srli	a5,a5,0x30
   1b74c:	03279693          	slli	a3,a5,0x32
   1b750:	0206c663          	bltz	a3,1b77c <_vfiprintf_r+0x90>
   1b754:	0ac92683          	lw	a3,172(s2)
   1b758:	000027b7          	lui	a5,0x2
   1b75c:	00f767b3          	or	a5,a4,a5
   1b760:	ffffe737          	lui	a4,0xffffe
   1b764:	fff70713          	addi	a4,a4,-1 # ffffffffffffdfff <__BSS_END__+0xfffffffffffd93df>
   1b768:	00e6f733          	and	a4,a3,a4
   1b76c:	00f91823          	sh	a5,16(s2)
   1b770:	03079793          	slli	a5,a5,0x30
   1b774:	0ae92623          	sw	a4,172(s2)
   1b778:	0307d793          	srli	a5,a5,0x30
   1b77c:	0087f713          	andi	a4,a5,8
   1b780:	14070263          	beqz	a4,1b8c4 <_vfiprintf_r+0x1d8>
   1b784:	01893703          	ld	a4,24(s2)
   1b788:	12070e63          	beqz	a4,1b8c4 <_vfiprintf_r+0x1d8>
   1b78c:	01a7f793          	andi	a5,a5,26
   1b790:	00a00713          	li	a4,10
   1b794:	14e78863          	beq	a5,a4,1b8e4 <_vfiprintf_r+0x1f8>
   1b798:	ffff87b7          	lui	a5,0xffff8
   1b79c:	0f010413          	addi	s0,sp,240
   1b7a0:	8307c793          	xori	a5,a5,-2000
   1b7a4:	06813823          	sd	s0,112(sp)
   1b7a8:	08013023          	sd	zero,128(sp)
   1b7ac:	06012c23          	sw	zero,120(sp)
   1b7b0:	00040d93          	mv	s11,s0
   1b7b4:	02013023          	sd	zero,32(sp)
   1b7b8:	04013023          	sd	zero,64(sp)
   1b7bc:	04013823          	sd	zero,80(sp)
   1b7c0:	04013423          	sd	zero,72(sp)
   1b7c4:	00013423          	sd	zero,8(sp)
   1b7c8:	00007a97          	auipc	s5,0x7
   1b7cc:	d78a8a93          	addi	s5,s5,-648 # 22540 <zeroes.4526+0x10>
   1b7d0:	04f13c23          	sd	a5,88(sp)
   1b7d4:	000d4783          	lbu	a5,0(s10)
   1b7d8:	12078e63          	beqz	a5,1b914 <_vfiprintf_r+0x228>
   1b7dc:	02500693          	li	a3,37
   1b7e0:	52d782e3          	beq	a5,a3,1c504 <_vfiprintf_r+0xe18>
   1b7e4:	000d0493          	mv	s1,s10
   1b7e8:	00c0006f          	j	1b7f4 <_vfiprintf_r+0x108>
   1b7ec:	10d78e63          	beq	a5,a3,1b908 <_vfiprintf_r+0x21c>
   1b7f0:	000a0493          	mv	s1,s4
   1b7f4:	0014c783          	lbu	a5,1(s1)
   1b7f8:	00148a13          	addi	s4,s1,1
   1b7fc:	fe0798e3          	bnez	a5,1b7ec <_vfiprintf_r+0x100>
   1b800:	41aa0b3b          	subw	s6,s4,s10
   1b804:	100b0863          	beqz	s6,1b914 <_vfiprintf_r+0x228>
   1b808:	07812783          	lw	a5,120(sp)
   1b80c:	08013683          	ld	a3,128(sp)
   1b810:	01adb023          	sd	s10,0(s11)
   1b814:	0017861b          	addiw	a2,a5,1
   1b818:	00db06b3          	add	a3,s6,a3
   1b81c:	016db423          	sd	s6,8(s11)
   1b820:	08d13023          	sd	a3,128(sp)
   1b824:	06c12c23          	sw	a2,120(sp)
   1b828:	00700793          	li	a5,7
   1b82c:	010d8d93          	addi	s11,s11,16
   1b830:	02c7d063          	bge	a5,a2,1b850 <_vfiprintf_r+0x164>
   1b834:	48068ee3          	beqz	a3,1c4d0 <_vfiprintf_r+0xde4>
   1b838:	07010613          	addi	a2,sp,112
   1b83c:	00090593          	mv	a1,s2
   1b840:	00098513          	mv	a0,s3
   1b844:	d95ff0ef          	jal	ra,1b5d8 <__sprint_r.part.0>
   1b848:	0e051263          	bnez	a0,1b92c <_vfiprintf_r+0x240>
   1b84c:	00040d93          	mv	s11,s0
   1b850:	00813703          	ld	a4,8(sp)
   1b854:	0014c783          	lbu	a5,1(s1)
   1b858:	0167073b          	addw	a4,a4,s6
   1b85c:	00e13423          	sd	a4,8(sp)
   1b860:	0a078a63          	beqz	a5,1b914 <_vfiprintf_r+0x228>
   1b864:	001a0d13          	addi	s10,s4,1
   1b868:	001a4603          	lbu	a2,1(s4)
   1b86c:	060103a3          	sb	zero,103(sp)
   1b870:	fff00c13          	li	s8,-1
   1b874:	00000493          	li	s1,0
   1b878:	00000c93          	li	s9,0
   1b87c:	00900a13          	li	s4,9
   1b880:	02a00b13          	li	s6,42
   1b884:	001d0d13          	addi	s10,s10,1
   1b888:	0006061b          	sext.w	a2,a2
   1b88c:	05a00513          	li	a0,90
   1b890:	fe06079b          	addiw	a5,a2,-32
   1b894:	0007859b          	sext.w	a1,a5
   1b898:	1ab56a63          	bltu	a0,a1,1ba4c <_vfiprintf_r+0x360>
   1b89c:	02079793          	slli	a5,a5,0x20
   1b8a0:	01e7d793          	srli	a5,a5,0x1e
   1b8a4:	015787b3          	add	a5,a5,s5
   1b8a8:	0007a783          	lw	a5,0(a5) # ffffffffffff8000 <__BSS_END__+0xfffffffffffd33e0>
   1b8ac:	015787b3          	add	a5,a5,s5
   1b8b0:	00078067          	jr	a5
   1b8b4:	010ce893          	ori	a7,s9,16
   1b8b8:	00088c9b          	sext.w	s9,a7
   1b8bc:	000d4603          	lbu	a2,0(s10)
   1b8c0:	fc5ff06f          	j	1b884 <_vfiprintf_r+0x198>
   1b8c4:	00090593          	mv	a1,s2
   1b8c8:	00098513          	mv	a0,s3
   1b8cc:	ddcf70ef          	jal	ra,12ea8 <__swsetup_r>
   1b8d0:	740510e3          	bnez	a0,1c810 <_vfiprintf_r+0x1124>
   1b8d4:	01095783          	lhu	a5,16(s2)
   1b8d8:	00a00713          	li	a4,10
   1b8dc:	01a7f793          	andi	a5,a5,26
   1b8e0:	eae79ce3          	bne	a5,a4,1b798 <_vfiprintf_r+0xac>
   1b8e4:	01291783          	lh	a5,18(s2)
   1b8e8:	ea07c8e3          	bltz	a5,1b798 <_vfiprintf_r+0xac>
   1b8ec:	01013683          	ld	a3,16(sp)
   1b8f0:	000d0613          	mv	a2,s10
   1b8f4:	00090593          	mv	a1,s2
   1b8f8:	00098513          	mv	a0,s3
   1b8fc:	77d000ef          	jal	ra,1c878 <__sbprintf>
   1b900:	00a13423          	sd	a0,8(sp)
   1b904:	0340006f          	j	1b938 <_vfiprintf_r+0x24c>
   1b908:	41aa0b3b          	subw	s6,s4,s10
   1b90c:	f40b0ce3          	beqz	s6,1b864 <_vfiprintf_r+0x178>
   1b910:	ef9ff06f          	j	1b808 <_vfiprintf_r+0x11c>
   1b914:	08013783          	ld	a5,128(sp)
   1b918:	00078a63          	beqz	a5,1b92c <_vfiprintf_r+0x240>
   1b91c:	07010613          	addi	a2,sp,112
   1b920:	00090593          	mv	a1,s2
   1b924:	00098513          	mv	a0,s3
   1b928:	cb1ff0ef          	jal	ra,1b5d8 <__sprint_r.part.0>
   1b92c:	01095783          	lhu	a5,16(s2)
   1b930:	0407f793          	andi	a5,a5,64
   1b934:	6c079ee3          	bnez	a5,1c810 <_vfiprintf_r+0x1124>
   1b938:	1d813083          	ld	ra,472(sp)
   1b93c:	1d013403          	ld	s0,464(sp)
   1b940:	00813503          	ld	a0,8(sp)
   1b944:	1c813483          	ld	s1,456(sp)
   1b948:	1c013903          	ld	s2,448(sp)
   1b94c:	1b813983          	ld	s3,440(sp)
   1b950:	1b013a03          	ld	s4,432(sp)
   1b954:	1a813a83          	ld	s5,424(sp)
   1b958:	1a013b03          	ld	s6,416(sp)
   1b95c:	19813b83          	ld	s7,408(sp)
   1b960:	19013c03          	ld	s8,400(sp)
   1b964:	18813c83          	ld	s9,392(sp)
   1b968:	18013d03          	ld	s10,384(sp)
   1b96c:	17813d83          	ld	s11,376(sp)
   1b970:	1e010113          	addi	sp,sp,480
   1b974:	00008067          	ret
   1b978:	01013703          	ld	a4,16(sp)
   1b97c:	00006797          	auipc	a5,0x6
   1b980:	62c78793          	addi	a5,a5,1580 # 21fa8 <zeroes.4541+0x78>
   1b984:	02f13023          	sd	a5,32(sp)
   1b988:	020cf793          	andi	a5,s9,32
   1b98c:	00870593          	addi	a1,a4,8
   1b990:	64078063          	beqz	a5,1bfd0 <_vfiprintf_r+0x8e4>
   1b994:	00073b03          	ld	s6,0(a4)
   1b998:	001cf513          	andi	a0,s9,1
   1b99c:	00050e63          	beqz	a0,1b9b8 <_vfiprintf_r+0x2cc>
   1b9a0:	000b0c63          	beqz	s6,1b9b8 <_vfiprintf_r+0x2cc>
   1b9a4:	002ce893          	ori	a7,s9,2
   1b9a8:	03000513          	li	a0,48
   1b9ac:	06a10423          	sb	a0,104(sp)
   1b9b0:	06c104a3          	sb	a2,105(sp)
   1b9b4:	00088c9b          	sext.w	s9,a7
   1b9b8:	bffcf893          	andi	a7,s9,-1025
   1b9bc:	00088a1b          	sext.w	s4,a7
   1b9c0:	00b13823          	sd	a1,16(sp)
   1b9c4:	00200613          	li	a2,2
   1b9c8:	060103a3          	sb	zero,103(sp)
   1b9cc:	fff00593          	li	a1,-1
   1b9d0:	58bc0263          	beq	s8,a1,1bf54 <_vfiprintf_r+0x868>
   1b9d4:	f7fa7893          	andi	a7,s4,-129
   1b9d8:	00088c9b          	sext.w	s9,a7
   1b9dc:	0c0b18e3          	bnez	s6,1c2ac <_vfiprintf_r+0xbc0>
   1b9e0:	620c1463          	bnez	s8,1c008 <_vfiprintf_r+0x91c>
   1b9e4:	2e061ee3          	bnez	a2,1c4e0 <_vfiprintf_r+0xdf4>
   1b9e8:	001a7b13          	andi	s6,s4,1
   1b9ec:	0ec10b93          	addi	s7,sp,236
   1b9f0:	320b18e3          	bnez	s6,1c520 <_vfiprintf_r+0xe34>
   1b9f4:	000c0793          	mv	a5,s8
   1b9f8:	016c5463          	bge	s8,s6,1ba00 <_vfiprintf_r+0x314>
   1b9fc:	000b0793          	mv	a5,s6
   1ba00:	06714603          	lbu	a2,103(sp)
   1ba04:	00078a1b          	sext.w	s4,a5
   1ba08:	06060063          	beqz	a2,1ba68 <_vfiprintf_r+0x37c>
   1ba0c:	00178a1b          	addiw	s4,a5,1
   1ba10:	0580006f          	j	1ba68 <_vfiprintf_r+0x37c>
   1ba14:	00000493          	li	s1,0
   1ba18:	001d0d13          	addi	s10,s10,1
   1ba1c:	fffd4583          	lbu	a1,-1(s10)
   1ba20:	0024979b          	slliw	a5,s1,0x2
   1ba24:	009784bb          	addw	s1,a5,s1
   1ba28:	fd06061b          	addiw	a2,a2,-48
   1ba2c:	0014949b          	slliw	s1,s1,0x1
   1ba30:	fd05879b          	addiw	a5,a1,-48
   1ba34:	009604bb          	addw	s1,a2,s1
   1ba38:	0005861b          	sext.w	a2,a1
   1ba3c:	fcfa7ee3          	bgeu	s4,a5,1ba18 <_vfiprintf_r+0x32c>
   1ba40:	fe06079b          	addiw	a5,a2,-32
   1ba44:	0007859b          	sext.w	a1,a5
   1ba48:	e4b57ae3          	bgeu	a0,a1,1b89c <_vfiprintf_r+0x1b0>
   1ba4c:	ec0604e3          	beqz	a2,1b914 <_vfiprintf_r+0x228>
   1ba50:	08c10423          	sb	a2,136(sp)
   1ba54:	060103a3          	sb	zero,103(sp)
   1ba58:	00100a13          	li	s4,1
   1ba5c:	00100b13          	li	s6,1
   1ba60:	08810b93          	addi	s7,sp,136
   1ba64:	00000c13          	li	s8,0
   1ba68:	002cfe93          	andi	t4,s9,2
   1ba6c:	000e8e9b          	sext.w	t4,t4
   1ba70:	000e8463          	beqz	t4,1ba78 <_vfiprintf_r+0x38c>
   1ba74:	002a0a1b          	addiw	s4,s4,2
   1ba78:	07812603          	lw	a2,120(sp)
   1ba7c:	084cf293          	andi	t0,s9,132
   1ba80:	08013783          	ld	a5,128(sp)
   1ba84:	0016051b          	addiw	a0,a2,1
   1ba88:	00050593          	mv	a1,a0
   1ba8c:	00029663          	bnez	t0,1ba98 <_vfiprintf_r+0x3ac>
   1ba90:	41448e3b          	subw	t3,s1,s4
   1ba94:	03c040e3          	bgtz	t3,1c2b4 <_vfiprintf_r+0xbc8>
   1ba98:	06714e03          	lbu	t3,103(sp)
   1ba9c:	010d8593          	addi	a1,s11,16
   1baa0:	020e0c63          	beqz	t3,1bad8 <_vfiprintf_r+0x3ec>
   1baa4:	06710613          	addi	a2,sp,103
   1baa8:	00178793          	addi	a5,a5,1
   1baac:	00cdb023          	sd	a2,0(s11)
   1bab0:	00100613          	li	a2,1
   1bab4:	00cdb423          	sd	a2,8(s11)
   1bab8:	08f13023          	sd	a5,128(sp)
   1babc:	06a12c23          	sw	a0,120(sp)
   1bac0:	00700713          	li	a4,7
   1bac4:	76a74663          	blt	a4,a0,1c230 <_vfiprintf_r+0xb44>
   1bac8:	00050613          	mv	a2,a0
   1bacc:	00058d93          	mv	s11,a1
   1bad0:	0015051b          	addiw	a0,a0,1
   1bad4:	01058593          	addi	a1,a1,16
   1bad8:	040e8e63          	beqz	t4,1bb34 <_vfiprintf_r+0x448>
   1badc:	06810613          	addi	a2,sp,104
   1bae0:	00278793          	addi	a5,a5,2
   1bae4:	00cdb023          	sd	a2,0(s11)
   1bae8:	00200613          	li	a2,2
   1baec:	00cdb423          	sd	a2,8(s11)
   1baf0:	08f13023          	sd	a5,128(sp)
   1baf4:	06a12c23          	sw	a0,120(sp)
   1baf8:	00700713          	li	a4,7
   1bafc:	78a75e63          	bge	a4,a0,1c298 <_vfiprintf_r+0xbac>
   1bb00:	1e0788e3          	beqz	a5,1c4f0 <_vfiprintf_r+0xe04>
   1bb04:	07010613          	addi	a2,sp,112
   1bb08:	00090593          	mv	a1,s2
   1bb0c:	00098513          	mv	a0,s3
   1bb10:	00513c23          	sd	t0,24(sp)
   1bb14:	ac5ff0ef          	jal	ra,1b5d8 <__sprint_r.part.0>
   1bb18:	e0051ae3          	bnez	a0,1b92c <_vfiprintf_r+0x240>
   1bb1c:	07812603          	lw	a2,120(sp)
   1bb20:	08013783          	ld	a5,128(sp)
   1bb24:	01813283          	ld	t0,24(sp)
   1bb28:	10010593          	addi	a1,sp,256
   1bb2c:	0016051b          	addiw	a0,a2,1
   1bb30:	00040d93          	mv	s11,s0
   1bb34:	08000e13          	li	t3,128
   1bb38:	51c28c63          	beq	t0,t3,1c050 <_vfiprintf_r+0x964>
   1bb3c:	416c0c3b          	subw	s8,s8,s6
   1bb40:	61804063          	bgtz	s8,1c140 <_vfiprintf_r+0xa54>
   1bb44:	00fb07b3          	add	a5,s6,a5
   1bb48:	017db023          	sd	s7,0(s11)
   1bb4c:	016db423          	sd	s6,8(s11)
   1bb50:	08f13023          	sd	a5,128(sp)
   1bb54:	06a12c23          	sw	a0,120(sp)
   1bb58:	00700713          	li	a4,7
   1bb5c:	02a75263          	bge	a4,a0,1bb80 <_vfiprintf_r+0x494>
   1bb60:	02078ce3          	beqz	a5,1c398 <_vfiprintf_r+0xcac>
   1bb64:	07010613          	addi	a2,sp,112
   1bb68:	00090593          	mv	a1,s2
   1bb6c:	00098513          	mv	a0,s3
   1bb70:	a69ff0ef          	jal	ra,1b5d8 <__sprint_r.part.0>
   1bb74:	da051ce3          	bnez	a0,1b92c <_vfiprintf_r+0x240>
   1bb78:	08013783          	ld	a5,128(sp)
   1bb7c:	00040593          	mv	a1,s0
   1bb80:	004cf893          	andi	a7,s9,4
   1bb84:	00088663          	beqz	a7,1bb90 <_vfiprintf_r+0x4a4>
   1bb88:	41448b3b          	subw	s6,s1,s4
   1bb8c:	036042e3          	bgtz	s6,1c3b0 <_vfiprintf_r+0xcc4>
   1bb90:	00048713          	mv	a4,s1
   1bb94:	0144d463          	bge	s1,s4,1bb9c <_vfiprintf_r+0x4b0>
   1bb98:	000a0713          	mv	a4,s4
   1bb9c:	00813683          	ld	a3,8(sp)
   1bba0:	00d7073b          	addw	a4,a4,a3
   1bba4:	00e13423          	sd	a4,8(sp)
   1bba8:	66079063          	bnez	a5,1c208 <_vfiprintf_r+0xb1c>
   1bbac:	06012c23          	sw	zero,120(sp)
   1bbb0:	00040d93          	mv	s11,s0
   1bbb4:	c21ff06f          	j	1b7d4 <_vfiprintf_r+0xe8>
   1bbb8:	01013703          	ld	a4,16(sp)
   1bbbc:	060103a3          	sb	zero,103(sp)
   1bbc0:	00100a13          	li	s4,1
   1bbc4:	00072783          	lw	a5,0(a4)
   1bbc8:	00870713          	addi	a4,a4,8
   1bbcc:	00e13823          	sd	a4,16(sp)
   1bbd0:	08f10423          	sb	a5,136(sp)
   1bbd4:	00100b13          	li	s6,1
   1bbd8:	08810b93          	addi	s7,sp,136
   1bbdc:	e89ff06f          	j	1ba64 <_vfiprintf_r+0x378>
   1bbe0:	01013703          	ld	a4,16(sp)
   1bbe4:	020cf793          	andi	a5,s9,32
   1bbe8:	00870593          	addi	a1,a4,8
   1bbec:	18079ce3          	bnez	a5,1c584 <_vfiprintf_r+0xe98>
   1bbf0:	010cf793          	andi	a5,s9,16
   1bbf4:	180798e3          	bnez	a5,1c584 <_vfiprintf_r+0xe98>
   1bbf8:	01013783          	ld	a5,16(sp)
   1bbfc:	040cf613          	andi	a2,s9,64
   1bc00:	0007a783          	lw	a5,0(a5)
   1bc04:	320602e3          	beqz	a2,1c728 <_vfiprintf_r+0x103c>
   1bc08:	03079b13          	slli	s6,a5,0x30
   1bc0c:	030b5b13          	srli	s6,s6,0x30
   1bc10:	00b13823          	sd	a1,16(sp)
   1bc14:	000c8a13          	mv	s4,s9
   1bc18:	00100613          	li	a2,1
   1bc1c:	dadff06f          	j	1b9c8 <_vfiprintf_r+0x2dc>
   1bc20:	080ce893          	ori	a7,s9,128
   1bc24:	00088c9b          	sext.w	s9,a7
   1bc28:	000d4603          	lbu	a2,0(s10)
   1bc2c:	c59ff06f          	j	1b884 <_vfiprintf_r+0x198>
   1bc30:	000d4603          	lbu	a2,0(s10)
   1bc34:	001d0793          	addi	a5,s10,1
   1bc38:	416600e3          	beq	a2,s6,1c838 <_vfiprintf_r+0x114c>
   1bc3c:	fd06059b          	addiw	a1,a2,-48
   1bc40:	00078d13          	mv	s10,a5
   1bc44:	00000c13          	li	s8,0
   1bc48:	c4ba64e3          	bltu	s4,a1,1b890 <_vfiprintf_r+0x1a4>
   1bc4c:	001d0d13          	addi	s10,s10,1
   1bc50:	002c179b          	slliw	a5,s8,0x2
   1bc54:	fffd4603          	lbu	a2,-1(s10)
   1bc58:	018786bb          	addw	a3,a5,s8
   1bc5c:	0016969b          	slliw	a3,a3,0x1
   1bc60:	00b68c3b          	addw	s8,a3,a1
   1bc64:	fd06059b          	addiw	a1,a2,-48
   1bc68:	feba72e3          	bgeu	s4,a1,1bc4c <_vfiprintf_r+0x560>
   1bc6c:	c25ff06f          	j	1b890 <_vfiprintf_r+0x1a4>
   1bc70:	000d4603          	lbu	a2,0(s10)
   1bc74:	004ce893          	ori	a7,s9,4
   1bc78:	00088c9b          	sext.w	s9,a7
   1bc7c:	c09ff06f          	j	1b884 <_vfiprintf_r+0x198>
   1bc80:	02b00793          	li	a5,43
   1bc84:	06f103a3          	sb	a5,103(sp)
   1bc88:	000d4603          	lbu	a2,0(s10)
   1bc8c:	bf9ff06f          	j	1b884 <_vfiprintf_r+0x198>
   1bc90:	01013783          	ld	a5,16(sp)
   1bc94:	000d4603          	lbu	a2,0(s10)
   1bc98:	0007a483          	lw	s1,0(a5)
   1bc9c:	00878793          	addi	a5,a5,8
   1bca0:	00f13823          	sd	a5,16(sp)
   1bca4:	be04d0e3          	bgez	s1,1b884 <_vfiprintf_r+0x198>
   1bca8:	409004bb          	negw	s1,s1
   1bcac:	fc9ff06f          	j	1bc74 <_vfiprintf_r+0x588>
   1bcb0:	00098513          	mv	a0,s3
   1bcb4:	d69fa0ef          	jal	ra,16a1c <_localeconv_r>
   1bcb8:	00853783          	ld	a5,8(a0)
   1bcbc:	00078513          	mv	a0,a5
   1bcc0:	04f13423          	sd	a5,72(sp)
   1bcc4:	890fd0ef          	jal	ra,18d54 <strlen>
   1bcc8:	04a13823          	sd	a0,80(sp)
   1bccc:	00050b93          	mv	s7,a0
   1bcd0:	00098513          	mv	a0,s3
   1bcd4:	d49fa0ef          	jal	ra,16a1c <_localeconv_r>
   1bcd8:	01053783          	ld	a5,16(a0)
   1bcdc:	000d4603          	lbu	a2,0(s10)
   1bce0:	04f13023          	sd	a5,64(sp)
   1bce4:	ba0b80e3          	beqz	s7,1b884 <_vfiprintf_r+0x198>
   1bce8:	b8078ee3          	beqz	a5,1b884 <_vfiprintf_r+0x198>
   1bcec:	0007c783          	lbu	a5,0(a5)
   1bcf0:	b8078ae3          	beqz	a5,1b884 <_vfiprintf_r+0x198>
   1bcf4:	400ce893          	ori	a7,s9,1024
   1bcf8:	00088c9b          	sext.w	s9,a7
   1bcfc:	b89ff06f          	j	1b884 <_vfiprintf_r+0x198>
   1bd00:	001ce893          	ori	a7,s9,1
   1bd04:	00088c9b          	sext.w	s9,a7
   1bd08:	000d4603          	lbu	a2,0(s10)
   1bd0c:	b79ff06f          	j	1b884 <_vfiprintf_r+0x198>
   1bd10:	06714783          	lbu	a5,103(sp)
   1bd14:	000d4603          	lbu	a2,0(s10)
   1bd18:	b60796e3          	bnez	a5,1b884 <_vfiprintf_r+0x198>
   1bd1c:	02000793          	li	a5,32
   1bd20:	06f103a3          	sb	a5,103(sp)
   1bd24:	b61ff06f          	j	1b884 <_vfiprintf_r+0x198>
   1bd28:	010ce793          	ori	a5,s9,16
   1bd2c:	0007889b          	sext.w	a7,a5
   1bd30:	01013783          	ld	a5,16(sp)
   1bd34:	00878613          	addi	a2,a5,8
   1bd38:	01013783          	ld	a5,16(sp)
   1bd3c:	0007bb03          	ld	s6,0(a5)
   1bd40:	00c13823          	sd	a2,16(sp)
   1bd44:	bff8f893          	andi	a7,a7,-1025
   1bd48:	00088a1b          	sext.w	s4,a7
   1bd4c:	00000613          	li	a2,0
   1bd50:	c79ff06f          	j	1b9c8 <_vfiprintf_r+0x2dc>
   1bd54:	01013783          	ld	a5,16(sp)
   1bd58:	010cee13          	ori	t3,s9,16
   1bd5c:	000e0a1b          	sext.w	s4,t3
   1bd60:	00878593          	addi	a1,a5,8
   1bd64:	01013783          	ld	a5,16(sp)
   1bd68:	0007b603          	ld	a2,0(a5)
   1bd6c:	00b13823          	sd	a1,16(sp)
   1bd70:	00060b13          	mv	s6,a2
   1bd74:	1c064463          	bltz	a2,1bf3c <_vfiprintf_r+0x850>
   1bd78:	fff00613          	li	a2,-1
   1bd7c:	00cc0a63          	beq	s8,a2,1bd90 <_vfiprintf_r+0x6a4>
   1bd80:	f7fa7893          	andi	a7,s4,-129
   1bd84:	00088c9b          	sext.w	s9,a7
   1bd88:	740b0a63          	beqz	s6,1c4dc <_vfiprintf_r+0xdf0>
   1bd8c:	000c8a13          	mv	s4,s9
   1bd90:	00900613          	li	a2,9
   1bd94:	056660e3          	bltu	a2,s6,1c5d4 <_vfiprintf_r+0xee8>
   1bd98:	030b079b          	addiw	a5,s6,48
   1bd9c:	0ef105a3          	sb	a5,235(sp)
   1bda0:	000a0c93          	mv	s9,s4
   1bda4:	00100b13          	li	s6,1
   1bda8:	0eb10b93          	addi	s7,sp,235
   1bdac:	c49ff06f          	j	1b9f4 <_vfiprintf_r+0x308>
   1bdb0:	01013783          	ld	a5,16(sp)
   1bdb4:	010cee13          	ori	t3,s9,16
   1bdb8:	000e0a1b          	sext.w	s4,t3
   1bdbc:	00878593          	addi	a1,a5,8
   1bdc0:	01013783          	ld	a5,16(sp)
   1bdc4:	00100613          	li	a2,1
   1bdc8:	0007bb03          	ld	s6,0(a5)
   1bdcc:	00b13823          	sd	a1,16(sp)
   1bdd0:	bf9ff06f          	j	1b9c8 <_vfiprintf_r+0x2dc>
   1bdd4:	01013783          	ld	a5,16(sp)
   1bdd8:	060103a3          	sb	zero,103(sp)
   1bddc:	0007bb83          	ld	s7,0(a5)
   1bde0:	00878713          	addi	a4,a5,8
   1bde4:	0c0b86e3          	beqz	s7,1c6b0 <_vfiprintf_r+0xfc4>
   1bde8:	fff00793          	li	a5,-1
   1bdec:	00e13823          	sd	a4,16(sp)
   1bdf0:	7afc0863          	beq	s8,a5,1c5a0 <_vfiprintf_r+0xeb4>
   1bdf4:	000c0613          	mv	a2,s8
   1bdf8:	00000593          	li	a1,0
   1bdfc:	000b8513          	mv	a0,s7
   1be00:	f80fb0ef          	jal	ra,17580 <memchr>
   1be04:	01013703          	ld	a4,16(sp)
   1be08:	1c050ee3          	beqz	a0,1c7e4 <_vfiprintf_r+0x10f8>
   1be0c:	41750b3b          	subw	s6,a0,s7
   1be10:	00000c13          	li	s8,0
   1be14:	be1ff06f          	j	1b9f4 <_vfiprintf_r+0x308>
   1be18:	020ce893          	ori	a7,s9,32
   1be1c:	00088c9b          	sext.w	s9,a7
   1be20:	000d4603          	lbu	a2,0(s10)
   1be24:	a61ff06f          	j	1b884 <_vfiprintf_r+0x198>
   1be28:	01013783          	ld	a5,16(sp)
   1be2c:	05813703          	ld	a4,88(sp)
   1be30:	002ce893          	ori	a7,s9,2
   1be34:	0007bb03          	ld	s6,0(a5)
   1be38:	00878793          	addi	a5,a5,8
   1be3c:	00f13823          	sd	a5,16(sp)
   1be40:	00006797          	auipc	a5,0x6
   1be44:	15078793          	addi	a5,a5,336 # 21f90 <zeroes.4541+0x60>
   1be48:	00088a1b          	sext.w	s4,a7
   1be4c:	06e11423          	sh	a4,104(sp)
   1be50:	02f13023          	sd	a5,32(sp)
   1be54:	00200613          	li	a2,2
   1be58:	b71ff06f          	j	1b9c8 <_vfiprintf_r+0x2dc>
   1be5c:	01013703          	ld	a4,16(sp)
   1be60:	020cf793          	andi	a5,s9,32
   1be64:	00870613          	addi	a2,a4,8
   1be68:	70079a63          	bnez	a5,1c57c <_vfiprintf_r+0xe90>
   1be6c:	010cf793          	andi	a5,s9,16
   1be70:	70079663          	bnez	a5,1c57c <_vfiprintf_r+0xe90>
   1be74:	01013783          	ld	a5,16(sp)
   1be78:	040cf593          	andi	a1,s9,64
   1be7c:	0007a783          	lw	a5,0(a5)
   1be80:	080588e3          	beqz	a1,1c710 <_vfiprintf_r+0x1024>
   1be84:	03079b13          	slli	s6,a5,0x30
   1be88:	030b5b13          	srli	s6,s6,0x30
   1be8c:	000c8893          	mv	a7,s9
   1be90:	00c13823          	sd	a2,16(sp)
   1be94:	eb1ff06f          	j	1bd44 <_vfiprintf_r+0x658>
   1be98:	01013703          	ld	a4,16(sp)
   1be9c:	020cf793          	andi	a5,s9,32
   1bea0:	00073683          	ld	a3,0(a4)
   1bea4:	00870713          	addi	a4,a4,8
   1bea8:	00e13823          	sd	a4,16(sp)
   1beac:	14079863          	bnez	a5,1bffc <_vfiprintf_r+0x910>
   1beb0:	010cf793          	andi	a5,s9,16
   1beb4:	14079463          	bnez	a5,1bffc <_vfiprintf_r+0x910>
   1beb8:	040cf793          	andi	a5,s9,64
   1bebc:	0c0798e3          	bnez	a5,1c78c <_vfiprintf_r+0x10a0>
   1bec0:	200cf893          	andi	a7,s9,512
   1bec4:	00813783          	ld	a5,8(sp)
   1bec8:	160884e3          	beqz	a7,1c830 <_vfiprintf_r+0x1144>
   1becc:	00f68023          	sb	a5,0(a3)
   1bed0:	905ff06f          	j	1b7d4 <_vfiprintf_r+0xe8>
   1bed4:	000d4603          	lbu	a2,0(s10)
   1bed8:	06c00793          	li	a5,108
   1bedc:	7cf60063          	beq	a2,a5,1c69c <_vfiprintf_r+0xfb0>
   1bee0:	010ce893          	ori	a7,s9,16
   1bee4:	00088c9b          	sext.w	s9,a7
   1bee8:	99dff06f          	j	1b884 <_vfiprintf_r+0x198>
   1beec:	000d4603          	lbu	a2,0(s10)
   1bef0:	06800793          	li	a5,104
   1bef4:	78f60a63          	beq	a2,a5,1c688 <_vfiprintf_r+0xf9c>
   1bef8:	040ce893          	ori	a7,s9,64
   1befc:	00088c9b          	sext.w	s9,a7
   1bf00:	985ff06f          	j	1b884 <_vfiprintf_r+0x198>
   1bf04:	01013703          	ld	a4,16(sp)
   1bf08:	020cf793          	andi	a5,s9,32
   1bf0c:	00870593          	addi	a1,a4,8
   1bf10:	68079463          	bnez	a5,1c598 <_vfiprintf_r+0xeac>
   1bf14:	010cf793          	andi	a5,s9,16
   1bf18:	68079063          	bnez	a5,1c598 <_vfiprintf_r+0xeac>
   1bf1c:	040cf793          	andi	a5,s9,64
   1bf20:	7c078863          	beqz	a5,1c6f0 <_vfiprintf_r+0x1004>
   1bf24:	01013783          	ld	a5,16(sp)
   1bf28:	00b13823          	sd	a1,16(sp)
   1bf2c:	000c8a13          	mv	s4,s9
   1bf30:	00079b03          	lh	s6,0(a5)
   1bf34:	000b0613          	mv	a2,s6
   1bf38:	e40650e3          	bgez	a2,1bd78 <_vfiprintf_r+0x68c>
   1bf3c:	02d00613          	li	a2,45
   1bf40:	06c103a3          	sb	a2,103(sp)
   1bf44:	fff00593          	li	a1,-1
   1bf48:	41600b33          	neg	s6,s6
   1bf4c:	00100613          	li	a2,1
   1bf50:	a8bc12e3          	bne	s8,a1,1b9d4 <_vfiprintf_r+0x2e8>
   1bf54:	00100593          	li	a1,1
   1bf58:	e2b60ce3          	beq	a2,a1,1bd90 <_vfiprintf_r+0x6a4>
   1bf5c:	00200593          	li	a1,2
   1bf60:	0ab60e63          	beq	a2,a1,1c01c <_vfiprintf_r+0x930>
   1bf64:	0ec10593          	addi	a1,sp,236
   1bf68:	0080006f          	j	1bf70 <_vfiprintf_r+0x884>
   1bf6c:	000b8593          	mv	a1,s7
   1bf70:	007b7613          	andi	a2,s6,7
   1bf74:	03060613          	addi	a2,a2,48
   1bf78:	fec58fa3          	sb	a2,-1(a1)
   1bf7c:	003b5b13          	srli	s6,s6,0x3
   1bf80:	fff58b93          	addi	s7,a1,-1
   1bf84:	fe0b14e3          	bnez	s6,1bf6c <_vfiprintf_r+0x880>
   1bf88:	001a7793          	andi	a5,s4,1
   1bf8c:	0a078a63          	beqz	a5,1c040 <_vfiprintf_r+0x954>
   1bf90:	03000793          	li	a5,48
   1bf94:	0af60663          	beq	a2,a5,1c040 <_vfiprintf_r+0x954>
   1bf98:	ffe58593          	addi	a1,a1,-2
   1bf9c:	fefb8fa3          	sb	a5,-1(s7)
   1bfa0:	0ec10793          	addi	a5,sp,236
   1bfa4:	40b78b3b          	subw	s6,a5,a1
   1bfa8:	000a0c93          	mv	s9,s4
   1bfac:	00058b93          	mv	s7,a1
   1bfb0:	a45ff06f          	j	1b9f4 <_vfiprintf_r+0x308>
   1bfb4:	01013703          	ld	a4,16(sp)
   1bfb8:	00006797          	auipc	a5,0x6
   1bfbc:	fd878793          	addi	a5,a5,-40 # 21f90 <zeroes.4541+0x60>
   1bfc0:	02f13023          	sd	a5,32(sp)
   1bfc4:	020cf793          	andi	a5,s9,32
   1bfc8:	00870593          	addi	a1,a4,8
   1bfcc:	9c0794e3          	bnez	a5,1b994 <_vfiprintf_r+0x2a8>
   1bfd0:	010cf793          	andi	a5,s9,16
   1bfd4:	5a079c63          	bnez	a5,1c58c <_vfiprintf_r+0xea0>
   1bfd8:	01013783          	ld	a5,16(sp)
   1bfdc:	040cf513          	andi	a0,s9,64
   1bfe0:	0007a783          	lw	a5,0(a5)
   1bfe4:	6e050a63          	beqz	a0,1c6d8 <_vfiprintf_r+0xfec>
   1bfe8:	03079b13          	slli	s6,a5,0x30
   1bfec:	030b5b13          	srli	s6,s6,0x30
   1bff0:	9a9ff06f          	j	1b998 <_vfiprintf_r+0x2ac>
   1bff4:	ff0f70ef          	jal	ra,137e4 <__sinit>
   1bff8:	f48ff06f          	j	1b740 <_vfiprintf_r+0x54>
   1bffc:	00813783          	ld	a5,8(sp)
   1c000:	00f6b023          	sd	a5,0(a3)
   1c004:	fd0ff06f          	j	1b7d4 <_vfiprintf_r+0xe8>
   1c008:	00100593          	li	a1,1
   1c00c:	7cb60863          	beq	a2,a1,1c7dc <_vfiprintf_r+0x10f0>
   1c010:	00200593          	li	a1,2
   1c014:	000c8a13          	mv	s4,s9
   1c018:	f4b616e3          	bne	a2,a1,1bf64 <_vfiprintf_r+0x878>
   1c01c:	0ec10b93          	addi	s7,sp,236
   1c020:	02013783          	ld	a5,32(sp)
   1c024:	00fb7613          	andi	a2,s6,15
   1c028:	fffb8b93          	addi	s7,s7,-1
   1c02c:	00c78633          	add	a2,a5,a2
   1c030:	00064603          	lbu	a2,0(a2)
   1c034:	004b5b13          	srli	s6,s6,0x4
   1c038:	00cb8023          	sb	a2,0(s7)
   1c03c:	fe0b12e3          	bnez	s6,1c020 <_vfiprintf_r+0x934>
   1c040:	0ec10793          	addi	a5,sp,236
   1c044:	41778b3b          	subw	s6,a5,s7
   1c048:	000a0c93          	mv	s9,s4
   1c04c:	9a9ff06f          	j	1b9f4 <_vfiprintf_r+0x308>
   1c050:	41448e3b          	subw	t3,s1,s4
   1c054:	afc054e3          	blez	t3,1bb3c <_vfiprintf_r+0x450>
   1c058:	01000e93          	li	t4,16
   1c05c:	7dced063          	bge	t4,t3,1c81c <_vfiprintf_r+0x1130>
   1c060:	00006e97          	auipc	t4,0x6
   1c064:	660e8e93          	addi	t4,t4,1632 # 226c0 <zeroes.4517>
   1c068:	01000f13          	li	t5,16
   1c06c:	00700f93          	li	t6,7
   1c070:	0180006f          	j	1c088 <_vfiprintf_r+0x99c>
   1c074:	0026029b          	addiw	t0,a2,2
   1c078:	010d8d93          	addi	s11,s11,16
   1c07c:	00050613          	mv	a2,a0
   1c080:	ff0e0e1b          	addiw	t3,t3,-16
   1c084:	07cf5463          	bge	t5,t3,1c0ec <_vfiprintf_r+0xa00>
   1c088:	0016051b          	addiw	a0,a2,1
   1c08c:	01078793          	addi	a5,a5,16
   1c090:	01ddb023          	sd	t4,0(s11)
   1c094:	01edb423          	sd	t5,8(s11)
   1c098:	08f13023          	sd	a5,128(sp)
   1c09c:	06a12c23          	sw	a0,120(sp)
   1c0a0:	fcafdae3          	bge	t6,a0,1c074 <_vfiprintf_r+0x988>
   1c0a4:	16078e63          	beqz	a5,1c220 <_vfiprintf_r+0xb34>
   1c0a8:	07010613          	addi	a2,sp,112
   1c0ac:	00090593          	mv	a1,s2
   1c0b0:	00098513          	mv	a0,s3
   1c0b4:	03d13423          	sd	t4,40(sp)
   1c0b8:	01c13c23          	sd	t3,24(sp)
   1c0bc:	d1cff0ef          	jal	ra,1b5d8 <__sprint_r.part.0>
   1c0c0:	860516e3          	bnez	a0,1b92c <_vfiprintf_r+0x240>
   1c0c4:	01813e03          	ld	t3,24(sp)
   1c0c8:	07812603          	lw	a2,120(sp)
   1c0cc:	01000f13          	li	t5,16
   1c0d0:	ff0e0e1b          	addiw	t3,t3,-16
   1c0d4:	08013783          	ld	a5,128(sp)
   1c0d8:	00040d93          	mv	s11,s0
   1c0dc:	0016029b          	addiw	t0,a2,1
   1c0e0:	02813e83          	ld	t4,40(sp)
   1c0e4:	00700f93          	li	t6,7
   1c0e8:	fbcf40e3          	blt	t5,t3,1c088 <_vfiprintf_r+0x99c>
   1c0ec:	010d8f13          	addi	t5,s11,16
   1c0f0:	01c787b3          	add	a5,a5,t3
   1c0f4:	01ddb023          	sd	t4,0(s11)
   1c0f8:	01cdb423          	sd	t3,8(s11)
   1c0fc:	08f13023          	sd	a5,128(sp)
   1c100:	06512c23          	sw	t0,120(sp)
   1c104:	00700713          	li	a4,7
   1c108:	46575063          	bge	a4,t0,1c568 <_vfiprintf_r+0xe7c>
   1c10c:	64078463          	beqz	a5,1c754 <_vfiprintf_r+0x1068>
   1c110:	07010613          	addi	a2,sp,112
   1c114:	00090593          	mv	a1,s2
   1c118:	00098513          	mv	a0,s3
   1c11c:	cbcff0ef          	jal	ra,1b5d8 <__sprint_r.part.0>
   1c120:	800516e3          	bnez	a0,1b92c <_vfiprintf_r+0x240>
   1c124:	07812603          	lw	a2,120(sp)
   1c128:	416c0c3b          	subw	s8,s8,s6
   1c12c:	08013783          	ld	a5,128(sp)
   1c130:	10010593          	addi	a1,sp,256
   1c134:	0016051b          	addiw	a0,a2,1
   1c138:	00040d93          	mv	s11,s0
   1c13c:	a18054e3          	blez	s8,1bb44 <_vfiprintf_r+0x458>
   1c140:	01000e13          	li	t3,16
   1c144:	618e5063          	bge	t3,s8,1c744 <_vfiprintf_r+0x1058>
   1c148:	00006e97          	auipc	t4,0x6
   1c14c:	578e8e93          	addi	t4,t4,1400 # 226c0 <zeroes.4517>
   1c150:	00700f13          	li	t5,7
   1c154:	0180006f          	j	1c16c <_vfiprintf_r+0xa80>
   1c158:	0026051b          	addiw	a0,a2,2
   1c15c:	010d8d93          	addi	s11,s11,16
   1c160:	000f8613          	mv	a2,t6
   1c164:	ff0c0c1b          	addiw	s8,s8,-16
   1c168:	078e5063          	bge	t3,s8,1c1c8 <_vfiprintf_r+0xadc>
   1c16c:	00160f9b          	addiw	t6,a2,1
   1c170:	01078793          	addi	a5,a5,16
   1c174:	01ddb023          	sd	t4,0(s11)
   1c178:	01cdb423          	sd	t3,8(s11)
   1c17c:	08f13023          	sd	a5,128(sp)
   1c180:	07f12c23          	sw	t6,120(sp)
   1c184:	fdff5ae3          	bge	t5,t6,1c158 <_vfiprintf_r+0xa6c>
   1c188:	06078863          	beqz	a5,1c1f8 <_vfiprintf_r+0xb0c>
   1c18c:	07010613          	addi	a2,sp,112
   1c190:	00090593          	mv	a1,s2
   1c194:	00098513          	mv	a0,s3
   1c198:	01d13c23          	sd	t4,24(sp)
   1c19c:	c3cff0ef          	jal	ra,1b5d8 <__sprint_r.part.0>
   1c1a0:	f8051663          	bnez	a0,1b92c <_vfiprintf_r+0x240>
   1c1a4:	07812603          	lw	a2,120(sp)
   1c1a8:	01000e13          	li	t3,16
   1c1ac:	ff0c0c1b          	addiw	s8,s8,-16
   1c1b0:	08013783          	ld	a5,128(sp)
   1c1b4:	00040d93          	mv	s11,s0
   1c1b8:	0016051b          	addiw	a0,a2,1
   1c1bc:	01813e83          	ld	t4,24(sp)
   1c1c0:	00700f13          	li	t5,7
   1c1c4:	fb8e44e3          	blt	t3,s8,1c16c <_vfiprintf_r+0xa80>
   1c1c8:	010d8613          	addi	a2,s11,16
   1c1cc:	018787b3          	add	a5,a5,s8
   1c1d0:	01ddb023          	sd	t4,0(s11)
   1c1d4:	018db423          	sd	s8,8(s11)
   1c1d8:	08f13023          	sd	a5,128(sp)
   1c1dc:	06a12c23          	sw	a0,120(sp)
   1c1e0:	00700713          	li	a4,7
   1c1e4:	2aa74e63          	blt	a4,a0,1c4a0 <_vfiprintf_r+0xdb4>
   1c1e8:	0015051b          	addiw	a0,a0,1
   1c1ec:	01060593          	addi	a1,a2,16
   1c1f0:	00060d93          	mv	s11,a2
   1c1f4:	951ff06f          	j	1bb44 <_vfiprintf_r+0x458>
   1c1f8:	00100513          	li	a0,1
   1c1fc:	00000613          	li	a2,0
   1c200:	00040d93          	mv	s11,s0
   1c204:	f61ff06f          	j	1c164 <_vfiprintf_r+0xa78>
   1c208:	07010613          	addi	a2,sp,112
   1c20c:	00090593          	mv	a1,s2
   1c210:	00098513          	mv	a0,s3
   1c214:	bc4ff0ef          	jal	ra,1b5d8 <__sprint_r.part.0>
   1c218:	98050ae3          	beqz	a0,1bbac <_vfiprintf_r+0x4c0>
   1c21c:	f10ff06f          	j	1b92c <_vfiprintf_r+0x240>
   1c220:	00100293          	li	t0,1
   1c224:	00000613          	li	a2,0
   1c228:	00040d93          	mv	s11,s0
   1c22c:	e55ff06f          	j	1c080 <_vfiprintf_r+0x994>
   1c230:	04078663          	beqz	a5,1c27c <_vfiprintf_r+0xb90>
   1c234:	07010613          	addi	a2,sp,112
   1c238:	00090593          	mv	a1,s2
   1c23c:	00098513          	mv	a0,s3
   1c240:	02513423          	sd	t0,40(sp)
   1c244:	01d13c23          	sd	t4,24(sp)
   1c248:	b90ff0ef          	jal	ra,1b5d8 <__sprint_r.part.0>
   1c24c:	ee051063          	bnez	a0,1b92c <_vfiprintf_r+0x240>
   1c250:	07812603          	lw	a2,120(sp)
   1c254:	08013783          	ld	a5,128(sp)
   1c258:	10010593          	addi	a1,sp,256
   1c25c:	0016051b          	addiw	a0,a2,1
   1c260:	00040d93          	mv	s11,s0
   1c264:	02813283          	ld	t0,40(sp)
   1c268:	01813e83          	ld	t4,24(sp)
   1c26c:	86dff06f          	j	1bad8 <_vfiprintf_r+0x3ec>
   1c270:	2c079063          	bnez	a5,1c530 <_vfiprintf_r+0xe44>
   1c274:	06714703          	lbu	a4,103(sp)
   1c278:	4e071c63          	bnez	a4,1c770 <_vfiprintf_r+0x1084>
   1c27c:	280e8863          	beqz	t4,1c50c <_vfiprintf_r+0xe20>
   1c280:	06810793          	addi	a5,sp,104
   1c284:	0ef13823          	sd	a5,240(sp)
   1c288:	00200793          	li	a5,2
   1c28c:	0ef13c23          	sd	a5,248(sp)
   1c290:	00100513          	li	a0,1
   1c294:	10010593          	addi	a1,sp,256
   1c298:	00050613          	mv	a2,a0
   1c29c:	00058d93          	mv	s11,a1
   1c2a0:	0015051b          	addiw	a0,a0,1
   1c2a4:	01058593          	addi	a1,a1,16
   1c2a8:	88dff06f          	j	1bb34 <_vfiprintf_r+0x448>
   1c2ac:	000c8a13          	mv	s4,s9
   1c2b0:	ca5ff06f          	j	1bf54 <_vfiprintf_r+0x868>
   1c2b4:	01000f13          	li	t5,16
   1c2b8:	53cf5e63          	bge	t5,t3,1c7f4 <_vfiprintf_r+0x1108>
   1c2bc:	00006f17          	auipc	t5,0x6
   1c2c0:	3f4f0f13          	addi	t5,t5,1012 # 226b0 <blanks.4516>
   1c2c4:	01000f93          	li	t6,16
   1c2c8:	00700393          	li	t2,7
   1c2cc:	01c0006f          	j	1c2e8 <_vfiprintf_r+0xbfc>
   1c2d0:	0026059b          	addiw	a1,a2,2
   1c2d4:	010d8d93          	addi	s11,s11,16
   1c2d8:	00050613          	mv	a2,a0
   1c2dc:	ff0e0e1b          	addiw	t3,t3,-16
   1c2e0:	07cfde63          	bge	t6,t3,1c35c <_vfiprintf_r+0xc70>
   1c2e4:	0016059b          	addiw	a1,a2,1
   1c2e8:	01078793          	addi	a5,a5,16
   1c2ec:	01edb023          	sd	t5,0(s11)
   1c2f0:	01fdb423          	sd	t6,8(s11)
   1c2f4:	08f13023          	sd	a5,128(sp)
   1c2f8:	0005851b          	sext.w	a0,a1
   1c2fc:	06b12c23          	sw	a1,120(sp)
   1c300:	fca3d8e3          	bge	t2,a0,1c2d0 <_vfiprintf_r+0xbe4>
   1c304:	08078263          	beqz	a5,1c388 <_vfiprintf_r+0xc9c>
   1c308:	07010613          	addi	a2,sp,112
   1c30c:	00090593          	mv	a1,s2
   1c310:	00098513          	mv	a0,s3
   1c314:	03e13c23          	sd	t5,56(sp)
   1c318:	03c13823          	sd	t3,48(sp)
   1c31c:	02513423          	sd	t0,40(sp)
   1c320:	01d13c23          	sd	t4,24(sp)
   1c324:	ab4ff0ef          	jal	ra,1b5d8 <__sprint_r.part.0>
   1c328:	e0051263          	bnez	a0,1b92c <_vfiprintf_r+0x240>
   1c32c:	03013e03          	ld	t3,48(sp)
   1c330:	07812603          	lw	a2,120(sp)
   1c334:	01000f93          	li	t6,16
   1c338:	ff0e0e1b          	addiw	t3,t3,-16
   1c33c:	08013783          	ld	a5,128(sp)
   1c340:	00040d93          	mv	s11,s0
   1c344:	0016059b          	addiw	a1,a2,1
   1c348:	03813f03          	ld	t5,56(sp)
   1c34c:	00700393          	li	t2,7
   1c350:	02813283          	ld	t0,40(sp)
   1c354:	01813e83          	ld	t4,24(sp)
   1c358:	f9cfc6e3          	blt	t6,t3,1c2e4 <_vfiprintf_r+0xbf8>
   1c35c:	01c787b3          	add	a5,a5,t3
   1c360:	01edb023          	sd	t5,0(s11)
   1c364:	01cdb423          	sd	t3,8(s11)
   1c368:	08f13023          	sd	a5,128(sp)
   1c36c:	06b12c23          	sw	a1,120(sp)
   1c370:	00700613          	li	a2,7
   1c374:	eeb64ee3          	blt	a2,a1,1c270 <_vfiprintf_r+0xb84>
   1c378:	010d8d93          	addi	s11,s11,16
   1c37c:	0015851b          	addiw	a0,a1,1
   1c380:	00058613          	mv	a2,a1
   1c384:	f14ff06f          	j	1ba98 <_vfiprintf_r+0x3ac>
   1c388:	00000613          	li	a2,0
   1c38c:	00100593          	li	a1,1
   1c390:	00040d93          	mv	s11,s0
   1c394:	f49ff06f          	j	1c2dc <_vfiprintf_r+0xbf0>
   1c398:	06012c23          	sw	zero,120(sp)
   1c39c:	004cf893          	andi	a7,s9,4
   1c3a0:	0e088263          	beqz	a7,1c484 <_vfiprintf_r+0xd98>
   1c3a4:	41448b3b          	subw	s6,s1,s4
   1c3a8:	0d605e63          	blez	s6,1c484 <_vfiprintf_r+0xd98>
   1c3ac:	00040593          	mv	a1,s0
   1c3b0:	01000713          	li	a4,16
   1c3b4:	07812683          	lw	a3,120(sp)
   1c3b8:	45675463          	bge	a4,s6,1c800 <_vfiprintf_r+0x1114>
   1c3bc:	00006f17          	auipc	t5,0x6
   1c3c0:	2f4f0f13          	addi	t5,t5,756 # 226b0 <blanks.4516>
   1c3c4:	01000c13          	li	s8,16
   1c3c8:	00700b93          	li	s7,7
   1c3cc:	0180006f          	j	1c3e4 <_vfiprintf_r+0xcf8>
   1c3d0:	0026871b          	addiw	a4,a3,2
   1c3d4:	01058593          	addi	a1,a1,16
   1c3d8:	00060693          	mv	a3,a2
   1c3dc:	ff0b0b1b          	addiw	s6,s6,-16
   1c3e0:	056c5c63          	bge	s8,s6,1c438 <_vfiprintf_r+0xd4c>
   1c3e4:	0016861b          	addiw	a2,a3,1
   1c3e8:	01078793          	addi	a5,a5,16
   1c3ec:	01e5b023          	sd	t5,0(a1)
   1c3f0:	0185b423          	sd	s8,8(a1)
   1c3f4:	08f13023          	sd	a5,128(sp)
   1c3f8:	06c12c23          	sw	a2,120(sp)
   1c3fc:	fccbdae3          	bge	s7,a2,1c3d0 <_vfiprintf_r+0xce4>
   1c400:	06078a63          	beqz	a5,1c474 <_vfiprintf_r+0xd88>
   1c404:	07010613          	addi	a2,sp,112
   1c408:	00090593          	mv	a1,s2
   1c40c:	00098513          	mv	a0,s3
   1c410:	01e13c23          	sd	t5,24(sp)
   1c414:	9c4ff0ef          	jal	ra,1b5d8 <__sprint_r.part.0>
   1c418:	d0051a63          	bnez	a0,1b92c <_vfiprintf_r+0x240>
   1c41c:	07812683          	lw	a3,120(sp)
   1c420:	ff0b0b1b          	addiw	s6,s6,-16
   1c424:	08013783          	ld	a5,128(sp)
   1c428:	00040593          	mv	a1,s0
   1c42c:	0016871b          	addiw	a4,a3,1
   1c430:	01813f03          	ld	t5,24(sp)
   1c434:	fb6c48e3          	blt	s8,s6,1c3e4 <_vfiprintf_r+0xcf8>
   1c438:	016787b3          	add	a5,a5,s6
   1c43c:	01e5b023          	sd	t5,0(a1)
   1c440:	0165b423          	sd	s6,8(a1)
   1c444:	08f13023          	sd	a5,128(sp)
   1c448:	06e12c23          	sw	a4,120(sp)
   1c44c:	00700693          	li	a3,7
   1c450:	f4e6d063          	bge	a3,a4,1bb90 <_vfiprintf_r+0x4a4>
   1c454:	02078863          	beqz	a5,1c484 <_vfiprintf_r+0xd98>
   1c458:	07010613          	addi	a2,sp,112
   1c45c:	00090593          	mv	a1,s2
   1c460:	00098513          	mv	a0,s3
   1c464:	974ff0ef          	jal	ra,1b5d8 <__sprint_r.part.0>
   1c468:	cc051263          	bnez	a0,1b92c <_vfiprintf_r+0x240>
   1c46c:	08013783          	ld	a5,128(sp)
   1c470:	f20ff06f          	j	1bb90 <_vfiprintf_r+0x4a4>
   1c474:	00100713          	li	a4,1
   1c478:	00000693          	li	a3,0
   1c47c:	00040593          	mv	a1,s0
   1c480:	f5dff06f          	j	1c3dc <_vfiprintf_r+0xcf0>
   1c484:	00048793          	mv	a5,s1
   1c488:	0144d463          	bge	s1,s4,1c490 <_vfiprintf_r+0xda4>
   1c48c:	000a0793          	mv	a5,s4
   1c490:	00813703          	ld	a4,8(sp)
   1c494:	00e787bb          	addw	a5,a5,a4
   1c498:	00f13423          	sd	a5,8(sp)
   1c49c:	f10ff06f          	j	1bbac <_vfiprintf_r+0x4c0>
   1c4a0:	10078a63          	beqz	a5,1c5b4 <_vfiprintf_r+0xec8>
   1c4a4:	07010613          	addi	a2,sp,112
   1c4a8:	00090593          	mv	a1,s2
   1c4ac:	00098513          	mv	a0,s3
   1c4b0:	928ff0ef          	jal	ra,1b5d8 <__sprint_r.part.0>
   1c4b4:	c6051c63          	bnez	a0,1b92c <_vfiprintf_r+0x240>
   1c4b8:	07812503          	lw	a0,120(sp)
   1c4bc:	08013783          	ld	a5,128(sp)
   1c4c0:	10010593          	addi	a1,sp,256
   1c4c4:	0015051b          	addiw	a0,a0,1
   1c4c8:	00040d93          	mv	s11,s0
   1c4cc:	e78ff06f          	j	1bb44 <_vfiprintf_r+0x458>
   1c4d0:	06012c23          	sw	zero,120(sp)
   1c4d4:	00040d93          	mv	s11,s0
   1c4d8:	b78ff06f          	j	1b850 <_vfiprintf_r+0x164>
   1c4dc:	300c1063          	bnez	s8,1c7dc <_vfiprintf_r+0x10f0>
   1c4e0:	00000c13          	li	s8,0
   1c4e4:	00000b13          	li	s6,0
   1c4e8:	0ec10b93          	addi	s7,sp,236
   1c4ec:	d08ff06f          	j	1b9f4 <_vfiprintf_r+0x308>
   1c4f0:	10010593          	addi	a1,sp,256
   1c4f4:	00100513          	li	a0,1
   1c4f8:	00000613          	li	a2,0
   1c4fc:	00040d93          	mv	s11,s0
   1c500:	e34ff06f          	j	1bb34 <_vfiprintf_r+0x448>
   1c504:	000d0a13          	mv	s4,s10
   1c508:	b5cff06f          	j	1b864 <_vfiprintf_r+0x178>
   1c50c:	00000613          	li	a2,0
   1c510:	10010593          	addi	a1,sp,256
   1c514:	00100513          	li	a0,1
   1c518:	00040d93          	mv	s11,s0
   1c51c:	e18ff06f          	j	1bb34 <_vfiprintf_r+0x448>
   1c520:	03000793          	li	a5,48
   1c524:	0ef105a3          	sb	a5,235(sp)
   1c528:	0eb10b93          	addi	s7,sp,235
   1c52c:	cc8ff06f          	j	1b9f4 <_vfiprintf_r+0x308>
   1c530:	07010613          	addi	a2,sp,112
   1c534:	00090593          	mv	a1,s2
   1c538:	00098513          	mv	a0,s3
   1c53c:	02513423          	sd	t0,40(sp)
   1c540:	01d13c23          	sd	t4,24(sp)
   1c544:	894ff0ef          	jal	ra,1b5d8 <__sprint_r.part.0>
   1c548:	be051263          	bnez	a0,1b92c <_vfiprintf_r+0x240>
   1c54c:	07812603          	lw	a2,120(sp)
   1c550:	08013783          	ld	a5,128(sp)
   1c554:	00040d93          	mv	s11,s0
   1c558:	0016051b          	addiw	a0,a2,1
   1c55c:	02813283          	ld	t0,40(sp)
   1c560:	01813e83          	ld	t4,24(sp)
   1c564:	d34ff06f          	j	1ba98 <_vfiprintf_r+0x3ac>
   1c568:	0012851b          	addiw	a0,t0,1
   1c56c:	010f0593          	addi	a1,t5,16
   1c570:	00028613          	mv	a2,t0
   1c574:	000f0d93          	mv	s11,t5
   1c578:	dc4ff06f          	j	1bb3c <_vfiprintf_r+0x450>
   1c57c:	000c8893          	mv	a7,s9
   1c580:	fb8ff06f          	j	1bd38 <_vfiprintf_r+0x64c>
   1c584:	000c8a13          	mv	s4,s9
   1c588:	839ff06f          	j	1bdc0 <_vfiprintf_r+0x6d4>
   1c58c:	01013783          	ld	a5,16(sp)
   1c590:	0007bb03          	ld	s6,0(a5)
   1c594:	c04ff06f          	j	1b998 <_vfiprintf_r+0x2ac>
   1c598:	000c8a13          	mv	s4,s9
   1c59c:	fc8ff06f          	j	1bd64 <_vfiprintf_r+0x678>
   1c5a0:	000b8513          	mv	a0,s7
   1c5a4:	fb0fc0ef          	jal	ra,18d54 <strlen>
   1c5a8:	00050b1b          	sext.w	s6,a0
   1c5ac:	00000c13          	li	s8,0
   1c5b0:	c44ff06f          	j	1b9f4 <_vfiprintf_r+0x308>
   1c5b4:	00100713          	li	a4,1
   1c5b8:	000b0793          	mv	a5,s6
   1c5bc:	0f713823          	sd	s7,240(sp)
   1c5c0:	0f613c23          	sd	s6,248(sp)
   1c5c4:	09613023          	sd	s6,128(sp)
   1c5c8:	06e12c23          	sw	a4,120(sp)
   1c5cc:	10010593          	addi	a1,sp,256
   1c5d0:	db0ff06f          	j	1bb80 <_vfiprintf_r+0x494>
   1c5d4:	400a7793          	andi	a5,s4,1024
   1c5d8:	0007879b          	sext.w	a5,a5
   1c5dc:	00f13c23          	sd	a5,24(sp)
   1c5e0:	00000c93          	li	s9,0
   1c5e4:	0ec10b93          	addi	s7,sp,236
   1c5e8:	00a00593          	li	a1,10
   1c5ec:	000b0513          	mv	a0,s6
   1c5f0:	5d0050ef          	jal	ra,21bc0 <__umoddi3>
   1c5f4:	01813783          	ld	a5,24(sp)
   1c5f8:	0305051b          	addiw	a0,a0,48
   1c5fc:	feab8fa3          	sb	a0,-1(s7)
   1c600:	001c8c9b          	addiw	s9,s9,1
   1c604:	fffb8b93          	addi	s7,s7,-1
   1c608:	00078863          	beqz	a5,1c618 <_vfiprintf_r+0xf2c>
   1c60c:	04013783          	ld	a5,64(sp)
   1c610:	0007c603          	lbu	a2,0(a5)
   1c614:	03960063          	beq	a2,s9,1c634 <_vfiprintf_r+0xf48>
   1c618:	00a00593          	li	a1,10
   1c61c:	000b0513          	mv	a0,s6
   1c620:	558050ef          	jal	ra,21b78 <__udivdi3>
   1c624:	00900793          	li	a5,9
   1c628:	a167fce3          	bgeu	a5,s6,1c040 <_vfiprintf_r+0x954>
   1c62c:	00050b13          	mv	s6,a0
   1c630:	fb9ff06f          	j	1c5e8 <_vfiprintf_r+0xefc>
   1c634:	0ff00793          	li	a5,255
   1c638:	fef600e3          	beq	a2,a5,1c618 <_vfiprintf_r+0xf2c>
   1c63c:	00900793          	li	a5,9
   1c640:	a167f0e3          	bgeu	a5,s6,1c040 <_vfiprintf_r+0x954>
   1c644:	05013783          	ld	a5,80(sp)
   1c648:	04813583          	ld	a1,72(sp)
   1c64c:	00000c93          	li	s9,0
   1c650:	40fb8bb3          	sub	s7,s7,a5
   1c654:	00078613          	mv	a2,a5
   1c658:	000b8513          	mv	a0,s7
   1c65c:	fc8fc0ef          	jal	ra,18e24 <strncpy>
   1c660:	04013703          	ld	a4,64(sp)
   1c664:	000b0513          	mv	a0,s6
   1c668:	00a00593          	li	a1,10
   1c66c:	00174603          	lbu	a2,1(a4)
   1c670:	00c037b3          	snez	a5,a2
   1c674:	00f707b3          	add	a5,a4,a5
   1c678:	04f13023          	sd	a5,64(sp)
   1c67c:	4fc050ef          	jal	ra,21b78 <__udivdi3>
   1c680:	00050b13          	mv	s6,a0
   1c684:	f65ff06f          	j	1c5e8 <_vfiprintf_r+0xefc>
   1c688:	200ce893          	ori	a7,s9,512
   1c68c:	001d4603          	lbu	a2,1(s10)
   1c690:	00088c9b          	sext.w	s9,a7
   1c694:	001d0d13          	addi	s10,s10,1
   1c698:	9ecff06f          	j	1b884 <_vfiprintf_r+0x198>
   1c69c:	020ce893          	ori	a7,s9,32
   1c6a0:	001d4603          	lbu	a2,1(s10)
   1c6a4:	00088c9b          	sext.w	s9,a7
   1c6a8:	001d0d13          	addi	s10,s10,1
   1c6ac:	9d8ff06f          	j	1b884 <_vfiprintf_r+0x198>
   1c6b0:	000c061b          	sext.w	a2,s8
   1c6b4:	00600793          	li	a5,6
   1c6b8:	000c0693          	mv	a3,s8
   1c6bc:	0ac7e663          	bltu	a5,a2,1c768 <_vfiprintf_r+0x107c>
   1c6c0:	00068b1b          	sext.w	s6,a3
   1c6c4:	000b0a13          	mv	s4,s6
   1c6c8:	00e13823          	sd	a4,16(sp)
   1c6cc:	00006b97          	auipc	s7,0x6
   1c6d0:	8f4b8b93          	addi	s7,s7,-1804 # 21fc0 <zeroes.4541+0x90>
   1c6d4:	b90ff06f          	j	1ba64 <_vfiprintf_r+0x378>
   1c6d8:	200cf513          	andi	a0,s9,512
   1c6dc:	0ff7fb13          	andi	s6,a5,255
   1c6e0:	aa051c63          	bnez	a0,1b998 <_vfiprintf_r+0x2ac>
   1c6e4:	02079b13          	slli	s6,a5,0x20
   1c6e8:	020b5b13          	srli	s6,s6,0x20
   1c6ec:	aacff06f          	j	1b998 <_vfiprintf_r+0x2ac>
   1c6f0:	200cf793          	andi	a5,s9,512
   1c6f4:	0c078863          	beqz	a5,1c7c4 <_vfiprintf_r+0x10d8>
   1c6f8:	01013783          	ld	a5,16(sp)
   1c6fc:	000c8a13          	mv	s4,s9
   1c700:	00b13823          	sd	a1,16(sp)
   1c704:	00078b03          	lb	s6,0(a5)
   1c708:	000b0613          	mv	a2,s6
   1c70c:	e68ff06f          	j	1bd74 <_vfiprintf_r+0x688>
   1c710:	200cf593          	andi	a1,s9,512
   1c714:	08058e63          	beqz	a1,1c7b0 <_vfiprintf_r+0x10c4>
   1c718:	0ff7fb13          	andi	s6,a5,255
   1c71c:	000c8893          	mv	a7,s9
   1c720:	00c13823          	sd	a2,16(sp)
   1c724:	e20ff06f          	j	1bd44 <_vfiprintf_r+0x658>
   1c728:	200cf613          	andi	a2,s9,512
   1c72c:	06060663          	beqz	a2,1c798 <_vfiprintf_r+0x10ac>
   1c730:	0ff7fb13          	andi	s6,a5,255
   1c734:	00b13823          	sd	a1,16(sp)
   1c738:	000c8a13          	mv	s4,s9
   1c73c:	00100613          	li	a2,1
   1c740:	a88ff06f          	j	1b9c8 <_vfiprintf_r+0x2dc>
   1c744:	00058613          	mv	a2,a1
   1c748:	00006e97          	auipc	t4,0x6
   1c74c:	f78e8e93          	addi	t4,t4,-136 # 226c0 <zeroes.4517>
   1c750:	a7dff06f          	j	1c1cc <_vfiprintf_r+0xae0>
   1c754:	10010593          	addi	a1,sp,256
   1c758:	00100513          	li	a0,1
   1c75c:	00000613          	li	a2,0
   1c760:	00040d93          	mv	s11,s0
   1c764:	bd8ff06f          	j	1bb3c <_vfiprintf_r+0x450>
   1c768:	00600693          	li	a3,6
   1c76c:	f55ff06f          	j	1c6c0 <_vfiprintf_r+0xfd4>
   1c770:	06710793          	addi	a5,sp,103
   1c774:	0ef13823          	sd	a5,240(sp)
   1c778:	00100793          	li	a5,1
   1c77c:	0ef13c23          	sd	a5,248(sp)
   1c780:	00100513          	li	a0,1
   1c784:	10010593          	addi	a1,sp,256
   1c788:	b40ff06f          	j	1bac8 <_vfiprintf_r+0x3dc>
   1c78c:	00813783          	ld	a5,8(sp)
   1c790:	00f69023          	sh	a5,0(a3)
   1c794:	840ff06f          	j	1b7d4 <_vfiprintf_r+0xe8>
   1c798:	02079b13          	slli	s6,a5,0x20
   1c79c:	020b5b13          	srli	s6,s6,0x20
   1c7a0:	00b13823          	sd	a1,16(sp)
   1c7a4:	000c8a13          	mv	s4,s9
   1c7a8:	00100613          	li	a2,1
   1c7ac:	a1cff06f          	j	1b9c8 <_vfiprintf_r+0x2dc>
   1c7b0:	02079b13          	slli	s6,a5,0x20
   1c7b4:	020b5b13          	srli	s6,s6,0x20
   1c7b8:	000c8893          	mv	a7,s9
   1c7bc:	00c13823          	sd	a2,16(sp)
   1c7c0:	d84ff06f          	j	1bd44 <_vfiprintf_r+0x658>
   1c7c4:	01013783          	ld	a5,16(sp)
   1c7c8:	000c8a13          	mv	s4,s9
   1c7cc:	00b13823          	sd	a1,16(sp)
   1c7d0:	0007ab03          	lw	s6,0(a5)
   1c7d4:	000b0613          	mv	a2,s6
   1c7d8:	d9cff06f          	j	1bd74 <_vfiprintf_r+0x688>
   1c7dc:	000c8a13          	mv	s4,s9
   1c7e0:	db8ff06f          	j	1bd98 <_vfiprintf_r+0x6ac>
   1c7e4:	000c0b13          	mv	s6,s8
   1c7e8:	00e13823          	sd	a4,16(sp)
   1c7ec:	00000c13          	li	s8,0
   1c7f0:	a04ff06f          	j	1b9f4 <_vfiprintf_r+0x308>
   1c7f4:	00006f17          	auipc	t5,0x6
   1c7f8:	ebcf0f13          	addi	t5,t5,-324 # 226b0 <blanks.4516>
   1c7fc:	b61ff06f          	j	1c35c <_vfiprintf_r+0xc70>
   1c800:	0016871b          	addiw	a4,a3,1
   1c804:	00006f17          	auipc	t5,0x6
   1c808:	eacf0f13          	addi	t5,t5,-340 # 226b0 <blanks.4516>
   1c80c:	c2dff06f          	j	1c438 <_vfiprintf_r+0xd4c>
   1c810:	fff00793          	li	a5,-1
   1c814:	00f13423          	sd	a5,8(sp)
   1c818:	920ff06f          	j	1b938 <_vfiprintf_r+0x24c>
   1c81c:	00058f13          	mv	t5,a1
   1c820:	00050293          	mv	t0,a0
   1c824:	00006e97          	auipc	t4,0x6
   1c828:	e9ce8e93          	addi	t4,t4,-356 # 226c0 <zeroes.4517>
   1c82c:	8c5ff06f          	j	1c0f0 <_vfiprintf_r+0xa04>
   1c830:	00f6a023          	sw	a5,0(a3)
   1c834:	fa1fe06f          	j	1b7d4 <_vfiprintf_r+0xe8>
   1c838:	01013703          	ld	a4,16(sp)
   1c83c:	00072683          	lw	a3,0(a4)
   1c840:	00870b93          	addi	s7,a4,8
   1c844:	0006d463          	bgez	a3,1c84c <_vfiprintf_r+0x1160>
   1c848:	fff00693          	li	a3,-1
   1c84c:	001d4603          	lbu	a2,1(s10)
   1c850:	00068c13          	mv	s8,a3
   1c854:	01713823          	sd	s7,16(sp)
   1c858:	00078d13          	mv	s10,a5
   1c85c:	828ff06f          	j	1b884 <_vfiprintf_r+0x198>

000000000001c860 <vfiprintf>:
   1c860:	75818793          	addi	a5,gp,1880 # 24b78 <_impure_ptr>
   1c864:	00060693          	mv	a3,a2
   1c868:	00058613          	mv	a2,a1
   1c86c:	00050593          	mv	a1,a0
   1c870:	0007b503          	ld	a0,0(a5)
   1c874:	e79fe06f          	j	1b6ec <_vfiprintf_r>

000000000001c878 <__sbprintf>:
   1c878:	0105d783          	lhu	a5,16(a1)
   1c87c:	0ac5ae03          	lw	t3,172(a1)
   1c880:	0125d303          	lhu	t1,18(a1)
   1c884:	0305b883          	ld	a7,48(a1)
   1c888:	0405b803          	ld	a6,64(a1)
   1c88c:	b3010113          	addi	sp,sp,-1232
   1c890:	ffd7f793          	andi	a5,a5,-3
   1c894:	40000713          	li	a4,1024
   1c898:	4c813023          	sd	s0,1216(sp)
   1c89c:	00f11823          	sh	a5,16(sp)
   1c8a0:	00058413          	mv	s0,a1
   1c8a4:	0b010793          	addi	a5,sp,176
   1c8a8:	00010593          	mv	a1,sp
   1c8ac:	4a913c23          	sd	s1,1208(sp)
   1c8b0:	4b213823          	sd	s2,1200(sp)
   1c8b4:	4c113423          	sd	ra,1224(sp)
   1c8b8:	00050913          	mv	s2,a0
   1c8bc:	0bc12623          	sw	t3,172(sp)
   1c8c0:	00611923          	sh	t1,18(sp)
   1c8c4:	03113823          	sd	a7,48(sp)
   1c8c8:	05013023          	sd	a6,64(sp)
   1c8cc:	00f13023          	sd	a5,0(sp)
   1c8d0:	00f13c23          	sd	a5,24(sp)
   1c8d4:	00e12623          	sw	a4,12(sp)
   1c8d8:	02e12023          	sw	a4,32(sp)
   1c8dc:	02012423          	sw	zero,40(sp)
   1c8e0:	e0dfe0ef          	jal	ra,1b6ec <_vfiprintf_r>
   1c8e4:	00050493          	mv	s1,a0
   1c8e8:	02055c63          	bgez	a0,1c920 <__sbprintf+0xa8>
   1c8ec:	01015783          	lhu	a5,16(sp)
   1c8f0:	0407f793          	andi	a5,a5,64
   1c8f4:	00078863          	beqz	a5,1c904 <__sbprintf+0x8c>
   1c8f8:	01045783          	lhu	a5,16(s0)
   1c8fc:	0407e793          	ori	a5,a5,64
   1c900:	00f41823          	sh	a5,16(s0)
   1c904:	4c813083          	ld	ra,1224(sp)
   1c908:	4c013403          	ld	s0,1216(sp)
   1c90c:	00048513          	mv	a0,s1
   1c910:	4b013903          	ld	s2,1200(sp)
   1c914:	4b813483          	ld	s1,1208(sp)
   1c918:	4d010113          	addi	sp,sp,1232
   1c91c:	00008067          	ret
   1c920:	00010593          	mv	a1,sp
   1c924:	00090513          	mv	a0,s2
   1c928:	b15f60ef          	jal	ra,1343c <_fflush_r>
   1c92c:	fc0500e3          	beqz	a0,1c8ec <__sbprintf+0x74>
   1c930:	fff00493          	li	s1,-1
   1c934:	fb9ff06f          	j	1c8ec <__sbprintf+0x74>

000000000001c938 <_wctomb_r>:
   1c938:	d6018793          	addi	a5,gp,-672 # 24180 <__global_locale>
   1c93c:	0e07b303          	ld	t1,224(a5)
   1c940:	00030067          	jr	t1

000000000001c944 <__ascii_wctomb>:
   1c944:	0006079b          	sext.w	a5,a2
   1c948:	02058463          	beqz	a1,1c970 <__ascii_wctomb+0x2c>
   1c94c:	0ff00713          	li	a4,255
   1c950:	00f76863          	bltu	a4,a5,1c960 <__ascii_wctomb+0x1c>
   1c954:	00c58023          	sb	a2,0(a1)
   1c958:	00100513          	li	a0,1
   1c95c:	00008067          	ret
   1c960:	08a00793          	li	a5,138
   1c964:	00f52023          	sw	a5,0(a0)
   1c968:	fff00513          	li	a0,-1
   1c96c:	00008067          	ret
   1c970:	00000513          	li	a0,0
   1c974:	00008067          	ret

000000000001c978 <_write_r>:
   1c978:	00058793          	mv	a5,a1
   1c97c:	ff010113          	addi	sp,sp,-16
   1c980:	00813023          	sd	s0,0(sp)
   1c984:	00060593          	mv	a1,a2
   1c988:	00050413          	mv	s0,a0
   1c98c:	00068613          	mv	a2,a3
   1c990:	00078513          	mv	a0,a5
   1c994:	00113423          	sd	ra,8(sp)
   1c998:	00008797          	auipc	a5,0x8
   1c99c:	2807a023          	sw	zero,640(a5) # 24c18 <errno>
   1c9a0:	26d020ef          	jal	ra,1f40c <_write>
   1c9a4:	fff00793          	li	a5,-1
   1c9a8:	00f50a63          	beq	a0,a5,1c9bc <_write_r+0x44>
   1c9ac:	00813083          	ld	ra,8(sp)
   1c9b0:	00013403          	ld	s0,0(sp)
   1c9b4:	01010113          	addi	sp,sp,16
   1c9b8:	00008067          	ret
   1c9bc:	00008797          	auipc	a5,0x8
   1c9c0:	25c78793          	addi	a5,a5,604 # 24c18 <errno>
   1c9c4:	0007a783          	lw	a5,0(a5)
   1c9c8:	fe0782e3          	beqz	a5,1c9ac <_write_r+0x34>
   1c9cc:	00f42023          	sw	a5,0(s0)
   1c9d0:	00813083          	ld	ra,8(sp)
   1c9d4:	00013403          	ld	s0,0(sp)
   1c9d8:	01010113          	addi	sp,sp,16
   1c9dc:	00008067          	ret

000000000001c9e0 <_calloc_r>:
   1c9e0:	ff010113          	addi	sp,sp,-16
   1c9e4:	00058793          	mv	a5,a1
   1c9e8:	00813023          	sd	s0,0(sp)
   1c9ec:	00060593          	mv	a1,a2
   1c9f0:	00050413          	mv	s0,a0
   1c9f4:	00078513          	mv	a0,a5
   1c9f8:	00113423          	sd	ra,8(sp)
   1c9fc:	110050ef          	jal	ra,21b0c <__muldi3>
   1ca00:	00050593          	mv	a1,a0
   1ca04:	00040513          	mv	a0,s0
   1ca08:	aacfa0ef          	jal	ra,16cb4 <_malloc_r>
   1ca0c:	00050413          	mv	s0,a0
   1ca10:	02050863          	beqz	a0,1ca40 <_calloc_r+0x60>
   1ca14:	ff853603          	ld	a2,-8(a0)
   1ca18:	04800713          	li	a4,72
   1ca1c:	ffc67613          	andi	a2,a2,-4
   1ca20:	ff860613          	addi	a2,a2,-8
   1ca24:	06c76063          	bltu	a4,a2,1ca84 <_calloc_r+0xa4>
   1ca28:	02700693          	li	a3,39
   1ca2c:	00050793          	mv	a5,a0
   1ca30:	02c6e263          	bltu	a3,a2,1ca54 <_calloc_r+0x74>
   1ca34:	0007b023          	sd	zero,0(a5)
   1ca38:	0007b423          	sd	zero,8(a5)
   1ca3c:	0007b823          	sd	zero,16(a5)
   1ca40:	00040513          	mv	a0,s0
   1ca44:	00813083          	ld	ra,8(sp)
   1ca48:	00013403          	ld	s0,0(sp)
   1ca4c:	01010113          	addi	sp,sp,16
   1ca50:	00008067          	ret
   1ca54:	00053023          	sd	zero,0(a0)
   1ca58:	00053423          	sd	zero,8(a0)
   1ca5c:	03700793          	li	a5,55
   1ca60:	04c7f063          	bgeu	a5,a2,1caa0 <_calloc_r+0xc0>
   1ca64:	00053823          	sd	zero,16(a0)
   1ca68:	00053c23          	sd	zero,24(a0)
   1ca6c:	02050793          	addi	a5,a0,32
   1ca70:	fce612e3          	bne	a2,a4,1ca34 <_calloc_r+0x54>
   1ca74:	02053023          	sd	zero,32(a0)
   1ca78:	03050793          	addi	a5,a0,48
   1ca7c:	02053423          	sd	zero,40(a0)
   1ca80:	fb5ff06f          	j	1ca34 <_calloc_r+0x54>
   1ca84:	00000593          	li	a1,0
   1ca88:	abdf30ef          	jal	ra,10544 <memset>
   1ca8c:	00040513          	mv	a0,s0
   1ca90:	00813083          	ld	ra,8(sp)
   1ca94:	00013403          	ld	s0,0(sp)
   1ca98:	01010113          	addi	sp,sp,16
   1ca9c:	00008067          	ret
   1caa0:	01050793          	addi	a5,a0,16
   1caa4:	f91ff06f          	j	1ca34 <_calloc_r+0x54>

000000000001caa8 <_close_r>:
   1caa8:	ff010113          	addi	sp,sp,-16
   1caac:	00813023          	sd	s0,0(sp)
   1cab0:	00050413          	mv	s0,a0
   1cab4:	00058513          	mv	a0,a1
   1cab8:	00008797          	auipc	a5,0x8
   1cabc:	1607a023          	sw	zero,352(a5) # 24c18 <errno>
   1cac0:	00113423          	sd	ra,8(sp)
   1cac4:	6b8020ef          	jal	ra,1f17c <_close>
   1cac8:	fff00793          	li	a5,-1
   1cacc:	00f50a63          	beq	a0,a5,1cae0 <_close_r+0x38>
   1cad0:	00813083          	ld	ra,8(sp)
   1cad4:	00013403          	ld	s0,0(sp)
   1cad8:	01010113          	addi	sp,sp,16
   1cadc:	00008067          	ret
   1cae0:	00008797          	auipc	a5,0x8
   1cae4:	13878793          	addi	a5,a5,312 # 24c18 <errno>
   1cae8:	0007a783          	lw	a5,0(a5)
   1caec:	fe0782e3          	beqz	a5,1cad0 <_close_r+0x28>
   1caf0:	00f42023          	sw	a5,0(s0)
   1caf4:	00813083          	ld	ra,8(sp)
   1caf8:	00013403          	ld	s0,0(sp)
   1cafc:	01010113          	addi	sp,sp,16
   1cb00:	00008067          	ret

000000000001cb04 <_fclose_r>:
   1cb04:	fe010113          	addi	sp,sp,-32
   1cb08:	00113c23          	sd	ra,24(sp)
   1cb0c:	00813823          	sd	s0,16(sp)
   1cb10:	00913423          	sd	s1,8(sp)
   1cb14:	01213023          	sd	s2,0(sp)
   1cb18:	02058063          	beqz	a1,1cb38 <_fclose_r+0x34>
   1cb1c:	00050493          	mv	s1,a0
   1cb20:	00058413          	mv	s0,a1
   1cb24:	00050663          	beqz	a0,1cb30 <_fclose_r+0x2c>
   1cb28:	05052783          	lw	a5,80(a0)
   1cb2c:	0a078c63          	beqz	a5,1cbe4 <_fclose_r+0xe0>
   1cb30:	01041783          	lh	a5,16(s0)
   1cb34:	02079263          	bnez	a5,1cb58 <_fclose_r+0x54>
   1cb38:	01813083          	ld	ra,24(sp)
   1cb3c:	01013403          	ld	s0,16(sp)
   1cb40:	00000913          	li	s2,0
   1cb44:	00090513          	mv	a0,s2
   1cb48:	00813483          	ld	s1,8(sp)
   1cb4c:	00013903          	ld	s2,0(sp)
   1cb50:	02010113          	addi	sp,sp,32
   1cb54:	00008067          	ret
   1cb58:	00040593          	mv	a1,s0
   1cb5c:	00048513          	mv	a0,s1
   1cb60:	e80f60ef          	jal	ra,131e0 <__sflush_r>
   1cb64:	05043783          	ld	a5,80(s0)
   1cb68:	00050913          	mv	s2,a0
   1cb6c:	00078a63          	beqz	a5,1cb80 <_fclose_r+0x7c>
   1cb70:	03043583          	ld	a1,48(s0)
   1cb74:	00048513          	mv	a0,s1
   1cb78:	000780e7          	jalr	a5
   1cb7c:	06054c63          	bltz	a0,1cbf4 <_fclose_r+0xf0>
   1cb80:	01045783          	lhu	a5,16(s0)
   1cb84:	0807f793          	andi	a5,a5,128
   1cb88:	06079e63          	bnez	a5,1cc04 <_fclose_r+0x100>
   1cb8c:	05843583          	ld	a1,88(s0)
   1cb90:	00058c63          	beqz	a1,1cba8 <_fclose_r+0xa4>
   1cb94:	07440793          	addi	a5,s0,116
   1cb98:	00f58663          	beq	a1,a5,1cba4 <_fclose_r+0xa0>
   1cb9c:	00048513          	mv	a0,s1
   1cba0:	dc5f60ef          	jal	ra,13964 <_free_r>
   1cba4:	04043c23          	sd	zero,88(s0)
   1cba8:	07843583          	ld	a1,120(s0)
   1cbac:	00058863          	beqz	a1,1cbbc <_fclose_r+0xb8>
   1cbb0:	00048513          	mv	a0,s1
   1cbb4:	db1f60ef          	jal	ra,13964 <_free_r>
   1cbb8:	06043c23          	sd	zero,120(s0)
   1cbbc:	c39f60ef          	jal	ra,137f4 <__sfp_lock_acquire>
   1cbc0:	00041823          	sh	zero,16(s0)
   1cbc4:	c35f60ef          	jal	ra,137f8 <__sfp_lock_release>
   1cbc8:	01813083          	ld	ra,24(sp)
   1cbcc:	01013403          	ld	s0,16(sp)
   1cbd0:	00090513          	mv	a0,s2
   1cbd4:	00813483          	ld	s1,8(sp)
   1cbd8:	00013903          	ld	s2,0(sp)
   1cbdc:	02010113          	addi	sp,sp,32
   1cbe0:	00008067          	ret
   1cbe4:	c01f60ef          	jal	ra,137e4 <__sinit>
   1cbe8:	01041783          	lh	a5,16(s0)
   1cbec:	f40786e3          	beqz	a5,1cb38 <_fclose_r+0x34>
   1cbf0:	f69ff06f          	j	1cb58 <_fclose_r+0x54>
   1cbf4:	01045783          	lhu	a5,16(s0)
   1cbf8:	fff00913          	li	s2,-1
   1cbfc:	0807f793          	andi	a5,a5,128
   1cc00:	f80786e3          	beqz	a5,1cb8c <_fclose_r+0x88>
   1cc04:	01843583          	ld	a1,24(s0)
   1cc08:	00048513          	mv	a0,s1
   1cc0c:	d59f60ef          	jal	ra,13964 <_free_r>
   1cc10:	f7dff06f          	j	1cb8c <_fclose_r+0x88>

000000000001cc14 <fclose>:
   1cc14:	75818793          	addi	a5,gp,1880 # 24b78 <_impure_ptr>
   1cc18:	00050593          	mv	a1,a0
   1cc1c:	0007b503          	ld	a0,0(a5)
   1cc20:	ee5ff06f          	j	1cb04 <_fclose_r>

000000000001cc24 <__fputwc>:
   1cc24:	fb010113          	addi	sp,sp,-80
   1cc28:	04813023          	sd	s0,64(sp)
   1cc2c:	03213823          	sd	s2,48(sp)
   1cc30:	03313423          	sd	s3,40(sp)
   1cc34:	04113423          	sd	ra,72(sp)
   1cc38:	02913c23          	sd	s1,56(sp)
   1cc3c:	03413023          	sd	s4,32(sp)
   1cc40:	01513c23          	sd	s5,24(sp)
   1cc44:	01613823          	sd	s6,16(sp)
   1cc48:	00050913          	mv	s2,a0
   1cc4c:	00058993          	mv	s3,a1
   1cc50:	00060413          	mv	s0,a2
   1cc54:	e55f90ef          	jal	ra,16aa8 <__locale_mb_cur_max>
   1cc58:	00100793          	li	a5,1
   1cc5c:	02f51063          	bne	a0,a5,1cc7c <__fputwc+0x58>
   1cc60:	fff9879b          	addiw	a5,s3,-1
   1cc64:	0fe00713          	li	a4,254
   1cc68:	00f76a63          	bltu	a4,a5,1cc7c <__fputwc+0x58>
   1cc6c:	0ff9f713          	andi	a4,s3,255
   1cc70:	00e10423          	sb	a4,8(sp)
   1cc74:	00100a93          	li	s5,1
   1cc78:	02c0006f          	j	1cca4 <__fputwc+0x80>
   1cc7c:	0a440693          	addi	a3,s0,164
   1cc80:	00098613          	mv	a2,s3
   1cc84:	00810593          	addi	a1,sp,8
   1cc88:	00090513          	mv	a0,s2
   1cc8c:	3e8020ef          	jal	ra,1f074 <_wcrtomb_r>
   1cc90:	fff00793          	li	a5,-1
   1cc94:	00050a93          	mv	s5,a0
   1cc98:	0af50263          	beq	a0,a5,1cd3c <__fputwc+0x118>
   1cc9c:	08050c63          	beqz	a0,1cd34 <__fputwc+0x110>
   1cca0:	00814703          	lbu	a4,8(sp)
   1cca4:	00000493          	li	s1,0
   1cca8:	fff00a13          	li	s4,-1
   1ccac:	00a00b13          	li	s6,10
   1ccb0:	0280006f          	j	1ccd8 <__fputwc+0xb4>
   1ccb4:	00043783          	ld	a5,0(s0)
   1ccb8:	00178693          	addi	a3,a5,1
   1ccbc:	00d43023          	sd	a3,0(s0)
   1ccc0:	00e78023          	sb	a4,0(a5)
   1ccc4:	00148493          	addi	s1,s1,1
   1ccc8:	00810793          	addi	a5,sp,8
   1cccc:	009787b3          	add	a5,a5,s1
   1ccd0:	0754f263          	bgeu	s1,s5,1cd34 <__fputwc+0x110>
   1ccd4:	0007c703          	lbu	a4,0(a5)
   1ccd8:	00c42783          	lw	a5,12(s0)
   1ccdc:	fff7879b          	addiw	a5,a5,-1
   1cce0:	00f42623          	sw	a5,12(s0)
   1cce4:	fc07d8e3          	bgez	a5,1ccb4 <__fputwc+0x90>
   1cce8:	02842683          	lw	a3,40(s0)
   1ccec:	00070593          	mv	a1,a4
   1ccf0:	00040613          	mv	a2,s0
   1ccf4:	00090513          	mv	a0,s2
   1ccf8:	00d7c463          	blt	a5,a3,1cd00 <__fputwc+0xdc>
   1ccfc:	fb671ce3          	bne	a4,s6,1ccb4 <__fputwc+0x90>
   1cd00:	1dc020ef          	jal	ra,1eedc <__swbuf_r>
   1cd04:	fd4510e3          	bne	a0,s4,1ccc4 <__fputwc+0xa0>
   1cd08:	fff00513          	li	a0,-1
   1cd0c:	04813083          	ld	ra,72(sp)
   1cd10:	04013403          	ld	s0,64(sp)
   1cd14:	03813483          	ld	s1,56(sp)
   1cd18:	03013903          	ld	s2,48(sp)
   1cd1c:	02813983          	ld	s3,40(sp)
   1cd20:	02013a03          	ld	s4,32(sp)
   1cd24:	01813a83          	ld	s5,24(sp)
   1cd28:	01013b03          	ld	s6,16(sp)
   1cd2c:	05010113          	addi	sp,sp,80
   1cd30:	00008067          	ret
   1cd34:	0009851b          	sext.w	a0,s3
   1cd38:	fd5ff06f          	j	1cd0c <__fputwc+0xe8>
   1cd3c:	01045783          	lhu	a5,16(s0)
   1cd40:	fff00513          	li	a0,-1
   1cd44:	0407e793          	ori	a5,a5,64
   1cd48:	00f41823          	sh	a5,16(s0)
   1cd4c:	fc1ff06f          	j	1cd0c <__fputwc+0xe8>

000000000001cd50 <_fputwc_r>:
   1cd50:	01061783          	lh	a5,16(a2)
   1cd54:	03279713          	slli	a4,a5,0x32
   1cd58:	02074063          	bltz	a4,1cd78 <_fputwc_r+0x28>
   1cd5c:	0ac62703          	lw	a4,172(a2)
   1cd60:	000026b7          	lui	a3,0x2
   1cd64:	00d7e7b3          	or	a5,a5,a3
   1cd68:	000026b7          	lui	a3,0x2
   1cd6c:	00d76733          	or	a4,a4,a3
   1cd70:	00f61823          	sh	a5,16(a2)
   1cd74:	0ae62623          	sw	a4,172(a2)
   1cd78:	eadff06f          	j	1cc24 <__fputwc>

000000000001cd7c <fputwc>:
   1cd7c:	fd010113          	addi	sp,sp,-48
   1cd80:	75818793          	addi	a5,gp,1880 # 24b78 <_impure_ptr>
   1cd84:	02813023          	sd	s0,32(sp)
   1cd88:	0007b403          	ld	s0,0(a5)
   1cd8c:	00913c23          	sd	s1,24(sp)
   1cd90:	02113423          	sd	ra,40(sp)
   1cd94:	00050493          	mv	s1,a0
   1cd98:	00058613          	mv	a2,a1
   1cd9c:	00040663          	beqz	s0,1cda8 <fputwc+0x2c>
   1cda0:	05042783          	lw	a5,80(s0)
   1cda4:	04078463          	beqz	a5,1cdec <fputwc+0x70>
   1cda8:	01061783          	lh	a5,16(a2)
   1cdac:	03279713          	slli	a4,a5,0x32
   1cdb0:	02074063          	bltz	a4,1cdd0 <fputwc+0x54>
   1cdb4:	0ac62703          	lw	a4,172(a2)
   1cdb8:	000026b7          	lui	a3,0x2
   1cdbc:	00d7e7b3          	or	a5,a5,a3
   1cdc0:	000026b7          	lui	a3,0x2
   1cdc4:	00d76733          	or	a4,a4,a3
   1cdc8:	00f61823          	sh	a5,16(a2)
   1cdcc:	0ae62623          	sw	a4,172(a2)
   1cdd0:	00040513          	mv	a0,s0
   1cdd4:	02013403          	ld	s0,32(sp)
   1cdd8:	02813083          	ld	ra,40(sp)
   1cddc:	00048593          	mv	a1,s1
   1cde0:	01813483          	ld	s1,24(sp)
   1cde4:	03010113          	addi	sp,sp,48
   1cde8:	e3dff06f          	j	1cc24 <__fputwc>
   1cdec:	00040513          	mv	a0,s0
   1cdf0:	00b13423          	sd	a1,8(sp)
   1cdf4:	9f1f60ef          	jal	ra,137e4 <__sinit>
   1cdf8:	00813603          	ld	a2,8(sp)
   1cdfc:	fadff06f          	j	1cda8 <fputwc+0x2c>

000000000001ce00 <_fstat_r>:
   1ce00:	00058793          	mv	a5,a1
   1ce04:	ff010113          	addi	sp,sp,-16
   1ce08:	00813023          	sd	s0,0(sp)
   1ce0c:	00060593          	mv	a1,a2
   1ce10:	00050413          	mv	s0,a0
   1ce14:	00078513          	mv	a0,a5
   1ce18:	00113423          	sd	ra,8(sp)
   1ce1c:	00008797          	auipc	a5,0x8
   1ce20:	de07ae23          	sw	zero,-516(a5) # 24c18 <errno>
   1ce24:	3f4020ef          	jal	ra,1f218 <_fstat>
   1ce28:	fff00793          	li	a5,-1
   1ce2c:	00f50a63          	beq	a0,a5,1ce40 <_fstat_r+0x40>
   1ce30:	00813083          	ld	ra,8(sp)
   1ce34:	00013403          	ld	s0,0(sp)
   1ce38:	01010113          	addi	sp,sp,16
   1ce3c:	00008067          	ret
   1ce40:	00008797          	auipc	a5,0x8
   1ce44:	dd878793          	addi	a5,a5,-552 # 24c18 <errno>
   1ce48:	0007a783          	lw	a5,0(a5)
   1ce4c:	fe0782e3          	beqz	a5,1ce30 <_fstat_r+0x30>
   1ce50:	00f42023          	sw	a5,0(s0)
   1ce54:	00813083          	ld	ra,8(sp)
   1ce58:	00013403          	ld	s0,0(sp)
   1ce5c:	01010113          	addi	sp,sp,16
   1ce60:	00008067          	ret

000000000001ce64 <__sfvwrite_r>:
   1ce64:	01063783          	ld	a5,16(a2)
   1ce68:	28078c63          	beqz	a5,1d100 <__sfvwrite_r+0x29c>
   1ce6c:	0105d783          	lhu	a5,16(a1)
   1ce70:	fa010113          	addi	sp,sp,-96
   1ce74:	04813823          	sd	s0,80(sp)
   1ce78:	03413823          	sd	s4,48(sp)
   1ce7c:	03513423          	sd	s5,40(sp)
   1ce80:	04113c23          	sd	ra,88(sp)
   1ce84:	04913423          	sd	s1,72(sp)
   1ce88:	05213023          	sd	s2,64(sp)
   1ce8c:	03313c23          	sd	s3,56(sp)
   1ce90:	03613023          	sd	s6,32(sp)
   1ce94:	01713c23          	sd	s7,24(sp)
   1ce98:	01813823          	sd	s8,16(sp)
   1ce9c:	01913423          	sd	s9,8(sp)
   1cea0:	01a13023          	sd	s10,0(sp)
   1cea4:	0087f713          	andi	a4,a5,8
   1cea8:	00058413          	mv	s0,a1
   1ceac:	00050a93          	mv	s5,a0
   1ceb0:	00060a13          	mv	s4,a2
   1ceb4:	08070c63          	beqz	a4,1cf4c <__sfvwrite_r+0xe8>
   1ceb8:	0185b703          	ld	a4,24(a1)
   1cebc:	08070863          	beqz	a4,1cf4c <__sfvwrite_r+0xe8>
   1cec0:	0027f713          	andi	a4,a5,2
   1cec4:	000a3903          	ld	s2,0(s4)
   1cec8:	0a070263          	beqz	a4,1cf6c <__sfvwrite_r+0x108>
   1cecc:	04043703          	ld	a4,64(s0)
   1ced0:	03043783          	ld	a5,48(s0)
   1ced4:	80000b37          	lui	s6,0x80000
   1ced8:	00000993          	li	s3,0
   1cedc:	00000493          	li	s1,0
   1cee0:	c00b4b13          	xori	s6,s6,-1024
   1cee4:	00098613          	mv	a2,s3
   1cee8:	00078593          	mv	a1,a5
   1ceec:	000a8513          	mv	a0,s5
   1cef0:	04048663          	beqz	s1,1cf3c <__sfvwrite_r+0xd8>
   1cef4:	00048693          	mv	a3,s1
   1cef8:	009b7463          	bgeu	s6,s1,1cf00 <__sfvwrite_r+0x9c>
   1cefc:	000b0693          	mv	a3,s6
   1cf00:	0006869b          	sext.w	a3,a3
   1cf04:	000700e7          	jalr	a4
   1cf08:	1ea05263          	blez	a0,1d0ec <__sfvwrite_r+0x288>
   1cf0c:	010a3783          	ld	a5,16(s4)
   1cf10:	00a989b3          	add	s3,s3,a0
   1cf14:	40a484b3          	sub	s1,s1,a0
   1cf18:	40a78533          	sub	a0,a5,a0
   1cf1c:	00aa3823          	sd	a0,16(s4)
   1cf20:	18050063          	beqz	a0,1d0a0 <__sfvwrite_r+0x23c>
   1cf24:	03043783          	ld	a5,48(s0)
   1cf28:	04043703          	ld	a4,64(s0)
   1cf2c:	00098613          	mv	a2,s3
   1cf30:	00078593          	mv	a1,a5
   1cf34:	000a8513          	mv	a0,s5
   1cf38:	fa049ee3          	bnez	s1,1cef4 <__sfvwrite_r+0x90>
   1cf3c:	00093983          	ld	s3,0(s2)
   1cf40:	00893483          	ld	s1,8(s2)
   1cf44:	01090913          	addi	s2,s2,16
   1cf48:	f9dff06f          	j	1cee4 <__sfvwrite_r+0x80>
   1cf4c:	00040593          	mv	a1,s0
   1cf50:	000a8513          	mv	a0,s5
   1cf54:	f55f50ef          	jal	ra,12ea8 <__swsetup_r>
   1cf58:	3c051663          	bnez	a0,1d324 <__sfvwrite_r+0x4c0>
   1cf5c:	01045783          	lhu	a5,16(s0)
   1cf60:	000a3903          	ld	s2,0(s4)
   1cf64:	0027f713          	andi	a4,a5,2
   1cf68:	f60712e3          	bnez	a4,1cecc <__sfvwrite_r+0x68>
   1cf6c:	0017f713          	andi	a4,a5,1
   1cf70:	0a071263          	bnez	a4,1d014 <__sfvwrite_r+0x1b0>
   1cf74:	00c42483          	lw	s1,12(s0)
   1cf78:	00043503          	ld	a0,0(s0)
   1cf7c:	80000b37          	lui	s6,0x80000
   1cf80:	ffeb4b93          	xori	s7,s6,-2
   1cf84:	00000c13          	li	s8,0
   1cf88:	00000993          	li	s3,0
   1cf8c:	fffb4b13          	not	s6,s6
   1cf90:	00048c93          	mv	s9,s1
   1cf94:	06098863          	beqz	s3,1d004 <__sfvwrite_r+0x1a0>
   1cf98:	2007f713          	andi	a4,a5,512
   1cf9c:	1c070863          	beqz	a4,1d16c <__sfvwrite_r+0x308>
   1cfa0:	00048d13          	mv	s10,s1
   1cfa4:	2699f663          	bgeu	s3,s1,1d210 <__sfvwrite_r+0x3ac>
   1cfa8:	00098c93          	mv	s9,s3
   1cfac:	00098d13          	mv	s10,s3
   1cfb0:	000d0613          	mv	a2,s10
   1cfb4:	000c0593          	mv	a1,s8
   1cfb8:	554000ef          	jal	ra,1d50c <memmove>
   1cfbc:	00c42783          	lw	a5,12(s0)
   1cfc0:	00043603          	ld	a2,0(s0)
   1cfc4:	00098493          	mv	s1,s3
   1cfc8:	41978cbb          	subw	s9,a5,s9
   1cfcc:	01a60633          	add	a2,a2,s10
   1cfd0:	01942623          	sw	s9,12(s0)
   1cfd4:	00c43023          	sd	a2,0(s0)
   1cfd8:	00000993          	li	s3,0
   1cfdc:	010a3783          	ld	a5,16(s4)
   1cfe0:	009c0c33          	add	s8,s8,s1
   1cfe4:	409784b3          	sub	s1,a5,s1
   1cfe8:	009a3823          	sd	s1,16(s4)
   1cfec:	0a048a63          	beqz	s1,1d0a0 <__sfvwrite_r+0x23c>
   1cff0:	00c42483          	lw	s1,12(s0)
   1cff4:	00043503          	ld	a0,0(s0)
   1cff8:	01045783          	lhu	a5,16(s0)
   1cffc:	00048c93          	mv	s9,s1
   1d000:	f8099ce3          	bnez	s3,1cf98 <__sfvwrite_r+0x134>
   1d004:	00093c03          	ld	s8,0(s2)
   1d008:	00893983          	ld	s3,8(s2)
   1d00c:	01090913          	addi	s2,s2,16
   1d010:	f81ff06f          	j	1cf90 <__sfvwrite_r+0x12c>
   1d014:	00000993          	li	s3,0
   1d018:	00000513          	li	a0,0
   1d01c:	00000c93          	li	s9,0
   1d020:	00000493          	li	s1,0
   1d024:	0e048263          	beqz	s1,1d108 <__sfvwrite_r+0x2a4>
   1d028:	0e050863          	beqz	a0,1d118 <__sfvwrite_r+0x2b4>
   1d02c:	00098c13          	mv	s8,s3
   1d030:	0134f463          	bgeu	s1,s3,1d038 <__sfvwrite_r+0x1d4>
   1d034:	00048c13          	mv	s8,s1
   1d038:	00043503          	ld	a0,0(s0)
   1d03c:	01843783          	ld	a5,24(s0)
   1d040:	000c0b13          	mv	s6,s8
   1d044:	02042683          	lw	a3,32(s0)
   1d048:	00a7f863          	bgeu	a5,a0,1d058 <__sfvwrite_r+0x1f4>
   1d04c:	00c42603          	lw	a2,12(s0)
   1d050:	00d60bbb          	addw	s7,a2,a3
   1d054:	0f8bc263          	blt	s7,s8,1d138 <__sfvwrite_r+0x2d4>
   1d058:	24dc4a63          	blt	s8,a3,1d2ac <__sfvwrite_r+0x448>
   1d05c:	04043783          	ld	a5,64(s0)
   1d060:	03043583          	ld	a1,48(s0)
   1d064:	000c8613          	mv	a2,s9
   1d068:	000a8513          	mv	a0,s5
   1d06c:	000780e7          	jalr	a5
   1d070:	00050b13          	mv	s6,a0
   1d074:	06a05c63          	blez	a0,1d0ec <__sfvwrite_r+0x288>
   1d078:	0005061b          	sext.w	a2,a0
   1d07c:	40c989bb          	subw	s3,s3,a2
   1d080:	00100513          	li	a0,1
   1d084:	04098c63          	beqz	s3,1d0dc <__sfvwrite_r+0x278>
   1d088:	010a3783          	ld	a5,16(s4)
   1d08c:	016c8cb3          	add	s9,s9,s6
   1d090:	416484b3          	sub	s1,s1,s6
   1d094:	41678b33          	sub	s6,a5,s6
   1d098:	016a3823          	sd	s6,16(s4)
   1d09c:	f80b14e3          	bnez	s6,1d024 <__sfvwrite_r+0x1c0>
   1d0a0:	00000513          	li	a0,0
   1d0a4:	05813083          	ld	ra,88(sp)
   1d0a8:	05013403          	ld	s0,80(sp)
   1d0ac:	04813483          	ld	s1,72(sp)
   1d0b0:	04013903          	ld	s2,64(sp)
   1d0b4:	03813983          	ld	s3,56(sp)
   1d0b8:	03013a03          	ld	s4,48(sp)
   1d0bc:	02813a83          	ld	s5,40(sp)
   1d0c0:	02013b03          	ld	s6,32(sp)
   1d0c4:	01813b83          	ld	s7,24(sp)
   1d0c8:	01013c03          	ld	s8,16(sp)
   1d0cc:	00813c83          	ld	s9,8(sp)
   1d0d0:	00013d03          	ld	s10,0(sp)
   1d0d4:	06010113          	addi	sp,sp,96
   1d0d8:	00008067          	ret
   1d0dc:	00040593          	mv	a1,s0
   1d0e0:	000a8513          	mv	a0,s5
   1d0e4:	b58f60ef          	jal	ra,1343c <_fflush_r>
   1d0e8:	fa0500e3          	beqz	a0,1d088 <__sfvwrite_r+0x224>
   1d0ec:	01041783          	lh	a5,16(s0)
   1d0f0:	0407e793          	ori	a5,a5,64
   1d0f4:	00f41823          	sh	a5,16(s0)
   1d0f8:	fff00513          	li	a0,-1
   1d0fc:	fa9ff06f          	j	1d0a4 <__sfvwrite_r+0x240>
   1d100:	00000513          	li	a0,0
   1d104:	00008067          	ret
   1d108:	00893483          	ld	s1,8(s2)
   1d10c:	00093c83          	ld	s9,0(s2)
   1d110:	01090913          	addi	s2,s2,16
   1d114:	fe048ae3          	beqz	s1,1d108 <__sfvwrite_r+0x2a4>
   1d118:	00048613          	mv	a2,s1
   1d11c:	00a00593          	li	a1,10
   1d120:	000c8513          	mv	a0,s9
   1d124:	c5cfa0ef          	jal	ra,17580 <memchr>
   1d128:	1e050263          	beqz	a0,1d30c <__sfvwrite_r+0x4a8>
   1d12c:	00150513          	addi	a0,a0,1
   1d130:	419509bb          	subw	s3,a0,s9
   1d134:	ef9ff06f          	j	1d02c <__sfvwrite_r+0x1c8>
   1d138:	000c8593          	mv	a1,s9
   1d13c:	000b8613          	mv	a2,s7
   1d140:	3cc000ef          	jal	ra,1d50c <memmove>
   1d144:	00043783          	ld	a5,0(s0)
   1d148:	00040593          	mv	a1,s0
   1d14c:	000a8513          	mv	a0,s5
   1d150:	017787b3          	add	a5,a5,s7
   1d154:	00f43023          	sd	a5,0(s0)
   1d158:	ae4f60ef          	jal	ra,1343c <_fflush_r>
   1d15c:	f80518e3          	bnez	a0,1d0ec <__sfvwrite_r+0x288>
   1d160:	000b8613          	mv	a2,s7
   1d164:	000b8b13          	mv	s6,s7
   1d168:	f15ff06f          	j	1d07c <__sfvwrite_r+0x218>
   1d16c:	01843783          	ld	a5,24(s0)
   1d170:	04a7ec63          	bltu	a5,a0,1d1c8 <__sfvwrite_r+0x364>
   1d174:	02042c83          	lw	s9,32(s0)
   1d178:	0599e863          	bltu	s3,s9,1d1c8 <__sfvwrite_r+0x364>
   1d17c:	00098513          	mv	a0,s3
   1d180:	013bf463          	bgeu	s7,s3,1d188 <__sfvwrite_r+0x324>
   1d184:	000b0513          	mv	a0,s6
   1d188:	000c8593          	mv	a1,s9
   1d18c:	0005051b          	sext.w	a0,a0
   1d190:	1e1040ef          	jal	ra,21b70 <__divdi3>
   1d194:	00050593          	mv	a1,a0
   1d198:	000c8513          	mv	a0,s9
   1d19c:	171040ef          	jal	ra,21b0c <__muldi3>
   1d1a0:	03043583          	ld	a1,48(s0)
   1d1a4:	04043783          	ld	a5,64(s0)
   1d1a8:	0005069b          	sext.w	a3,a0
   1d1ac:	000c0613          	mv	a2,s8
   1d1b0:	000a8513          	mv	a0,s5
   1d1b4:	000780e7          	jalr	a5
   1d1b8:	f2a05ae3          	blez	a0,1d0ec <__sfvwrite_r+0x288>
   1d1bc:	00050493          	mv	s1,a0
   1d1c0:	409989b3          	sub	s3,s3,s1
   1d1c4:	e19ff06f          	j	1cfdc <__sfvwrite_r+0x178>
   1d1c8:	0099f463          	bgeu	s3,s1,1d1d0 <__sfvwrite_r+0x36c>
   1d1cc:	00098493          	mv	s1,s3
   1d1d0:	00048613          	mv	a2,s1
   1d1d4:	000c0593          	mv	a1,s8
   1d1d8:	334000ef          	jal	ra,1d50c <memmove>
   1d1dc:	00c42783          	lw	a5,12(s0)
   1d1e0:	00043703          	ld	a4,0(s0)
   1d1e4:	409786bb          	subw	a3,a5,s1
   1d1e8:	00970733          	add	a4,a4,s1
   1d1ec:	00d42623          	sw	a3,12(s0)
   1d1f0:	00e43023          	sd	a4,0(s0)
   1d1f4:	fc0696e3          	bnez	a3,1d1c0 <__sfvwrite_r+0x35c>
   1d1f8:	00040593          	mv	a1,s0
   1d1fc:	000a8513          	mv	a0,s5
   1d200:	a3cf60ef          	jal	ra,1343c <_fflush_r>
   1d204:	ee0514e3          	bnez	a0,1d0ec <__sfvwrite_r+0x288>
   1d208:	409989b3          	sub	s3,s3,s1
   1d20c:	dd1ff06f          	j	1cfdc <__sfvwrite_r+0x178>
   1d210:	4807f713          	andi	a4,a5,1152
   1d214:	d8070ee3          	beqz	a4,1cfb0 <__sfvwrite_r+0x14c>
   1d218:	02042683          	lw	a3,32(s0)
   1d21c:	01843583          	ld	a1,24(s0)
   1d220:	00198713          	addi	a4,s3,1
   1d224:	0016949b          	slliw	s1,a3,0x1
   1d228:	00d486bb          	addw	a3,s1,a3
   1d22c:	40b50533          	sub	a0,a0,a1
   1d230:	01f6d49b          	srliw	s1,a3,0x1f
   1d234:	00050c9b          	sext.w	s9,a0
   1d238:	00d484bb          	addw	s1,s1,a3
   1d23c:	4014d49b          	sraiw	s1,s1,0x1
   1d240:	01970733          	add	a4,a4,s9
   1d244:	00e4f663          	bgeu	s1,a4,1d250 <__sfvwrite_r+0x3ec>
   1d248:	0019849b          	addiw	s1,s3,1
   1d24c:	00a484bb          	addw	s1,s1,a0
   1d250:	4007f793          	andi	a5,a5,1024
   1d254:	08078263          	beqz	a5,1d2d8 <__sfvwrite_r+0x474>
   1d258:	00048593          	mv	a1,s1
   1d25c:	000a8513          	mv	a0,s5
   1d260:	a55f90ef          	jal	ra,16cb4 <_malloc_r>
   1d264:	00050d13          	mv	s10,a0
   1d268:	0a050663          	beqz	a0,1d314 <__sfvwrite_r+0x4b0>
   1d26c:	01843583          	ld	a1,24(s0)
   1d270:	000c8613          	mv	a2,s9
   1d274:	17c000ef          	jal	ra,1d3f0 <memcpy>
   1d278:	01045783          	lhu	a5,16(s0)
   1d27c:	b7f7f793          	andi	a5,a5,-1153
   1d280:	0807e793          	ori	a5,a5,128
   1d284:	00f41823          	sh	a5,16(s0)
   1d288:	019d0533          	add	a0,s10,s9
   1d28c:	419487bb          	subw	a5,s1,s9
   1d290:	01a43c23          	sd	s10,24(s0)
   1d294:	00a43023          	sd	a0,0(s0)
   1d298:	02942023          	sw	s1,32(s0)
   1d29c:	00098c93          	mv	s9,s3
   1d2a0:	00f42623          	sw	a5,12(s0)
   1d2a4:	00098d13          	mv	s10,s3
   1d2a8:	d09ff06f          	j	1cfb0 <__sfvwrite_r+0x14c>
   1d2ac:	000c0613          	mv	a2,s8
   1d2b0:	000c8593          	mv	a1,s9
   1d2b4:	258000ef          	jal	ra,1d50c <memmove>
   1d2b8:	00c42703          	lw	a4,12(s0)
   1d2bc:	00043783          	ld	a5,0(s0)
   1d2c0:	000c061b          	sext.w	a2,s8
   1d2c4:	40c7073b          	subw	a4,a4,a2
   1d2c8:	01878c33          	add	s8,a5,s8
   1d2cc:	00e42623          	sw	a4,12(s0)
   1d2d0:	01843023          	sd	s8,0(s0)
   1d2d4:	da9ff06f          	j	1d07c <__sfvwrite_r+0x218>
   1d2d8:	00048613          	mv	a2,s1
   1d2dc:	000a8513          	mv	a0,s5
   1d2e0:	3b4000ef          	jal	ra,1d694 <_realloc_r>
   1d2e4:	00050d13          	mv	s10,a0
   1d2e8:	fa0510e3          	bnez	a0,1d288 <__sfvwrite_r+0x424>
   1d2ec:	01843583          	ld	a1,24(s0)
   1d2f0:	000a8513          	mv	a0,s5
   1d2f4:	e70f60ef          	jal	ra,13964 <_free_r>
   1d2f8:	01041783          	lh	a5,16(s0)
   1d2fc:	00c00713          	li	a4,12
   1d300:	00eaa023          	sw	a4,0(s5)
   1d304:	f7f7f793          	andi	a5,a5,-129
   1d308:	de9ff06f          	j	1d0f0 <__sfvwrite_r+0x28c>
   1d30c:	0014899b          	addiw	s3,s1,1
   1d310:	d1dff06f          	j	1d02c <__sfvwrite_r+0x1c8>
   1d314:	00c00793          	li	a5,12
   1d318:	00faa023          	sw	a5,0(s5)
   1d31c:	01041783          	lh	a5,16(s0)
   1d320:	dd1ff06f          	j	1d0f0 <__sfvwrite_r+0x28c>
   1d324:	fff00513          	li	a0,-1
   1d328:	d7dff06f          	j	1d0a4 <__sfvwrite_r+0x240>

000000000001d32c <_isatty_r>:
   1d32c:	ff010113          	addi	sp,sp,-16
   1d330:	00813023          	sd	s0,0(sp)
   1d334:	00050413          	mv	s0,a0
   1d338:	00058513          	mv	a0,a1
   1d33c:	00008797          	auipc	a5,0x8
   1d340:	8c07ae23          	sw	zero,-1828(a5) # 24c18 <errno>
   1d344:	00113423          	sd	ra,8(sp)
   1d348:	745010ef          	jal	ra,1f28c <_isatty>
   1d34c:	fff00793          	li	a5,-1
   1d350:	00f50a63          	beq	a0,a5,1d364 <_isatty_r+0x38>
   1d354:	00813083          	ld	ra,8(sp)
   1d358:	00013403          	ld	s0,0(sp)
   1d35c:	01010113          	addi	sp,sp,16
   1d360:	00008067          	ret
   1d364:	00008797          	auipc	a5,0x8
   1d368:	8b478793          	addi	a5,a5,-1868 # 24c18 <errno>
   1d36c:	0007a783          	lw	a5,0(a5)
   1d370:	fe0782e3          	beqz	a5,1d354 <_isatty_r+0x28>
   1d374:	00f42023          	sw	a5,0(s0)
   1d378:	00813083          	ld	ra,8(sp)
   1d37c:	00013403          	ld	s0,0(sp)
   1d380:	01010113          	addi	sp,sp,16
   1d384:	00008067          	ret

000000000001d388 <_lseek_r>:
   1d388:	00058793          	mv	a5,a1
   1d38c:	ff010113          	addi	sp,sp,-16
   1d390:	00813023          	sd	s0,0(sp)
   1d394:	00060593          	mv	a1,a2
   1d398:	00050413          	mv	s0,a0
   1d39c:	00068613          	mv	a2,a3
   1d3a0:	00078513          	mv	a0,a5
   1d3a4:	00113423          	sd	ra,8(sp)
   1d3a8:	00008797          	auipc	a5,0x8
   1d3ac:	8607a823          	sw	zero,-1936(a5) # 24c18 <errno>
   1d3b0:	71d010ef          	jal	ra,1f2cc <_lseek>
   1d3b4:	fff00793          	li	a5,-1
   1d3b8:	00f50a63          	beq	a0,a5,1d3cc <_lseek_r+0x44>
   1d3bc:	00813083          	ld	ra,8(sp)
   1d3c0:	00013403          	ld	s0,0(sp)
   1d3c4:	01010113          	addi	sp,sp,16
   1d3c8:	00008067          	ret
   1d3cc:	00008797          	auipc	a5,0x8
   1d3d0:	84c78793          	addi	a5,a5,-1972 # 24c18 <errno>
   1d3d4:	0007a783          	lw	a5,0(a5)
   1d3d8:	fe0782e3          	beqz	a5,1d3bc <_lseek_r+0x34>
   1d3dc:	00f42023          	sw	a5,0(s0)
   1d3e0:	00813083          	ld	ra,8(sp)
   1d3e4:	00013403          	ld	s0,0(sp)
   1d3e8:	01010113          	addi	sp,sp,16
   1d3ec:	00008067          	ret

000000000001d3f0 <memcpy>:
   1d3f0:	00a5c7b3          	xor	a5,a1,a0
   1d3f4:	0077f793          	andi	a5,a5,7
   1d3f8:	00c508b3          	add	a7,a0,a2
   1d3fc:	06079263          	bnez	a5,1d460 <memcpy+0x70>
   1d400:	00700793          	li	a5,7
   1d404:	04c7fe63          	bgeu	a5,a2,1d460 <memcpy+0x70>
   1d408:	00757793          	andi	a5,a0,7
   1d40c:	00050713          	mv	a4,a0
   1d410:	06079863          	bnez	a5,1d480 <memcpy+0x90>
   1d414:	ff88f613          	andi	a2,a7,-8
   1d418:	fc060793          	addi	a5,a2,-64
   1d41c:	08f76c63          	bltu	a4,a5,1d4b4 <memcpy+0xc4>
   1d420:	02c77c63          	bgeu	a4,a2,1d458 <memcpy+0x68>
   1d424:	00058693          	mv	a3,a1
   1d428:	00070793          	mv	a5,a4
   1d42c:	0006b803          	ld	a6,0(a3) # 2000 <main-0xe0b0>
   1d430:	00878793          	addi	a5,a5,8
   1d434:	00868693          	addi	a3,a3,8
   1d438:	ff07bc23          	sd	a6,-8(a5)
   1d43c:	fec7e8e3          	bltu	a5,a2,1d42c <memcpy+0x3c>
   1d440:	fff60793          	addi	a5,a2,-1
   1d444:	40e787b3          	sub	a5,a5,a4
   1d448:	ff87f793          	andi	a5,a5,-8
   1d44c:	00878793          	addi	a5,a5,8
   1d450:	00f70733          	add	a4,a4,a5
   1d454:	00f585b3          	add	a1,a1,a5
   1d458:	01176863          	bltu	a4,a7,1d468 <memcpy+0x78>
   1d45c:	00008067          	ret
   1d460:	00050713          	mv	a4,a0
   1d464:	ff157ce3          	bgeu	a0,a7,1d45c <memcpy+0x6c>
   1d468:	0005c783          	lbu	a5,0(a1)
   1d46c:	00170713          	addi	a4,a4,1
   1d470:	00158593          	addi	a1,a1,1
   1d474:	fef70fa3          	sb	a5,-1(a4)
   1d478:	ff1768e3          	bltu	a4,a7,1d468 <memcpy+0x78>
   1d47c:	00008067          	ret
   1d480:	0005c683          	lbu	a3,0(a1)
   1d484:	00170713          	addi	a4,a4,1
   1d488:	00777793          	andi	a5,a4,7
   1d48c:	fed70fa3          	sb	a3,-1(a4)
   1d490:	00158593          	addi	a1,a1,1
   1d494:	f80780e3          	beqz	a5,1d414 <memcpy+0x24>
   1d498:	0005c683          	lbu	a3,0(a1)
   1d49c:	00170713          	addi	a4,a4,1
   1d4a0:	00777793          	andi	a5,a4,7
   1d4a4:	fed70fa3          	sb	a3,-1(a4)
   1d4a8:	00158593          	addi	a1,a1,1
   1d4ac:	fc079ae3          	bnez	a5,1d480 <memcpy+0x90>
   1d4b0:	f65ff06f          	j	1d414 <memcpy+0x24>
   1d4b4:	0005b683          	ld	a3,0(a1)
   1d4b8:	0085b283          	ld	t0,8(a1)
   1d4bc:	0105bf83          	ld	t6,16(a1)
   1d4c0:	0185bf03          	ld	t5,24(a1)
   1d4c4:	0205be83          	ld	t4,32(a1)
   1d4c8:	0285be03          	ld	t3,40(a1)
   1d4cc:	0305b303          	ld	t1,48(a1)
   1d4d0:	0385b803          	ld	a6,56(a1)
   1d4d4:	04858593          	addi	a1,a1,72
   1d4d8:	00d73023          	sd	a3,0(a4)
   1d4dc:	ff85b683          	ld	a3,-8(a1)
   1d4e0:	00573423          	sd	t0,8(a4)
   1d4e4:	01f73823          	sd	t6,16(a4)
   1d4e8:	01e73c23          	sd	t5,24(a4)
   1d4ec:	03d73023          	sd	t4,32(a4)
   1d4f0:	03c73423          	sd	t3,40(a4)
   1d4f4:	02673823          	sd	t1,48(a4)
   1d4f8:	03073c23          	sd	a6,56(a4)
   1d4fc:	04870713          	addi	a4,a4,72
   1d500:	fed73c23          	sd	a3,-8(a4)
   1d504:	faf768e3          	bltu	a4,a5,1d4b4 <memcpy+0xc4>
   1d508:	f19ff06f          	j	1d420 <memcpy+0x30>

000000000001d50c <memmove>:
   1d50c:	02a5f663          	bgeu	a1,a0,1d538 <memmove+0x2c>
   1d510:	00c587b3          	add	a5,a1,a2
   1d514:	02f57263          	bgeu	a0,a5,1d538 <memmove+0x2c>
   1d518:	00c50733          	add	a4,a0,a2
   1d51c:	0e060a63          	beqz	a2,1d610 <memmove+0x104>
   1d520:	fff78793          	addi	a5,a5,-1
   1d524:	0007c683          	lbu	a3,0(a5)
   1d528:	fff70713          	addi	a4,a4,-1
   1d52c:	00d70023          	sb	a3,0(a4)
   1d530:	fef598e3          	bne	a1,a5,1d520 <memmove+0x14>
   1d534:	00008067          	ret
   1d538:	01f00793          	li	a5,31
   1d53c:	02c7e863          	bltu	a5,a2,1d56c <memmove+0x60>
   1d540:	00050793          	mv	a5,a0
   1d544:	fff60693          	addi	a3,a2,-1
   1d548:	0c060c63          	beqz	a2,1d620 <memmove+0x114>
   1d54c:	00168693          	addi	a3,a3,1
   1d550:	00d786b3          	add	a3,a5,a3
   1d554:	00158593          	addi	a1,a1,1
   1d558:	fff5c703          	lbu	a4,-1(a1)
   1d55c:	00178793          	addi	a5,a5,1
   1d560:	fee78fa3          	sb	a4,-1(a5)
   1d564:	fed798e3          	bne	a5,a3,1d554 <memmove+0x48>
   1d568:	00008067          	ret
   1d56c:	00a5e7b3          	or	a5,a1,a0
   1d570:	0077f793          	andi	a5,a5,7
   1d574:	0a079063          	bnez	a5,1d614 <memmove+0x108>
   1d578:	fe060893          	addi	a7,a2,-32
   1d57c:	fe08f893          	andi	a7,a7,-32
   1d580:	02088893          	addi	a7,a7,32
   1d584:	01150833          	add	a6,a0,a7
   1d588:	00058713          	mv	a4,a1
   1d58c:	00050793          	mv	a5,a0
   1d590:	00073683          	ld	a3,0(a4)
   1d594:	02078793          	addi	a5,a5,32
   1d598:	02070713          	addi	a4,a4,32
   1d59c:	fed7b023          	sd	a3,-32(a5)
   1d5a0:	fe873683          	ld	a3,-24(a4)
   1d5a4:	fed7b423          	sd	a3,-24(a5)
   1d5a8:	ff073683          	ld	a3,-16(a4)
   1d5ac:	fed7b823          	sd	a3,-16(a5)
   1d5b0:	ff873683          	ld	a3,-8(a4)
   1d5b4:	fed7bc23          	sd	a3,-8(a5)
   1d5b8:	fcf81ce3          	bne	a6,a5,1d590 <memmove+0x84>
   1d5bc:	01867713          	andi	a4,a2,24
   1d5c0:	011585b3          	add	a1,a1,a7
   1d5c4:	01f67813          	andi	a6,a2,31
   1d5c8:	04070e63          	beqz	a4,1d624 <memmove+0x118>
   1d5cc:	00058713          	mv	a4,a1
   1d5d0:	00078893          	mv	a7,a5
   1d5d4:	00700e13          	li	t3,7
   1d5d8:	00870713          	addi	a4,a4,8
   1d5dc:	ff873303          	ld	t1,-8(a4)
   1d5e0:	00888893          	addi	a7,a7,8
   1d5e4:	40e806b3          	sub	a3,a6,a4
   1d5e8:	fe68bc23          	sd	t1,-8(a7)
   1d5ec:	00d586b3          	add	a3,a1,a3
   1d5f0:	fede64e3          	bltu	t3,a3,1d5d8 <memmove+0xcc>
   1d5f4:	ff880713          	addi	a4,a6,-8
   1d5f8:	ff877713          	andi	a4,a4,-8
   1d5fc:	00870713          	addi	a4,a4,8
   1d600:	00767613          	andi	a2,a2,7
   1d604:	00e787b3          	add	a5,a5,a4
   1d608:	00e585b3          	add	a1,a1,a4
   1d60c:	f39ff06f          	j	1d544 <memmove+0x38>
   1d610:	00008067          	ret
   1d614:	fff60693          	addi	a3,a2,-1
   1d618:	00050793          	mv	a5,a0
   1d61c:	f31ff06f          	j	1d54c <memmove+0x40>
   1d620:	00008067          	ret
   1d624:	00080613          	mv	a2,a6
   1d628:	f1dff06f          	j	1d544 <memmove+0x38>

000000000001d62c <_read_r>:
   1d62c:	00058793          	mv	a5,a1
   1d630:	ff010113          	addi	sp,sp,-16
   1d634:	00813023          	sd	s0,0(sp)
   1d638:	00060593          	mv	a1,a2
   1d63c:	00050413          	mv	s0,a0
   1d640:	00068613          	mv	a2,a3
   1d644:	00078513          	mv	a0,a5
   1d648:	00113423          	sd	ra,8(sp)
   1d64c:	00007797          	auipc	a5,0x7
   1d650:	5c07a623          	sw	zero,1484(a5) # 24c18 <errno>
   1d654:	4c9010ef          	jal	ra,1f31c <_read>
   1d658:	fff00793          	li	a5,-1
   1d65c:	00f50a63          	beq	a0,a5,1d670 <_read_r+0x44>
   1d660:	00813083          	ld	ra,8(sp)
   1d664:	00013403          	ld	s0,0(sp)
   1d668:	01010113          	addi	sp,sp,16
   1d66c:	00008067          	ret
   1d670:	00007797          	auipc	a5,0x7
   1d674:	5a878793          	addi	a5,a5,1448 # 24c18 <errno>
   1d678:	0007a783          	lw	a5,0(a5)
   1d67c:	fe0782e3          	beqz	a5,1d660 <_read_r+0x34>
   1d680:	00f42023          	sw	a5,0(s0)
   1d684:	00813083          	ld	ra,8(sp)
   1d688:	00013403          	ld	s0,0(sp)
   1d68c:	01010113          	addi	sp,sp,16
   1d690:	00008067          	ret

000000000001d694 <_realloc_r>:
   1d694:	fb010113          	addi	sp,sp,-80
   1d698:	03213823          	sd	s2,48(sp)
   1d69c:	04113423          	sd	ra,72(sp)
   1d6a0:	04813023          	sd	s0,64(sp)
   1d6a4:	02913c23          	sd	s1,56(sp)
   1d6a8:	03313423          	sd	s3,40(sp)
   1d6ac:	03413023          	sd	s4,32(sp)
   1d6b0:	01513c23          	sd	s5,24(sp)
   1d6b4:	01613823          	sd	s6,16(sp)
   1d6b8:	01713423          	sd	s7,8(sp)
   1d6bc:	01813023          	sd	s8,0(sp)
   1d6c0:	00060913          	mv	s2,a2
   1d6c4:	22058463          	beqz	a1,1d8ec <_realloc_r+0x258>
   1d6c8:	00058a93          	mv	s5,a1
   1d6cc:	00050a13          	mv	s4,a0
   1d6d0:	fa1f90ef          	jal	ra,17670 <__malloc_lock>
   1d6d4:	ff8ab783          	ld	a5,-8(s5)
   1d6d8:	01790413          	addi	s0,s2,23
   1d6dc:	02e00713          	li	a4,46
   1d6e0:	ff0a8b13          	addi	s6,s5,-16
   1d6e4:	ffc7f493          	andi	s1,a5,-4
   1d6e8:	0e877a63          	bgeu	a4,s0,1d7dc <_realloc_r+0x148>
   1d6ec:	80000737          	lui	a4,0x80000
   1d6f0:	ff047413          	andi	s0,s0,-16
   1d6f4:	fff74713          	not	a4,a4
   1d6f8:	0e876663          	bltu	a4,s0,1d7e4 <_realloc_r+0x150>
   1d6fc:	0f246463          	bltu	s0,s2,1d7e4 <_realloc_r+0x150>
   1d700:	009b09b3          	add	s3,s6,s1
   1d704:	1884da63          	bge	s1,s0,1d898 <_realloc_r+0x204>
   1d708:	00007717          	auipc	a4,0x7
   1d70c:	c2070713          	addi	a4,a4,-992 # 24328 <__malloc_av_>
   1d710:	01073683          	ld	a3,16(a4)
   1d714:	0089b703          	ld	a4,8(s3)
   1d718:	23368c63          	beq	a3,s3,1d950 <_realloc_r+0x2bc>
   1d71c:	ffe77693          	andi	a3,a4,-2
   1d720:	00d986b3          	add	a3,s3,a3
   1d724:	0086b683          	ld	a3,8(a3)
   1d728:	0016f693          	andi	a3,a3,1
   1d72c:	1a069263          	bnez	a3,1d8d0 <_realloc_r+0x23c>
   1d730:	ffc77713          	andi	a4,a4,-4
   1d734:	00e486b3          	add	a3,s1,a4
   1d738:	3486d063          	bge	a3,s0,1da78 <_realloc_r+0x3e4>
   1d73c:	0017f793          	andi	a5,a5,1
   1d740:	02079463          	bnez	a5,1d768 <_realloc_r+0xd4>
   1d744:	ff0abc03          	ld	s8,-16(s5)
   1d748:	418b0c33          	sub	s8,s6,s8
   1d74c:	008c3783          	ld	a5,8(s8)
   1d750:	ffc7f793          	andi	a5,a5,-4
   1d754:	00e78733          	add	a4,a5,a4
   1d758:	00970bb3          	add	s7,a4,s1
   1d75c:	348bdc63          	bge	s7,s0,1dab4 <_realloc_r+0x420>
   1d760:	00f48bb3          	add	s7,s1,a5
   1d764:	0c8bd063          	bge	s7,s0,1d824 <_realloc_r+0x190>
   1d768:	00090593          	mv	a1,s2
   1d76c:	000a0513          	mv	a0,s4
   1d770:	d44f90ef          	jal	ra,16cb4 <_malloc_r>
   1d774:	00050913          	mv	s2,a0
   1d778:	04050c63          	beqz	a0,1d7d0 <_realloc_r+0x13c>
   1d77c:	ff8ab783          	ld	a5,-8(s5)
   1d780:	ff050713          	addi	a4,a0,-16
   1d784:	ffe7f793          	andi	a5,a5,-2
   1d788:	00fb07b3          	add	a5,s6,a5
   1d78c:	30e78463          	beq	a5,a4,1da94 <_realloc_r+0x400>
   1d790:	ff848613          	addi	a2,s1,-8
   1d794:	04800793          	li	a5,72
   1d798:	30c7e863          	bltu	a5,a2,1daa8 <_realloc_r+0x414>
   1d79c:	02700713          	li	a4,39
   1d7a0:	000ab683          	ld	a3,0(s5)
   1d7a4:	26c76c63          	bltu	a4,a2,1da1c <_realloc_r+0x388>
   1d7a8:	00050793          	mv	a5,a0
   1d7ac:	000a8713          	mv	a4,s5
   1d7b0:	00d7b023          	sd	a3,0(a5)
   1d7b4:	00873683          	ld	a3,8(a4)
   1d7b8:	00d7b423          	sd	a3,8(a5)
   1d7bc:	01073703          	ld	a4,16(a4)
   1d7c0:	00e7b823          	sd	a4,16(a5)
   1d7c4:	000a8593          	mv	a1,s5
   1d7c8:	000a0513          	mv	a0,s4
   1d7cc:	998f60ef          	jal	ra,13964 <_free_r>
   1d7d0:	000a0513          	mv	a0,s4
   1d7d4:	ea1f90ef          	jal	ra,17674 <__malloc_unlock>
   1d7d8:	0180006f          	j	1d7f0 <_realloc_r+0x15c>
   1d7dc:	02000413          	li	s0,32
   1d7e0:	f32470e3          	bgeu	s0,s2,1d700 <_realloc_r+0x6c>
   1d7e4:	00c00793          	li	a5,12
   1d7e8:	00fa2023          	sw	a5,0(s4)
   1d7ec:	00000913          	li	s2,0
   1d7f0:	04813083          	ld	ra,72(sp)
   1d7f4:	04013403          	ld	s0,64(sp)
   1d7f8:	00090513          	mv	a0,s2
   1d7fc:	03813483          	ld	s1,56(sp)
   1d800:	03013903          	ld	s2,48(sp)
   1d804:	02813983          	ld	s3,40(sp)
   1d808:	02013a03          	ld	s4,32(sp)
   1d80c:	01813a83          	ld	s5,24(sp)
   1d810:	01013b03          	ld	s6,16(sp)
   1d814:	00813b83          	ld	s7,8(sp)
   1d818:	00013c03          	ld	s8,0(sp)
   1d81c:	05010113          	addi	sp,sp,80
   1d820:	00008067          	ret
   1d824:	018c3783          	ld	a5,24(s8)
   1d828:	010c3703          	ld	a4,16(s8)
   1d82c:	ff848613          	addi	a2,s1,-8
   1d830:	04800693          	li	a3,72
   1d834:	00f73c23          	sd	a5,24(a4)
   1d838:	00e7b823          	sd	a4,16(a5)
   1d83c:	010c0913          	addi	s2,s8,16
   1d840:	017c09b3          	add	s3,s8,s7
   1d844:	30c6e063          	bltu	a3,a2,1db44 <_realloc_r+0x4b0>
   1d848:	02700593          	li	a1,39
   1d84c:	000ab703          	ld	a4,0(s5)
   1d850:	00090793          	mv	a5,s2
   1d854:	02c5f263          	bgeu	a1,a2,1d878 <_realloc_r+0x1e4>
   1d858:	00ec3823          	sd	a4,16(s8)
   1d85c:	008ab703          	ld	a4,8(s5)
   1d860:	03700793          	li	a5,55
   1d864:	00ec3c23          	sd	a4,24(s8)
   1d868:	32c7ee63          	bltu	a5,a2,1dba4 <_realloc_r+0x510>
   1d86c:	010ab703          	ld	a4,16(s5)
   1d870:	020c0793          	addi	a5,s8,32
   1d874:	010a8a93          	addi	s5,s5,16
   1d878:	00e7b023          	sd	a4,0(a5)
   1d87c:	008ab703          	ld	a4,8(s5)
   1d880:	000b8493          	mv	s1,s7
   1d884:	000c0b13          	mv	s6,s8
   1d888:	00e7b423          	sd	a4,8(a5)
   1d88c:	010ab703          	ld	a4,16(s5)
   1d890:	00090a93          	mv	s5,s2
   1d894:	00e7b823          	sd	a4,16(a5)
   1d898:	008b3603          	ld	a2,8(s6) # ffffffff80000008 <__BSS_END__+0xffffffff7ffdb3e8>
   1d89c:	408487b3          	sub	a5,s1,s0
   1d8a0:	01f00713          	li	a4,31
   1d8a4:	00167613          	andi	a2,a2,1
   1d8a8:	06f76c63          	bltu	a4,a5,1d920 <_realloc_r+0x28c>
   1d8ac:	00c4e633          	or	a2,s1,a2
   1d8b0:	00cb3423          	sd	a2,8(s6)
   1d8b4:	0089b783          	ld	a5,8(s3)
   1d8b8:	0017e793          	ori	a5,a5,1
   1d8bc:	00f9b423          	sd	a5,8(s3)
   1d8c0:	000a0513          	mv	a0,s4
   1d8c4:	db1f90ef          	jal	ra,17674 <__malloc_unlock>
   1d8c8:	000a8913          	mv	s2,s5
   1d8cc:	f25ff06f          	j	1d7f0 <_realloc_r+0x15c>
   1d8d0:	0017f793          	andi	a5,a5,1
   1d8d4:	e8079ae3          	bnez	a5,1d768 <_realloc_r+0xd4>
   1d8d8:	ff0abc03          	ld	s8,-16(s5)
   1d8dc:	418b0c33          	sub	s8,s6,s8
   1d8e0:	008c3783          	ld	a5,8(s8)
   1d8e4:	ffc7f793          	andi	a5,a5,-4
   1d8e8:	e79ff06f          	j	1d760 <_realloc_r+0xcc>
   1d8ec:	04013403          	ld	s0,64(sp)
   1d8f0:	04813083          	ld	ra,72(sp)
   1d8f4:	03813483          	ld	s1,56(sp)
   1d8f8:	03013903          	ld	s2,48(sp)
   1d8fc:	02813983          	ld	s3,40(sp)
   1d900:	02013a03          	ld	s4,32(sp)
   1d904:	01813a83          	ld	s5,24(sp)
   1d908:	01013b03          	ld	s6,16(sp)
   1d90c:	00813b83          	ld	s7,8(sp)
   1d910:	00013c03          	ld	s8,0(sp)
   1d914:	00060593          	mv	a1,a2
   1d918:	05010113          	addi	sp,sp,80
   1d91c:	b98f906f          	j	16cb4 <_malloc_r>
   1d920:	00c46633          	or	a2,s0,a2
   1d924:	00cb3423          	sd	a2,8(s6)
   1d928:	008b05b3          	add	a1,s6,s0
   1d92c:	0017e793          	ori	a5,a5,1
   1d930:	00f5b423          	sd	a5,8(a1)
   1d934:	0089b783          	ld	a5,8(s3)
   1d938:	01058593          	addi	a1,a1,16
   1d93c:	000a0513          	mv	a0,s4
   1d940:	0017e793          	ori	a5,a5,1
   1d944:	00f9b423          	sd	a5,8(s3)
   1d948:	81cf60ef          	jal	ra,13964 <_free_r>
   1d94c:	f75ff06f          	j	1d8c0 <_realloc_r+0x22c>
   1d950:	ffc77713          	andi	a4,a4,-4
   1d954:	00e486b3          	add	a3,s1,a4
   1d958:	02040613          	addi	a2,s0,32
   1d95c:	0ec6d263          	bge	a3,a2,1da40 <_realloc_r+0x3ac>
   1d960:	0017f793          	andi	a5,a5,1
   1d964:	e00792e3          	bnez	a5,1d768 <_realloc_r+0xd4>
   1d968:	ff0abc03          	ld	s8,-16(s5)
   1d96c:	418b0c33          	sub	s8,s6,s8
   1d970:	008c3783          	ld	a5,8(s8)
   1d974:	ffc7f793          	andi	a5,a5,-4
   1d978:	00e78733          	add	a4,a5,a4
   1d97c:	009709b3          	add	s3,a4,s1
   1d980:	dec9c0e3          	blt	s3,a2,1d760 <_realloc_r+0xcc>
   1d984:	018c3783          	ld	a5,24(s8)
   1d988:	010c3703          	ld	a4,16(s8)
   1d98c:	ff848613          	addi	a2,s1,-8
   1d990:	04800693          	li	a3,72
   1d994:	00f73c23          	sd	a5,24(a4)
   1d998:	00e7b823          	sd	a4,16(a5)
   1d99c:	010c0913          	addi	s2,s8,16
   1d9a0:	22c6e463          	bltu	a3,a2,1dbc8 <_realloc_r+0x534>
   1d9a4:	02700593          	li	a1,39
   1d9a8:	000ab703          	ld	a4,0(s5)
   1d9ac:	00090793          	mv	a5,s2
   1d9b0:	02c5f263          	bgeu	a1,a2,1d9d4 <_realloc_r+0x340>
   1d9b4:	00ec3823          	sd	a4,16(s8)
   1d9b8:	008ab703          	ld	a4,8(s5)
   1d9bc:	03700793          	li	a5,55
   1d9c0:	00ec3c23          	sd	a4,24(s8)
   1d9c4:	20c7ea63          	bltu	a5,a2,1dbd8 <_realloc_r+0x544>
   1d9c8:	010ab703          	ld	a4,16(s5)
   1d9cc:	020c0793          	addi	a5,s8,32
   1d9d0:	010a8a93          	addi	s5,s5,16
   1d9d4:	00e7b023          	sd	a4,0(a5)
   1d9d8:	008ab703          	ld	a4,8(s5)
   1d9dc:	00e7b423          	sd	a4,8(a5)
   1d9e0:	010ab703          	ld	a4,16(s5)
   1d9e4:	00e7b823          	sd	a4,16(a5)
   1d9e8:	008c0733          	add	a4,s8,s0
   1d9ec:	408987b3          	sub	a5,s3,s0
   1d9f0:	00007697          	auipc	a3,0x7
   1d9f4:	94e6b423          	sd	a4,-1720(a3) # 24338 <__malloc_av_+0x10>
   1d9f8:	0017e793          	ori	a5,a5,1
   1d9fc:	00f73423          	sd	a5,8(a4)
   1da00:	008c3783          	ld	a5,8(s8)
   1da04:	000a0513          	mv	a0,s4
   1da08:	0017f793          	andi	a5,a5,1
   1da0c:	0087e433          	or	s0,a5,s0
   1da10:	008c3423          	sd	s0,8(s8)
   1da14:	c61f90ef          	jal	ra,17674 <__malloc_unlock>
   1da18:	dd9ff06f          	j	1d7f0 <_realloc_r+0x15c>
   1da1c:	00d53023          	sd	a3,0(a0)
   1da20:	008ab683          	ld	a3,8(s5)
   1da24:	03700713          	li	a4,55
   1da28:	00d53423          	sd	a3,8(a0)
   1da2c:	12c76a63          	bltu	a4,a2,1db60 <_realloc_r+0x4cc>
   1da30:	010a8713          	addi	a4,s5,16
   1da34:	01050793          	addi	a5,a0,16
   1da38:	010ab683          	ld	a3,16(s5)
   1da3c:	d75ff06f          	j	1d7b0 <_realloc_r+0x11c>
   1da40:	008b0b33          	add	s6,s6,s0
   1da44:	408687b3          	sub	a5,a3,s0
   1da48:	00007717          	auipc	a4,0x7
   1da4c:	8f673823          	sd	s6,-1808(a4) # 24338 <__malloc_av_+0x10>
   1da50:	0017e793          	ori	a5,a5,1
   1da54:	00fb3423          	sd	a5,8(s6)
   1da58:	ff8ab783          	ld	a5,-8(s5)
   1da5c:	000a0513          	mv	a0,s4
   1da60:	000a8913          	mv	s2,s5
   1da64:	0017f793          	andi	a5,a5,1
   1da68:	0087e433          	or	s0,a5,s0
   1da6c:	fe8abc23          	sd	s0,-8(s5)
   1da70:	c05f90ef          	jal	ra,17674 <__malloc_unlock>
   1da74:	d7dff06f          	j	1d7f0 <_realloc_r+0x15c>
   1da78:	0189b783          	ld	a5,24(s3)
   1da7c:	0109b703          	ld	a4,16(s3)
   1da80:	00068493          	mv	s1,a3
   1da84:	00db09b3          	add	s3,s6,a3
   1da88:	00f73c23          	sd	a5,24(a4)
   1da8c:	00e7b823          	sd	a4,16(a5)
   1da90:	e09ff06f          	j	1d898 <_realloc_r+0x204>
   1da94:	ff853783          	ld	a5,-8(a0)
   1da98:	ffc7f793          	andi	a5,a5,-4
   1da9c:	00f484b3          	add	s1,s1,a5
   1daa0:	009b09b3          	add	s3,s6,s1
   1daa4:	df5ff06f          	j	1d898 <_realloc_r+0x204>
   1daa8:	000a8593          	mv	a1,s5
   1daac:	a61ff0ef          	jal	ra,1d50c <memmove>
   1dab0:	d15ff06f          	j	1d7c4 <_realloc_r+0x130>
   1dab4:	0189b783          	ld	a5,24(s3)
   1dab8:	0109b703          	ld	a4,16(s3)
   1dabc:	ff848613          	addi	a2,s1,-8
   1dac0:	04800693          	li	a3,72
   1dac4:	00f73c23          	sd	a5,24(a4)
   1dac8:	00e7b823          	sd	a4,16(a5)
   1dacc:	010c3703          	ld	a4,16(s8)
   1dad0:	018c3783          	ld	a5,24(s8)
   1dad4:	010c0913          	addi	s2,s8,16
   1dad8:	017c09b3          	add	s3,s8,s7
   1dadc:	00f73c23          	sd	a5,24(a4)
   1dae0:	00e7b823          	sd	a4,16(a5)
   1dae4:	06c6e063          	bltu	a3,a2,1db44 <_realloc_r+0x4b0>
   1dae8:	02700693          	li	a3,39
   1daec:	000ab703          	ld	a4,0(s5)
   1daf0:	00090793          	mv	a5,s2
   1daf4:	d8c6f2e3          	bgeu	a3,a2,1d878 <_realloc_r+0x1e4>
   1daf8:	00ec3823          	sd	a4,16(s8)
   1dafc:	008ab703          	ld	a4,8(s5)
   1db00:	03700793          	li	a5,55
   1db04:	00ec3c23          	sd	a4,24(s8)
   1db08:	010ab703          	ld	a4,16(s5)
   1db0c:	d6c7f2e3          	bgeu	a5,a2,1d870 <_realloc_r+0x1dc>
   1db10:	02ec3023          	sd	a4,32(s8)
   1db14:	018ab703          	ld	a4,24(s5)
   1db18:	04800793          	li	a5,72
   1db1c:	02ec3423          	sd	a4,40(s8)
   1db20:	020ab703          	ld	a4,32(s5)
   1db24:	08f61c63          	bne	a2,a5,1dbbc <_realloc_r+0x528>
   1db28:	02ec3823          	sd	a4,48(s8)
   1db2c:	028ab703          	ld	a4,40(s5)
   1db30:	040c0793          	addi	a5,s8,64
   1db34:	030a8a93          	addi	s5,s5,48
   1db38:	02ec3c23          	sd	a4,56(s8)
   1db3c:	000ab703          	ld	a4,0(s5)
   1db40:	d39ff06f          	j	1d878 <_realloc_r+0x1e4>
   1db44:	000a8593          	mv	a1,s5
   1db48:	00090513          	mv	a0,s2
   1db4c:	9c1ff0ef          	jal	ra,1d50c <memmove>
   1db50:	00090a93          	mv	s5,s2
   1db54:	000b8493          	mv	s1,s7
   1db58:	000c0b13          	mv	s6,s8
   1db5c:	d3dff06f          	j	1d898 <_realloc_r+0x204>
   1db60:	010ab703          	ld	a4,16(s5)
   1db64:	00e53823          	sd	a4,16(a0)
   1db68:	018ab703          	ld	a4,24(s5)
   1db6c:	00e53c23          	sd	a4,24(a0)
   1db70:	00f60a63          	beq	a2,a5,1db84 <_realloc_r+0x4f0>
   1db74:	020a8713          	addi	a4,s5,32
   1db78:	02050793          	addi	a5,a0,32
   1db7c:	020ab683          	ld	a3,32(s5)
   1db80:	c31ff06f          	j	1d7b0 <_realloc_r+0x11c>
   1db84:	020ab683          	ld	a3,32(s5)
   1db88:	030a8713          	addi	a4,s5,48
   1db8c:	03050793          	addi	a5,a0,48
   1db90:	02d53023          	sd	a3,32(a0)
   1db94:	028ab683          	ld	a3,40(s5)
   1db98:	02d53423          	sd	a3,40(a0)
   1db9c:	030ab683          	ld	a3,48(s5)
   1dba0:	c11ff06f          	j	1d7b0 <_realloc_r+0x11c>
   1dba4:	010ab783          	ld	a5,16(s5)
   1dba8:	02fc3023          	sd	a5,32(s8)
   1dbac:	018ab783          	ld	a5,24(s5)
   1dbb0:	02fc3423          	sd	a5,40(s8)
   1dbb4:	020ab703          	ld	a4,32(s5)
   1dbb8:	f6d608e3          	beq	a2,a3,1db28 <_realloc_r+0x494>
   1dbbc:	030c0793          	addi	a5,s8,48
   1dbc0:	020a8a93          	addi	s5,s5,32
   1dbc4:	cb5ff06f          	j	1d878 <_realloc_r+0x1e4>
   1dbc8:	000a8593          	mv	a1,s5
   1dbcc:	00090513          	mv	a0,s2
   1dbd0:	93dff0ef          	jal	ra,1d50c <memmove>
   1dbd4:	e15ff06f          	j	1d9e8 <_realloc_r+0x354>
   1dbd8:	010ab783          	ld	a5,16(s5)
   1dbdc:	02fc3023          	sd	a5,32(s8)
   1dbe0:	018ab783          	ld	a5,24(s5)
   1dbe4:	02fc3423          	sd	a5,40(s8)
   1dbe8:	020ab703          	ld	a4,32(s5)
   1dbec:	00d60863          	beq	a2,a3,1dbfc <_realloc_r+0x568>
   1dbf0:	030c0793          	addi	a5,s8,48
   1dbf4:	020a8a93          	addi	s5,s5,32
   1dbf8:	dddff06f          	j	1d9d4 <_realloc_r+0x340>
   1dbfc:	02ec3823          	sd	a4,48(s8)
   1dc00:	028ab703          	ld	a4,40(s5)
   1dc04:	040c0793          	addi	a5,s8,64
   1dc08:	030a8a93          	addi	s5,s5,48
   1dc0c:	02ec3c23          	sd	a4,56(s8)
   1dc10:	000ab703          	ld	a4,0(s5)
   1dc14:	dc1ff06f          	j	1d9d4 <_realloc_r+0x340>

000000000001dc18 <cleanup_glue>:
   1dc18:	fe010113          	addi	sp,sp,-32
   1dc1c:	00813823          	sd	s0,16(sp)
   1dc20:	00058413          	mv	s0,a1
   1dc24:	0005b583          	ld	a1,0(a1)
   1dc28:	00913423          	sd	s1,8(sp)
   1dc2c:	00113c23          	sd	ra,24(sp)
   1dc30:	00050493          	mv	s1,a0
   1dc34:	00058463          	beqz	a1,1dc3c <cleanup_glue+0x24>
   1dc38:	fe1ff0ef          	jal	ra,1dc18 <cleanup_glue>
   1dc3c:	00040593          	mv	a1,s0
   1dc40:	01013403          	ld	s0,16(sp)
   1dc44:	01813083          	ld	ra,24(sp)
   1dc48:	00048513          	mv	a0,s1
   1dc4c:	00813483          	ld	s1,8(sp)
   1dc50:	02010113          	addi	sp,sp,32
   1dc54:	d11f506f          	j	13964 <_free_r>

000000000001dc58 <_reclaim_reent>:
   1dc58:	75818793          	addi	a5,gp,1880 # 24b78 <_impure_ptr>
   1dc5c:	0007b783          	ld	a5,0(a5)
   1dc60:	10a78263          	beq	a5,a0,1dd64 <_reclaim_reent+0x10c>
   1dc64:	07853703          	ld	a4,120(a0)
   1dc68:	fd010113          	addi	sp,sp,-48
   1dc6c:	00913c23          	sd	s1,24(sp)
   1dc70:	02113423          	sd	ra,40(sp)
   1dc74:	02813023          	sd	s0,32(sp)
   1dc78:	01213823          	sd	s2,16(sp)
   1dc7c:	01313423          	sd	s3,8(sp)
   1dc80:	00050493          	mv	s1,a0
   1dc84:	04070263          	beqz	a4,1dcc8 <_reclaim_reent+0x70>
   1dc88:	00000913          	li	s2,0
   1dc8c:	20000993          	li	s3,512
   1dc90:	012707b3          	add	a5,a4,s2
   1dc94:	0007b583          	ld	a1,0(a5)
   1dc98:	00058e63          	beqz	a1,1dcb4 <_reclaim_reent+0x5c>
   1dc9c:	0005b403          	ld	s0,0(a1)
   1dca0:	00048513          	mv	a0,s1
   1dca4:	cc1f50ef          	jal	ra,13964 <_free_r>
   1dca8:	00040593          	mv	a1,s0
   1dcac:	fe0418e3          	bnez	s0,1dc9c <_reclaim_reent+0x44>
   1dcb0:	0784b703          	ld	a4,120(s1)
   1dcb4:	00890913          	addi	s2,s2,8
   1dcb8:	fd391ce3          	bne	s2,s3,1dc90 <_reclaim_reent+0x38>
   1dcbc:	00070593          	mv	a1,a4
   1dcc0:	00048513          	mv	a0,s1
   1dcc4:	ca1f50ef          	jal	ra,13964 <_free_r>
   1dcc8:	0604b583          	ld	a1,96(s1)
   1dccc:	00058663          	beqz	a1,1dcd8 <_reclaim_reent+0x80>
   1dcd0:	00048513          	mv	a0,s1
   1dcd4:	c91f50ef          	jal	ra,13964 <_free_r>
   1dcd8:	1f84b583          	ld	a1,504(s1)
   1dcdc:	02058063          	beqz	a1,1dcfc <_reclaim_reent+0xa4>
   1dce0:	20048913          	addi	s2,s1,512
   1dce4:	01258c63          	beq	a1,s2,1dcfc <_reclaim_reent+0xa4>
   1dce8:	0005b403          	ld	s0,0(a1)
   1dcec:	00048513          	mv	a0,s1
   1dcf0:	c75f50ef          	jal	ra,13964 <_free_r>
   1dcf4:	00040593          	mv	a1,s0
   1dcf8:	fe8918e3          	bne	s2,s0,1dce8 <_reclaim_reent+0x90>
   1dcfc:	0884b583          	ld	a1,136(s1)
   1dd00:	00058663          	beqz	a1,1dd0c <_reclaim_reent+0xb4>
   1dd04:	00048513          	mv	a0,s1
   1dd08:	c5df50ef          	jal	ra,13964 <_free_r>
   1dd0c:	0504a783          	lw	a5,80(s1)
   1dd10:	02078c63          	beqz	a5,1dd48 <_reclaim_reent+0xf0>
   1dd14:	0584b783          	ld	a5,88(s1)
   1dd18:	00048513          	mv	a0,s1
   1dd1c:	000780e7          	jalr	a5
   1dd20:	5204b583          	ld	a1,1312(s1)
   1dd24:	02058263          	beqz	a1,1dd48 <_reclaim_reent+0xf0>
   1dd28:	02013403          	ld	s0,32(sp)
   1dd2c:	02813083          	ld	ra,40(sp)
   1dd30:	01013903          	ld	s2,16(sp)
   1dd34:	00813983          	ld	s3,8(sp)
   1dd38:	00048513          	mv	a0,s1
   1dd3c:	01813483          	ld	s1,24(sp)
   1dd40:	03010113          	addi	sp,sp,48
   1dd44:	ed5ff06f          	j	1dc18 <cleanup_glue>
   1dd48:	02813083          	ld	ra,40(sp)
   1dd4c:	02013403          	ld	s0,32(sp)
   1dd50:	01813483          	ld	s1,24(sp)
   1dd54:	01013903          	ld	s2,16(sp)
   1dd58:	00813983          	ld	s3,8(sp)
   1dd5c:	03010113          	addi	sp,sp,48
   1dd60:	00008067          	ret
   1dd64:	00008067          	ret

000000000001dd68 <__ssprint_r>:
   1dd68:	01063783          	ld	a5,16(a2)
   1dd6c:	fb010113          	addi	sp,sp,-80
   1dd70:	03413023          	sd	s4,32(sp)
   1dd74:	04113423          	sd	ra,72(sp)
   1dd78:	04813023          	sd	s0,64(sp)
   1dd7c:	02913c23          	sd	s1,56(sp)
   1dd80:	03213823          	sd	s2,48(sp)
   1dd84:	03313423          	sd	s3,40(sp)
   1dd88:	01513c23          	sd	s5,24(sp)
   1dd8c:	01613823          	sd	s6,16(sp)
   1dd90:	01713423          	sd	s7,8(sp)
   1dd94:	01813023          	sd	s8,0(sp)
   1dd98:	00060a13          	mv	s4,a2
   1dd9c:	10078c63          	beqz	a5,1deb4 <__ssprint_r+0x14c>
   1dda0:	00050a93          	mv	s5,a0
   1dda4:	00063983          	ld	s3,0(a2)
   1dda8:	0005b503          	ld	a0,0(a1)
   1ddac:	00c5a403          	lw	s0,12(a1)
   1ddb0:	00058913          	mv	s2,a1
   1ddb4:	00000b13          	li	s6,0
   1ddb8:	00000493          	li	s1,0
   1ddbc:	12048863          	beqz	s1,1deec <__ssprint_r+0x184>
   1ddc0:	00040c13          	mv	s8,s0
   1ddc4:	0004879b          	sext.w	a5,s1
   1ddc8:	1284ea63          	bltu	s1,s0,1defc <__ssprint_r+0x194>
   1ddcc:	01095783          	lhu	a5,16(s2)
   1ddd0:	00048b9b          	sext.w	s7,s1
   1ddd4:	4807f713          	andi	a4,a5,1152
   1ddd8:	0a070063          	beqz	a4,1de78 <__ssprint_r+0x110>
   1dddc:	02092683          	lw	a3,32(s2)
   1dde0:	01893583          	ld	a1,24(s2)
   1dde4:	00148713          	addi	a4,s1,1
   1dde8:	0016941b          	slliw	s0,a3,0x1
   1ddec:	00d406bb          	addw	a3,s0,a3
   1ddf0:	40b50533          	sub	a0,a0,a1
   1ddf4:	01f6d41b          	srliw	s0,a3,0x1f
   1ddf8:	00050b9b          	sext.w	s7,a0
   1ddfc:	00d4043b          	addw	s0,s0,a3
   1de00:	4014541b          	sraiw	s0,s0,0x1
   1de04:	01770733          	add	a4,a4,s7
   1de08:	00e47663          	bgeu	s0,a4,1de14 <__ssprint_r+0xac>
   1de0c:	0014841b          	addiw	s0,s1,1
   1de10:	00a4043b          	addw	s0,s0,a0
   1de14:	4007f793          	andi	a5,a5,1024
   1de18:	0e078a63          	beqz	a5,1df0c <__ssprint_r+0x1a4>
   1de1c:	00040593          	mv	a1,s0
   1de20:	000a8513          	mv	a0,s5
   1de24:	e91f80ef          	jal	ra,16cb4 <_malloc_r>
   1de28:	00050c13          	mv	s8,a0
   1de2c:	10050063          	beqz	a0,1df2c <__ssprint_r+0x1c4>
   1de30:	01893583          	ld	a1,24(s2)
   1de34:	000b8613          	mv	a2,s7
   1de38:	db8ff0ef          	jal	ra,1d3f0 <memcpy>
   1de3c:	01095783          	lhu	a5,16(s2)
   1de40:	b7f7f793          	andi	a5,a5,-1153
   1de44:	0807e793          	ori	a5,a5,128
   1de48:	00f91823          	sh	a5,16(s2)
   1de4c:	017c0533          	add	a0,s8,s7
   1de50:	41740bbb          	subw	s7,s0,s7
   1de54:	0004879b          	sext.w	a5,s1
   1de58:	01893c23          	sd	s8,24(s2)
   1de5c:	02892023          	sw	s0,32(s2)
   1de60:	01792623          	sw	s7,12(s2)
   1de64:	00a93023          	sd	a0,0(s2)
   1de68:	00078413          	mv	s0,a5
   1de6c:	00078c13          	mv	s8,a5
   1de70:	00078b93          	mv	s7,a5
   1de74:	08f4e463          	bltu	s1,a5,1defc <__ssprint_r+0x194>
   1de78:	00040613          	mv	a2,s0
   1de7c:	000b0593          	mv	a1,s6
   1de80:	e8cff0ef          	jal	ra,1d50c <memmove>
   1de84:	00c92703          	lw	a4,12(s2)
   1de88:	00093503          	ld	a0,0(s2)
   1de8c:	010a3783          	ld	a5,16(s4)
   1de90:	4087043b          	subw	s0,a4,s0
   1de94:	01850533          	add	a0,a0,s8
   1de98:	00892623          	sw	s0,12(s2)
   1de9c:	00a93023          	sd	a0,0(s2)
   1dea0:	417787b3          	sub	a5,a5,s7
   1dea4:	00fa3823          	sd	a5,16(s4)
   1dea8:	017b0b33          	add	s6,s6,s7
   1deac:	417484b3          	sub	s1,s1,s7
   1deb0:	f00796e3          	bnez	a5,1ddbc <__ssprint_r+0x54>
   1deb4:	000a2423          	sw	zero,8(s4)
   1deb8:	00000513          	li	a0,0
   1debc:	04813083          	ld	ra,72(sp)
   1dec0:	04013403          	ld	s0,64(sp)
   1dec4:	03813483          	ld	s1,56(sp)
   1dec8:	03013903          	ld	s2,48(sp)
   1decc:	02813983          	ld	s3,40(sp)
   1ded0:	02013a03          	ld	s4,32(sp)
   1ded4:	01813a83          	ld	s5,24(sp)
   1ded8:	01013b03          	ld	s6,16(sp)
   1dedc:	00813b83          	ld	s7,8(sp)
   1dee0:	00013c03          	ld	s8,0(sp)
   1dee4:	05010113          	addi	sp,sp,80
   1dee8:	00008067          	ret
   1deec:	0009bb03          	ld	s6,0(s3)
   1def0:	0089b483          	ld	s1,8(s3)
   1def4:	01098993          	addi	s3,s3,16
   1def8:	ec5ff06f          	j	1ddbc <__ssprint_r+0x54>
   1defc:	00078413          	mv	s0,a5
   1df00:	00078c13          	mv	s8,a5
   1df04:	00078b93          	mv	s7,a5
   1df08:	f71ff06f          	j	1de78 <__ssprint_r+0x110>
   1df0c:	00040613          	mv	a2,s0
   1df10:	000a8513          	mv	a0,s5
   1df14:	f80ff0ef          	jal	ra,1d694 <_realloc_r>
   1df18:	00050c13          	mv	s8,a0
   1df1c:	f20518e3          	bnez	a0,1de4c <__ssprint_r+0xe4>
   1df20:	01893583          	ld	a1,24(s2)
   1df24:	000a8513          	mv	a0,s5
   1df28:	a3df50ef          	jal	ra,13964 <_free_r>
   1df2c:	00c00793          	li	a5,12
   1df30:	00faa023          	sw	a5,0(s5)
   1df34:	01095783          	lhu	a5,16(s2)
   1df38:	fff00513          	li	a0,-1
   1df3c:	0407e793          	ori	a5,a5,64
   1df40:	00f91823          	sh	a5,16(s2)
   1df44:	000a3823          	sd	zero,16(s4)
   1df48:	000a2423          	sw	zero,8(s4)
   1df4c:	f71ff06f          	j	1debc <__ssprint_r+0x154>

000000000001df50 <_svfiprintf_r>:
   1df50:	0105d783          	lhu	a5,16(a1)
   1df54:	e2010113          	addi	sp,sp,-480
   1df58:	1d213023          	sd	s2,448(sp)
   1df5c:	1b413823          	sd	s4,432(sp)
   1df60:	19a13023          	sd	s10,384(sp)
   1df64:	1c113c23          	sd	ra,472(sp)
   1df68:	1c813823          	sd	s0,464(sp)
   1df6c:	1c913423          	sd	s1,456(sp)
   1df70:	1b313c23          	sd	s3,440(sp)
   1df74:	1b513423          	sd	s5,424(sp)
   1df78:	1b613023          	sd	s6,416(sp)
   1df7c:	19713c23          	sd	s7,408(sp)
   1df80:	19813823          	sd	s8,400(sp)
   1df84:	19913423          	sd	s9,392(sp)
   1df88:	17b13c23          	sd	s11,376(sp)
   1df8c:	0807f793          	andi	a5,a5,128
   1df90:	00d13823          	sd	a3,16(sp)
   1df94:	00058913          	mv	s2,a1
   1df98:	00050a13          	mv	s4,a0
   1df9c:	00060d13          	mv	s10,a2
   1dfa0:	00078663          	beqz	a5,1dfac <_svfiprintf_r+0x5c>
   1dfa4:	0185b783          	ld	a5,24(a1)
   1dfa8:	48078ce3          	beqz	a5,1ec40 <_svfiprintf_r+0xcf0>
   1dfac:	ffff87b7          	lui	a5,0xffff8
   1dfb0:	0f010493          	addi	s1,sp,240
   1dfb4:	8307c793          	xori	a5,a5,-2000
   1dfb8:	06913823          	sd	s1,112(sp)
   1dfbc:	08013023          	sd	zero,128(sp)
   1dfc0:	06012c23          	sw	zero,120(sp)
   1dfc4:	00048d93          	mv	s11,s1
   1dfc8:	02013023          	sd	zero,32(sp)
   1dfcc:	04013023          	sd	zero,64(sp)
   1dfd0:	04013823          	sd	zero,80(sp)
   1dfd4:	04013423          	sd	zero,72(sp)
   1dfd8:	00013423          	sd	zero,8(sp)
   1dfdc:	00004a97          	auipc	s5,0x4
   1dfe0:	7fca8a93          	addi	s5,s5,2044 # 227d8 <_ctype_+0x108>
   1dfe4:	04f13c23          	sd	a5,88(sp)
   1dfe8:	000d4783          	lbu	a5,0(s10)
   1dfec:	0e078e63          	beqz	a5,1e0e8 <_svfiprintf_r+0x198>
   1dff0:	02500693          	li	a3,37
   1dff4:	40d786e3          	beq	a5,a3,1ec00 <_svfiprintf_r+0xcb0>
   1dff8:	000d0413          	mv	s0,s10
   1dffc:	00c0006f          	j	1e008 <_svfiprintf_r+0xb8>
   1e000:	0cd78063          	beq	a5,a3,1e0c0 <_svfiprintf_r+0x170>
   1e004:	00098413          	mv	s0,s3
   1e008:	00144783          	lbu	a5,1(s0)
   1e00c:	00140993          	addi	s3,s0,1
   1e010:	fe0798e3          	bnez	a5,1e000 <_svfiprintf_r+0xb0>
   1e014:	41a98b3b          	subw	s6,s3,s10
   1e018:	0c0b0863          	beqz	s6,1e0e8 <_svfiprintf_r+0x198>
   1e01c:	08013683          	ld	a3,128(sp)
   1e020:	07812783          	lw	a5,120(sp)
   1e024:	01adb023          	sd	s10,0(s11)
   1e028:	016686b3          	add	a3,a3,s6
   1e02c:	0017879b          	addiw	a5,a5,1
   1e030:	016db423          	sd	s6,8(s11)
   1e034:	08d13023          	sd	a3,128(sp)
   1e038:	06f12c23          	sw	a5,120(sp)
   1e03c:	0007869b          	sext.w	a3,a5
   1e040:	00700793          	li	a5,7
   1e044:	010d8d93          	addi	s11,s11,16
   1e048:	08d7c263          	blt	a5,a3,1e0cc <_svfiprintf_r+0x17c>
   1e04c:	00813703          	ld	a4,8(sp)
   1e050:	00144783          	lbu	a5,1(s0)
   1e054:	00eb073b          	addw	a4,s6,a4
   1e058:	00e13423          	sd	a4,8(sp)
   1e05c:	08078663          	beqz	a5,1e0e8 <_svfiprintf_r+0x198>
   1e060:	00198d13          	addi	s10,s3,1
   1e064:	0019c603          	lbu	a2,1(s3)
   1e068:	060103a3          	sb	zero,103(sp)
   1e06c:	fff00c13          	li	s8,-1
   1e070:	00000413          	li	s0,0
   1e074:	00000c93          	li	s9,0
   1e078:	00900993          	li	s3,9
   1e07c:	02a00b13          	li	s6,42
   1e080:	001d0d13          	addi	s10,s10,1
   1e084:	0006061b          	sext.w	a2,a2
   1e088:	05a00513          	li	a0,90
   1e08c:	fe06079b          	addiw	a5,a2,-32
   1e090:	0007859b          	sext.w	a1,a5
   1e094:	18b56c63          	bltu	a0,a1,1e22c <_svfiprintf_r+0x2dc>
   1e098:	02079793          	slli	a5,a5,0x20
   1e09c:	01e7d793          	srli	a5,a5,0x1e
   1e0a0:	015787b3          	add	a5,a5,s5
   1e0a4:	0007a783          	lw	a5,0(a5) # ffffffffffff8000 <__BSS_END__+0xfffffffffffd33e0>
   1e0a8:	015787b3          	add	a5,a5,s5
   1e0ac:	00078067          	jr	a5
   1e0b0:	010ce893          	ori	a7,s9,16
   1e0b4:	00088c9b          	sext.w	s9,a7
   1e0b8:	000d4603          	lbu	a2,0(s10)
   1e0bc:	fc5ff06f          	j	1e080 <_svfiprintf_r+0x130>
   1e0c0:	41a98b3b          	subw	s6,s3,s10
   1e0c4:	f80b0ee3          	beqz	s6,1e060 <_svfiprintf_r+0x110>
   1e0c8:	f55ff06f          	j	1e01c <_svfiprintf_r+0xcc>
   1e0cc:	07010613          	addi	a2,sp,112
   1e0d0:	00090593          	mv	a1,s2
   1e0d4:	000a0513          	mv	a0,s4
   1e0d8:	c91ff0ef          	jal	ra,1dd68 <__ssprint_r>
   1e0dc:	02051263          	bnez	a0,1e100 <_svfiprintf_r+0x1b0>
   1e0e0:	00048d93          	mv	s11,s1
   1e0e4:	f69ff06f          	j	1e04c <_svfiprintf_r+0xfc>
   1e0e8:	08013783          	ld	a5,128(sp)
   1e0ec:	00078a63          	beqz	a5,1e100 <_svfiprintf_r+0x1b0>
   1e0f0:	07010613          	addi	a2,sp,112
   1e0f4:	00090593          	mv	a1,s2
   1e0f8:	000a0513          	mv	a0,s4
   1e0fc:	c6dff0ef          	jal	ra,1dd68 <__ssprint_r>
   1e100:	01095783          	lhu	a5,16(s2)
   1e104:	0407f793          	andi	a5,a5,64
   1e108:	580796e3          	bnez	a5,1ee94 <_svfiprintf_r+0xf44>
   1e10c:	1d813083          	ld	ra,472(sp)
   1e110:	1d013403          	ld	s0,464(sp)
   1e114:	00813503          	ld	a0,8(sp)
   1e118:	1c813483          	ld	s1,456(sp)
   1e11c:	1c013903          	ld	s2,448(sp)
   1e120:	1b813983          	ld	s3,440(sp)
   1e124:	1b013a03          	ld	s4,432(sp)
   1e128:	1a813a83          	ld	s5,424(sp)
   1e12c:	1a013b03          	ld	s6,416(sp)
   1e130:	19813b83          	ld	s7,408(sp)
   1e134:	19013c03          	ld	s8,400(sp)
   1e138:	18813c83          	ld	s9,392(sp)
   1e13c:	18013d03          	ld	s10,384(sp)
   1e140:	17813d83          	ld	s11,376(sp)
   1e144:	1e010113          	addi	sp,sp,480
   1e148:	00008067          	ret
   1e14c:	01013703          	ld	a4,16(sp)
   1e150:	00004797          	auipc	a5,0x4
   1e154:	e5878793          	addi	a5,a5,-424 # 21fa8 <zeroes.4541+0x78>
   1e158:	02f13023          	sd	a5,32(sp)
   1e15c:	020cf793          	andi	a5,s9,32
   1e160:	00870593          	addi	a1,a4,8
   1e164:	4c078663          	beqz	a5,1e630 <_svfiprintf_r+0x6e0>
   1e168:	00073b03          	ld	s6,0(a4)
   1e16c:	001cf513          	andi	a0,s9,1
   1e170:	00050e63          	beqz	a0,1e18c <_svfiprintf_r+0x23c>
   1e174:	000b0c63          	beqz	s6,1e18c <_svfiprintf_r+0x23c>
   1e178:	002ce893          	ori	a7,s9,2
   1e17c:	03000513          	li	a0,48
   1e180:	06a10423          	sb	a0,104(sp)
   1e184:	06c104a3          	sb	a2,105(sp)
   1e188:	00088c9b          	sext.w	s9,a7
   1e18c:	bffcf893          	andi	a7,s9,-1025
   1e190:	0008899b          	sext.w	s3,a7
   1e194:	00b13823          	sd	a1,16(sp)
   1e198:	00200613          	li	a2,2
   1e19c:	060103a3          	sb	zero,103(sp)
   1e1a0:	fff00593          	li	a1,-1
   1e1a4:	50bc0c63          	beq	s8,a1,1e6bc <_svfiprintf_r+0x76c>
   1e1a8:	f7f9f893          	andi	a7,s3,-129
   1e1ac:	00088c9b          	sext.w	s9,a7
   1e1b0:	7e0b1c63          	bnez	s6,1e9a8 <_svfiprintf_r+0xa58>
   1e1b4:	5e0c1663          	bnez	s8,1e7a0 <_svfiprintf_r+0x850>
   1e1b8:	200616e3          	bnez	a2,1ebc4 <_svfiprintf_r+0xc74>
   1e1bc:	0019fb13          	andi	s6,s3,1
   1e1c0:	0ec10b93          	addi	s7,sp,236
   1e1c4:	000b0863          	beqz	s6,1e1d4 <_svfiprintf_r+0x284>
   1e1c8:	03000793          	li	a5,48
   1e1cc:	0ef105a3          	sb	a5,235(sp)
   1e1d0:	0eb10b93          	addi	s7,sp,235
   1e1d4:	000c0793          	mv	a5,s8
   1e1d8:	016c5463          	bge	s8,s6,1e1e0 <_svfiprintf_r+0x290>
   1e1dc:	000b0793          	mv	a5,s6
   1e1e0:	06714603          	lbu	a2,103(sp)
   1e1e4:	0007899b          	sext.w	s3,a5
   1e1e8:	06060063          	beqz	a2,1e248 <_svfiprintf_r+0x2f8>
   1e1ec:	0017899b          	addiw	s3,a5,1
   1e1f0:	0580006f          	j	1e248 <_svfiprintf_r+0x2f8>
   1e1f4:	00000413          	li	s0,0
   1e1f8:	001d0d13          	addi	s10,s10,1
   1e1fc:	fffd4583          	lbu	a1,-1(s10)
   1e200:	0024179b          	slliw	a5,s0,0x2
   1e204:	0087843b          	addw	s0,a5,s0
   1e208:	fd06061b          	addiw	a2,a2,-48
   1e20c:	0014141b          	slliw	s0,s0,0x1
   1e210:	fd05879b          	addiw	a5,a1,-48
   1e214:	0086043b          	addw	s0,a2,s0
   1e218:	0005861b          	sext.w	a2,a1
   1e21c:	fcf9fee3          	bgeu	s3,a5,1e1f8 <_svfiprintf_r+0x2a8>
   1e220:	fe06079b          	addiw	a5,a2,-32
   1e224:	0007859b          	sext.w	a1,a5
   1e228:	e6b578e3          	bgeu	a0,a1,1e098 <_svfiprintf_r+0x148>
   1e22c:	ea060ee3          	beqz	a2,1e0e8 <_svfiprintf_r+0x198>
   1e230:	08c10423          	sb	a2,136(sp)
   1e234:	060103a3          	sb	zero,103(sp)
   1e238:	00100993          	li	s3,1
   1e23c:	00100b13          	li	s6,1
   1e240:	08810b93          	addi	s7,sp,136
   1e244:	00000c13          	li	s8,0
   1e248:	002cfe93          	andi	t4,s9,2
   1e24c:	000e8e9b          	sext.w	t4,t4
   1e250:	000e8463          	beqz	t4,1e258 <_svfiprintf_r+0x308>
   1e254:	0029899b          	addiw	s3,s3,2
   1e258:	084cf293          	andi	t0,s9,132
   1e25c:	08013783          	ld	a5,128(sp)
   1e260:	07812603          	lw	a2,120(sp)
   1e264:	00029663          	bnez	t0,1e270 <_svfiprintf_r+0x320>
   1e268:	41340e3b          	subw	t3,s0,s3
   1e26c:	75c04263          	bgtz	t3,1e9b0 <_svfiprintf_r+0xa60>
   1e270:	06714f03          	lbu	t5,103(sp)
   1e274:	0016051b          	addiw	a0,a2,1
   1e278:	010d8593          	addi	a1,s11,16
   1e27c:	040f0063          	beqz	t5,1e2bc <_svfiprintf_r+0x36c>
   1e280:	06710f13          	addi	t5,sp,103
   1e284:	00178793          	addi	a5,a5,1
   1e288:	01edb023          	sd	t5,0(s11)
   1e28c:	00100f13          	li	t5,1
   1e290:	01edb423          	sd	t5,8(s11)
   1e294:	08f13023          	sd	a5,128(sp)
   1e298:	06a12c23          	sw	a0,120(sp)
   1e29c:	00700e13          	li	t3,7
   1e2a0:	7eae4e63          	blt	t3,a0,1ea9c <_svfiprintf_r+0xb4c>
   1e2a4:	00260f1b          	addiw	t5,a2,2
   1e2a8:	020d8e13          	addi	t3,s11,32
   1e2ac:	00050613          	mv	a2,a0
   1e2b0:	00058d93          	mv	s11,a1
   1e2b4:	000f0513          	mv	a0,t5
   1e2b8:	000e0593          	mv	a1,t3
   1e2bc:	020e8c63          	beqz	t4,1e2f4 <_svfiprintf_r+0x3a4>
   1e2c0:	06810613          	addi	a2,sp,104
   1e2c4:	00278793          	addi	a5,a5,2
   1e2c8:	00cdb023          	sd	a2,0(s11)
   1e2cc:	00200613          	li	a2,2
   1e2d0:	00cdb423          	sd	a2,8(s11)
   1e2d4:	08f13023          	sd	a5,128(sp)
   1e2d8:	06a12c23          	sw	a0,120(sp)
   1e2dc:	00700713          	li	a4,7
   1e2e0:	7ea74c63          	blt	a4,a0,1ead8 <_svfiprintf_r+0xb88>
   1e2e4:	00050613          	mv	a2,a0
   1e2e8:	00058d93          	mv	s11,a1
   1e2ec:	0015051b          	addiw	a0,a0,1
   1e2f0:	01058593          	addi	a1,a1,16
   1e2f4:	08000e13          	li	t3,128
   1e2f8:	4fc28863          	beq	t0,t3,1e7e8 <_svfiprintf_r+0x898>
   1e2fc:	416c0c3b          	subw	s8,s8,s6
   1e300:	5b804663          	bgtz	s8,1e8ac <_svfiprintf_r+0x95c>
   1e304:	00fb07b3          	add	a5,s6,a5
   1e308:	017db023          	sd	s7,0(s11)
   1e30c:	016db423          	sd	s6,8(s11)
   1e310:	08f13023          	sd	a5,128(sp)
   1e314:	06a12c23          	sw	a0,120(sp)
   1e318:	00700713          	li	a4,7
   1e31c:	64a74a63          	blt	a4,a0,1e970 <_svfiprintf_r+0xa20>
   1e320:	004cf893          	andi	a7,s9,4
   1e324:	00088663          	beqz	a7,1e330 <_svfiprintf_r+0x3e0>
   1e328:	41340b3b          	subw	s6,s0,s3
   1e32c:	7f604063          	bgtz	s6,1eb0c <_svfiprintf_r+0xbbc>
   1e330:	00040713          	mv	a4,s0
   1e334:	01345463          	bge	s0,s3,1e33c <_svfiprintf_r+0x3ec>
   1e338:	00098713          	mv	a4,s3
   1e33c:	00813683          	ld	a3,8(sp)
   1e340:	00d7073b          	addw	a4,a4,a3
   1e344:	00e13423          	sd	a4,8(sp)
   1e348:	64079463          	bnez	a5,1e990 <_svfiprintf_r+0xa40>
   1e34c:	06012c23          	sw	zero,120(sp)
   1e350:	00048d93          	mv	s11,s1
   1e354:	c95ff06f          	j	1dfe8 <_svfiprintf_r+0x98>
   1e358:	01013703          	ld	a4,16(sp)
   1e35c:	060103a3          	sb	zero,103(sp)
   1e360:	00100993          	li	s3,1
   1e364:	00072783          	lw	a5,0(a4)
   1e368:	00870713          	addi	a4,a4,8
   1e36c:	00e13823          	sd	a4,16(sp)
   1e370:	08f10423          	sb	a5,136(sp)
   1e374:	00100b13          	li	s6,1
   1e378:	08810b93          	addi	s7,sp,136
   1e37c:	ec9ff06f          	j	1e244 <_svfiprintf_r+0x2f4>
   1e380:	001ce893          	ori	a7,s9,1
   1e384:	00088c9b          	sext.w	s9,a7
   1e388:	000d4603          	lbu	a2,0(s10)
   1e38c:	cf5ff06f          	j	1e080 <_svfiprintf_r+0x130>
   1e390:	000d4603          	lbu	a2,0(s10)
   1e394:	004ce893          	ori	a7,s9,4
   1e398:	00088c9b          	sext.w	s9,a7
   1e39c:	ce5ff06f          	j	1e080 <_svfiprintf_r+0x130>
   1e3a0:	02b00793          	li	a5,43
   1e3a4:	06f103a3          	sb	a5,103(sp)
   1e3a8:	000d4603          	lbu	a2,0(s10)
   1e3ac:	cd5ff06f          	j	1e080 <_svfiprintf_r+0x130>
   1e3b0:	01013783          	ld	a5,16(sp)
   1e3b4:	000d4603          	lbu	a2,0(s10)
   1e3b8:	0007a403          	lw	s0,0(a5)
   1e3bc:	00878793          	addi	a5,a5,8
   1e3c0:	00f13823          	sd	a5,16(sp)
   1e3c4:	ca045ee3          	bgez	s0,1e080 <_svfiprintf_r+0x130>
   1e3c8:	4080043b          	negw	s0,s0
   1e3cc:	fc9ff06f          	j	1e394 <_svfiprintf_r+0x444>
   1e3d0:	000a0513          	mv	a0,s4
   1e3d4:	e48f80ef          	jal	ra,16a1c <_localeconv_r>
   1e3d8:	00853783          	ld	a5,8(a0)
   1e3dc:	00078513          	mv	a0,a5
   1e3e0:	04f13423          	sd	a5,72(sp)
   1e3e4:	971fa0ef          	jal	ra,18d54 <strlen>
   1e3e8:	04a13823          	sd	a0,80(sp)
   1e3ec:	00050b93          	mv	s7,a0
   1e3f0:	000a0513          	mv	a0,s4
   1e3f4:	e28f80ef          	jal	ra,16a1c <_localeconv_r>
   1e3f8:	01053783          	ld	a5,16(a0)
   1e3fc:	000d4603          	lbu	a2,0(s10)
   1e400:	04f13023          	sd	a5,64(sp)
   1e404:	c60b8ee3          	beqz	s7,1e080 <_svfiprintf_r+0x130>
   1e408:	c6078ce3          	beqz	a5,1e080 <_svfiprintf_r+0x130>
   1e40c:	0007c783          	lbu	a5,0(a5)
   1e410:	c60788e3          	beqz	a5,1e080 <_svfiprintf_r+0x130>
   1e414:	400ce893          	ori	a7,s9,1024
   1e418:	00088c9b          	sext.w	s9,a7
   1e41c:	c65ff06f          	j	1e080 <_svfiprintf_r+0x130>
   1e420:	080ce893          	ori	a7,s9,128
   1e424:	00088c9b          	sext.w	s9,a7
   1e428:	000d4603          	lbu	a2,0(s10)
   1e42c:	c55ff06f          	j	1e080 <_svfiprintf_r+0x130>
   1e430:	000d4603          	lbu	a2,0(s10)
   1e434:	001d0793          	addi	a5,s10,1
   1e438:	276604e3          	beq	a2,s6,1eea0 <_svfiprintf_r+0xf50>
   1e43c:	fd06059b          	addiw	a1,a2,-48
   1e440:	00078d13          	mv	s10,a5
   1e444:	00000c13          	li	s8,0
   1e448:	c4b9e2e3          	bltu	s3,a1,1e08c <_svfiprintf_r+0x13c>
   1e44c:	001d0d13          	addi	s10,s10,1
   1e450:	002c179b          	slliw	a5,s8,0x2
   1e454:	fffd4603          	lbu	a2,-1(s10)
   1e458:	018786bb          	addw	a3,a5,s8
   1e45c:	0016969b          	slliw	a3,a3,0x1
   1e460:	00b68c3b          	addw	s8,a3,a1
   1e464:	fd06059b          	addiw	a1,a2,-48
   1e468:	feb9f2e3          	bgeu	s3,a1,1e44c <_svfiprintf_r+0x4fc>
   1e46c:	c21ff06f          	j	1e08c <_svfiprintf_r+0x13c>
   1e470:	01013783          	ld	a5,16(sp)
   1e474:	010cee13          	ori	t3,s9,16
   1e478:	000e099b          	sext.w	s3,t3
   1e47c:	00878593          	addi	a1,a5,8
   1e480:	01013783          	ld	a5,16(sp)
   1e484:	00100613          	li	a2,1
   1e488:	0007bb03          	ld	s6,0(a5)
   1e48c:	00b13823          	sd	a1,16(sp)
   1e490:	d0dff06f          	j	1e19c <_svfiprintf_r+0x24c>
   1e494:	01013783          	ld	a5,16(sp)
   1e498:	060103a3          	sb	zero,103(sp)
   1e49c:	0007bb83          	ld	s7,0(a5)
   1e4a0:	00878713          	addi	a4,a5,8
   1e4a4:	0c0b82e3          	beqz	s7,1ed68 <_svfiprintf_r+0xe18>
   1e4a8:	fff00793          	li	a5,-1
   1e4ac:	00e13823          	sd	a4,16(sp)
   1e4b0:	76fc0e63          	beq	s8,a5,1ec2c <_svfiprintf_r+0xcdc>
   1e4b4:	000c0613          	mv	a2,s8
   1e4b8:	00000593          	li	a1,0
   1e4bc:	000b8513          	mv	a0,s7
   1e4c0:	8c0f90ef          	jal	ra,17580 <memchr>
   1e4c4:	01013703          	ld	a4,16(sp)
   1e4c8:	1a0500e3          	beqz	a0,1ee68 <_svfiprintf_r+0xf18>
   1e4cc:	41750b3b          	subw	s6,a0,s7
   1e4d0:	00000c13          	li	s8,0
   1e4d4:	d01ff06f          	j	1e1d4 <_svfiprintf_r+0x284>
   1e4d8:	010ce793          	ori	a5,s9,16
   1e4dc:	0007889b          	sext.w	a7,a5
   1e4e0:	01013783          	ld	a5,16(sp)
   1e4e4:	00878613          	addi	a2,a5,8
   1e4e8:	01013783          	ld	a5,16(sp)
   1e4ec:	0007bb03          	ld	s6,0(a5)
   1e4f0:	00c13823          	sd	a2,16(sp)
   1e4f4:	bff8f893          	andi	a7,a7,-1025
   1e4f8:	0008899b          	sext.w	s3,a7
   1e4fc:	00000613          	li	a2,0
   1e500:	c9dff06f          	j	1e19c <_svfiprintf_r+0x24c>
   1e504:	01013783          	ld	a5,16(sp)
   1e508:	010cee13          	ori	t3,s9,16
   1e50c:	000e099b          	sext.w	s3,t3
   1e510:	00878593          	addi	a1,a5,8
   1e514:	01013783          	ld	a5,16(sp)
   1e518:	0007b603          	ld	a2,0(a5)
   1e51c:	00b13823          	sd	a1,16(sp)
   1e520:	00060b13          	mv	s6,a2
   1e524:	18064063          	bltz	a2,1e6a4 <_svfiprintf_r+0x754>
   1e528:	fff00613          	li	a2,-1
   1e52c:	00cc0a63          	beq	s8,a2,1e540 <_svfiprintf_r+0x5f0>
   1e530:	f7f9f893          	andi	a7,s3,-129
   1e534:	00088c9b          	sext.w	s9,a7
   1e538:	680b0463          	beqz	s6,1ebc0 <_svfiprintf_r+0xc70>
   1e53c:	000c8993          	mv	s3,s9
   1e540:	00900613          	li	a2,9
   1e544:	71666e63          	bltu	a2,s6,1ec60 <_svfiprintf_r+0xd10>
   1e548:	030b079b          	addiw	a5,s6,48
   1e54c:	0ef105a3          	sb	a5,235(sp)
   1e550:	00098c93          	mv	s9,s3
   1e554:	00100b13          	li	s6,1
   1e558:	0eb10b93          	addi	s7,sp,235
   1e55c:	c79ff06f          	j	1e1d4 <_svfiprintf_r+0x284>
   1e560:	020ce893          	ori	a7,s9,32
   1e564:	00088c9b          	sext.w	s9,a7
   1e568:	000d4603          	lbu	a2,0(s10)
   1e56c:	b15ff06f          	j	1e080 <_svfiprintf_r+0x130>
   1e570:	01013783          	ld	a5,16(sp)
   1e574:	05813703          	ld	a4,88(sp)
   1e578:	002ce893          	ori	a7,s9,2
   1e57c:	0007bb03          	ld	s6,0(a5)
   1e580:	00878793          	addi	a5,a5,8
   1e584:	00f13823          	sd	a5,16(sp)
   1e588:	00004797          	auipc	a5,0x4
   1e58c:	a0878793          	addi	a5,a5,-1528 # 21f90 <zeroes.4541+0x60>
   1e590:	0008899b          	sext.w	s3,a7
   1e594:	06e11423          	sh	a4,104(sp)
   1e598:	02f13023          	sd	a5,32(sp)
   1e59c:	00200613          	li	a2,2
   1e5a0:	bfdff06f          	j	1e19c <_svfiprintf_r+0x24c>
   1e5a4:	01013703          	ld	a4,16(sp)
   1e5a8:	020cf793          	andi	a5,s9,32
   1e5ac:	00870593          	addi	a1,a4,8
   1e5b0:	66079463          	bnez	a5,1ec18 <_svfiprintf_r+0xcc8>
   1e5b4:	010cf793          	andi	a5,s9,16
   1e5b8:	66079063          	bnez	a5,1ec18 <_svfiprintf_r+0xcc8>
   1e5bc:	01013783          	ld	a5,16(sp)
   1e5c0:	040cf613          	andi	a2,s9,64
   1e5c4:	0007a783          	lw	a5,0(a5)
   1e5c8:	7c060663          	beqz	a2,1ed94 <_svfiprintf_r+0xe44>
   1e5cc:	03079b13          	slli	s6,a5,0x30
   1e5d0:	030b5b13          	srli	s6,s6,0x30
   1e5d4:	00b13823          	sd	a1,16(sp)
   1e5d8:	000c8993          	mv	s3,s9
   1e5dc:	00100613          	li	a2,1
   1e5e0:	bbdff06f          	j	1e19c <_svfiprintf_r+0x24c>
   1e5e4:	06714783          	lbu	a5,103(sp)
   1e5e8:	000d4603          	lbu	a2,0(s10)
   1e5ec:	a8079ae3          	bnez	a5,1e080 <_svfiprintf_r+0x130>
   1e5f0:	02000793          	li	a5,32
   1e5f4:	06f103a3          	sb	a5,103(sp)
   1e5f8:	a89ff06f          	j	1e080 <_svfiprintf_r+0x130>
   1e5fc:	000d4603          	lbu	a2,0(s10)
   1e600:	06c00793          	li	a5,108
   1e604:	72f60263          	beq	a2,a5,1ed28 <_svfiprintf_r+0xdd8>
   1e608:	010ce893          	ori	a7,s9,16
   1e60c:	00088c9b          	sext.w	s9,a7
   1e610:	a71ff06f          	j	1e080 <_svfiprintf_r+0x130>
   1e614:	01013703          	ld	a4,16(sp)
   1e618:	00004797          	auipc	a5,0x4
   1e61c:	97878793          	addi	a5,a5,-1672 # 21f90 <zeroes.4541+0x60>
   1e620:	02f13023          	sd	a5,32(sp)
   1e624:	020cf793          	andi	a5,s9,32
   1e628:	00870593          	addi	a1,a4,8
   1e62c:	b2079ee3          	bnez	a5,1e168 <_svfiprintf_r+0x218>
   1e630:	010cf793          	andi	a5,s9,16
   1e634:	5e079663          	bnez	a5,1ec20 <_svfiprintf_r+0xcd0>
   1e638:	01013783          	ld	a5,16(sp)
   1e63c:	040cf513          	andi	a0,s9,64
   1e640:	0007a783          	lw	a5,0(a5)
   1e644:	76050663          	beqz	a0,1edb0 <_svfiprintf_r+0xe60>
   1e648:	03079b13          	slli	s6,a5,0x30
   1e64c:	030b5b13          	srli	s6,s6,0x30
   1e650:	b1dff06f          	j	1e16c <_svfiprintf_r+0x21c>
   1e654:	000d4603          	lbu	a2,0(s10)
   1e658:	06800793          	li	a5,104
   1e65c:	6af60c63          	beq	a2,a5,1ed14 <_svfiprintf_r+0xdc4>
   1e660:	040ce893          	ori	a7,s9,64
   1e664:	00088c9b          	sext.w	s9,a7
   1e668:	a19ff06f          	j	1e080 <_svfiprintf_r+0x130>
   1e66c:	01013703          	ld	a4,16(sp)
   1e670:	020cf793          	andi	a5,s9,32
   1e674:	00870593          	addi	a1,a4,8
   1e678:	58079c63          	bnez	a5,1ec10 <_svfiprintf_r+0xcc0>
   1e67c:	010cf793          	andi	a5,s9,16
   1e680:	58079863          	bnez	a5,1ec10 <_svfiprintf_r+0xcc0>
   1e684:	040cf793          	andi	a5,s9,64
   1e688:	74078c63          	beqz	a5,1ede0 <_svfiprintf_r+0xe90>
   1e68c:	01013783          	ld	a5,16(sp)
   1e690:	00b13823          	sd	a1,16(sp)
   1e694:	000c8993          	mv	s3,s9
   1e698:	00079b03          	lh	s6,0(a5)
   1e69c:	000b0613          	mv	a2,s6
   1e6a0:	e80654e3          	bgez	a2,1e528 <_svfiprintf_r+0x5d8>
   1e6a4:	02d00613          	li	a2,45
   1e6a8:	06c103a3          	sb	a2,103(sp)
   1e6ac:	fff00593          	li	a1,-1
   1e6b0:	41600b33          	neg	s6,s6
   1e6b4:	00100613          	li	a2,1
   1e6b8:	aebc18e3          	bne	s8,a1,1e1a8 <_svfiprintf_r+0x258>
   1e6bc:	00100593          	li	a1,1
   1e6c0:	e8b600e3          	beq	a2,a1,1e540 <_svfiprintf_r+0x5f0>
   1e6c4:	00200593          	li	a1,2
   1e6c8:	0eb60663          	beq	a2,a1,1e7b4 <_svfiprintf_r+0x864>
   1e6cc:	0ec10593          	addi	a1,sp,236
   1e6d0:	0080006f          	j	1e6d8 <_svfiprintf_r+0x788>
   1e6d4:	000b8593          	mv	a1,s7
   1e6d8:	007b7613          	andi	a2,s6,7
   1e6dc:	03060613          	addi	a2,a2,48
   1e6e0:	fec58fa3          	sb	a2,-1(a1)
   1e6e4:	003b5b13          	srli	s6,s6,0x3
   1e6e8:	fff58b93          	addi	s7,a1,-1
   1e6ec:	fe0b14e3          	bnez	s6,1e6d4 <_svfiprintf_r+0x784>
   1e6f0:	0019f793          	andi	a5,s3,1
   1e6f4:	0e078263          	beqz	a5,1e7d8 <_svfiprintf_r+0x888>
   1e6f8:	03000793          	li	a5,48
   1e6fc:	0cf60e63          	beq	a2,a5,1e7d8 <_svfiprintf_r+0x888>
   1e700:	ffe58593          	addi	a1,a1,-2
   1e704:	fefb8fa3          	sb	a5,-1(s7)
   1e708:	0ec10793          	addi	a5,sp,236
   1e70c:	40b78b3b          	subw	s6,a5,a1
   1e710:	00098c93          	mv	s9,s3
   1e714:	00058b93          	mv	s7,a1
   1e718:	abdff06f          	j	1e1d4 <_svfiprintf_r+0x284>
   1e71c:	01013703          	ld	a4,16(sp)
   1e720:	020cf793          	andi	a5,s9,32
   1e724:	00870613          	addi	a2,a4,8
   1e728:	4e079063          	bnez	a5,1ec08 <_svfiprintf_r+0xcb8>
   1e72c:	010cf793          	andi	a5,s9,16
   1e730:	4c079c63          	bnez	a5,1ec08 <_svfiprintf_r+0xcb8>
   1e734:	01013783          	ld	a5,16(sp)
   1e738:	040cf593          	andi	a1,s9,64
   1e73c:	0007a783          	lw	a5,0(a5)
   1e740:	68058463          	beqz	a1,1edc8 <_svfiprintf_r+0xe78>
   1e744:	03079b13          	slli	s6,a5,0x30
   1e748:	030b5b13          	srli	s6,s6,0x30
   1e74c:	000c8893          	mv	a7,s9
   1e750:	00c13823          	sd	a2,16(sp)
   1e754:	da1ff06f          	j	1e4f4 <_svfiprintf_r+0x5a4>
   1e758:	01013703          	ld	a4,16(sp)
   1e75c:	020cf793          	andi	a5,s9,32
   1e760:	00073683          	ld	a3,0(a4)
   1e764:	00870713          	addi	a4,a4,8
   1e768:	00e13823          	sd	a4,16(sp)
   1e76c:	02079463          	bnez	a5,1e794 <_svfiprintf_r+0x844>
   1e770:	010cf793          	andi	a5,s9,16
   1e774:	02079063          	bnez	a5,1e794 <_svfiprintf_r+0x844>
   1e778:	040cf793          	andi	a5,s9,64
   1e77c:	6c079c63          	bnez	a5,1ee54 <_svfiprintf_r+0xf04>
   1e780:	200cf893          	andi	a7,s9,512
   1e784:	00813783          	ld	a5,8(sp)
   1e788:	70088263          	beqz	a7,1ee8c <_svfiprintf_r+0xf3c>
   1e78c:	00f68023          	sb	a5,0(a3)
   1e790:	859ff06f          	j	1dfe8 <_svfiprintf_r+0x98>
   1e794:	00813783          	ld	a5,8(sp)
   1e798:	00f6b023          	sd	a5,0(a3)
   1e79c:	84dff06f          	j	1dfe8 <_svfiprintf_r+0x98>
   1e7a0:	00100593          	li	a1,1
   1e7a4:	6ab60e63          	beq	a2,a1,1ee60 <_svfiprintf_r+0xf10>
   1e7a8:	00200593          	li	a1,2
   1e7ac:	000c8993          	mv	s3,s9
   1e7b0:	f0b61ee3          	bne	a2,a1,1e6cc <_svfiprintf_r+0x77c>
   1e7b4:	0ec10b93          	addi	s7,sp,236
   1e7b8:	02013783          	ld	a5,32(sp)
   1e7bc:	00fb7613          	andi	a2,s6,15
   1e7c0:	fffb8b93          	addi	s7,s7,-1
   1e7c4:	00c78633          	add	a2,a5,a2
   1e7c8:	00064603          	lbu	a2,0(a2)
   1e7cc:	004b5b13          	srli	s6,s6,0x4
   1e7d0:	00cb8023          	sb	a2,0(s7)
   1e7d4:	fe0b12e3          	bnez	s6,1e7b8 <_svfiprintf_r+0x868>
   1e7d8:	0ec10793          	addi	a5,sp,236
   1e7dc:	41778b3b          	subw	s6,a5,s7
   1e7e0:	00098c93          	mv	s9,s3
   1e7e4:	9f1ff06f          	j	1e1d4 <_svfiprintf_r+0x284>
   1e7e8:	41340e3b          	subw	t3,s0,s3
   1e7ec:	b1c058e3          	blez	t3,1e2fc <_svfiprintf_r+0x3ac>
   1e7f0:	01000e93          	li	t4,16
   1e7f4:	69ced263          	bge	t4,t3,1ee78 <_svfiprintf_r+0xf28>
   1e7f8:	00004e97          	auipc	t4,0x4
   1e7fc:	160e8e93          	addi	t4,t4,352 # 22958 <zeroes.4503>
   1e800:	01000f13          	li	t5,16
   1e804:	00700f93          	li	t6,7
   1e808:	00c0006f          	j	1e814 <_svfiprintf_r+0x8c4>
   1e80c:	ff0e0e1b          	addiw	t3,t3,-16
   1e810:	07cf5263          	bge	t5,t3,1e874 <_svfiprintf_r+0x924>
   1e814:	0016061b          	addiw	a2,a2,1
   1e818:	01078793          	addi	a5,a5,16
   1e81c:	01ddb023          	sd	t4,0(s11)
   1e820:	01edb423          	sd	t5,8(s11)
   1e824:	08f13023          	sd	a5,128(sp)
   1e828:	06c12c23          	sw	a2,120(sp)
   1e82c:	010d8d93          	addi	s11,s11,16
   1e830:	fccfdee3          	bge	t6,a2,1e80c <_svfiprintf_r+0x8bc>
   1e834:	07010613          	addi	a2,sp,112
   1e838:	00090593          	mv	a1,s2
   1e83c:	000a0513          	mv	a0,s4
   1e840:	03d13423          	sd	t4,40(sp)
   1e844:	01c13c23          	sd	t3,24(sp)
   1e848:	d20ff0ef          	jal	ra,1dd68 <__ssprint_r>
   1e84c:	8a051ae3          	bnez	a0,1e100 <_svfiprintf_r+0x1b0>
   1e850:	01813e03          	ld	t3,24(sp)
   1e854:	01000f13          	li	t5,16
   1e858:	08013783          	ld	a5,128(sp)
   1e85c:	ff0e0e1b          	addiw	t3,t3,-16
   1e860:	07812603          	lw	a2,120(sp)
   1e864:	00048d93          	mv	s11,s1
   1e868:	02813e83          	ld	t4,40(sp)
   1e86c:	00700f93          	li	t6,7
   1e870:	fbcf42e3          	blt	t5,t3,1e814 <_svfiprintf_r+0x8c4>
   1e874:	0016061b          	addiw	a2,a2,1
   1e878:	010d8f13          	addi	t5,s11,16
   1e87c:	01c787b3          	add	a5,a5,t3
   1e880:	01ddb023          	sd	t4,0(s11)
   1e884:	01cdb423          	sd	t3,8(s11)
   1e888:	08f13023          	sd	a5,128(sp)
   1e88c:	06c12c23          	sw	a2,120(sp)
   1e890:	00700713          	li	a4,7
   1e894:	4ac74463          	blt	a4,a2,1ed3c <_svfiprintf_r+0xdec>
   1e898:	416c0c3b          	subw	s8,s8,s6
   1e89c:	0016051b          	addiw	a0,a2,1
   1e8a0:	010f0593          	addi	a1,t5,16
   1e8a4:	000f0d93          	mv	s11,t5
   1e8a8:	a5805ee3          	blez	s8,1e304 <_svfiprintf_r+0x3b4>
   1e8ac:	01000e13          	li	t3,16
   1e8b0:	558e5863          	bge	t3,s8,1ee00 <_svfiprintf_r+0xeb0>
   1e8b4:	00004e97          	auipc	t4,0x4
   1e8b8:	0a4e8e93          	addi	t4,t4,164 # 22958 <zeroes.4503>
   1e8bc:	00700f13          	li	t5,7
   1e8c0:	00c0006f          	j	1e8cc <_svfiprintf_r+0x97c>
   1e8c4:	ff0c0c1b          	addiw	s8,s8,-16
   1e8c8:	058e5e63          	bge	t3,s8,1e924 <_svfiprintf_r+0x9d4>
   1e8cc:	0016061b          	addiw	a2,a2,1
   1e8d0:	01078793          	addi	a5,a5,16
   1e8d4:	01ddb023          	sd	t4,0(s11)
   1e8d8:	01cdb423          	sd	t3,8(s11)
   1e8dc:	08f13023          	sd	a5,128(sp)
   1e8e0:	06c12c23          	sw	a2,120(sp)
   1e8e4:	010d8d93          	addi	s11,s11,16
   1e8e8:	fccf5ee3          	bge	t5,a2,1e8c4 <_svfiprintf_r+0x974>
   1e8ec:	07010613          	addi	a2,sp,112
   1e8f0:	00090593          	mv	a1,s2
   1e8f4:	000a0513          	mv	a0,s4
   1e8f8:	01d13c23          	sd	t4,24(sp)
   1e8fc:	c6cff0ef          	jal	ra,1dd68 <__ssprint_r>
   1e900:	800510e3          	bnez	a0,1e100 <_svfiprintf_r+0x1b0>
   1e904:	01000e13          	li	t3,16
   1e908:	ff0c0c1b          	addiw	s8,s8,-16
   1e90c:	08013783          	ld	a5,128(sp)
   1e910:	07812603          	lw	a2,120(sp)
   1e914:	00048d93          	mv	s11,s1
   1e918:	01813e83          	ld	t4,24(sp)
   1e91c:	00700f13          	li	t5,7
   1e920:	fb8e46e3          	blt	t3,s8,1e8cc <_svfiprintf_r+0x97c>
   1e924:	0016051b          	addiw	a0,a2,1
   1e928:	010d8613          	addi	a2,s11,16
   1e92c:	018787b3          	add	a5,a5,s8
   1e930:	01ddb023          	sd	t4,0(s11)
   1e934:	018db423          	sd	s8,8(s11)
   1e938:	08f13023          	sd	a5,128(sp)
   1e93c:	06a12c23          	sw	a0,120(sp)
   1e940:	00700713          	li	a4,7
   1e944:	28a74863          	blt	a4,a0,1ebd4 <_svfiprintf_r+0xc84>
   1e948:	00060d93          	mv	s11,a2
   1e94c:	0015051b          	addiw	a0,a0,1
   1e950:	00fb07b3          	add	a5,s6,a5
   1e954:	017db023          	sd	s7,0(s11)
   1e958:	016db423          	sd	s6,8(s11)
   1e95c:	08f13023          	sd	a5,128(sp)
   1e960:	06a12c23          	sw	a0,120(sp)
   1e964:	00700713          	li	a4,7
   1e968:	01060593          	addi	a1,a2,16
   1e96c:	9aa75ae3          	bge	a4,a0,1e320 <_svfiprintf_r+0x3d0>
   1e970:	07010613          	addi	a2,sp,112
   1e974:	00090593          	mv	a1,s2
   1e978:	000a0513          	mv	a0,s4
   1e97c:	becff0ef          	jal	ra,1dd68 <__ssprint_r>
   1e980:	f8051063          	bnez	a0,1e100 <_svfiprintf_r+0x1b0>
   1e984:	08013783          	ld	a5,128(sp)
   1e988:	00048593          	mv	a1,s1
   1e98c:	995ff06f          	j	1e320 <_svfiprintf_r+0x3d0>
   1e990:	07010613          	addi	a2,sp,112
   1e994:	00090593          	mv	a1,s2
   1e998:	000a0513          	mv	a0,s4
   1e99c:	bccff0ef          	jal	ra,1dd68 <__ssprint_r>
   1e9a0:	9a0506e3          	beqz	a0,1e34c <_svfiprintf_r+0x3fc>
   1e9a4:	f5cff06f          	j	1e100 <_svfiprintf_r+0x1b0>
   1e9a8:	000c8993          	mv	s3,s9
   1e9ac:	d11ff06f          	j	1e6bc <_svfiprintf_r+0x76c>
   1e9b0:	01000593          	li	a1,16
   1e9b4:	00004f17          	auipc	t5,0x4
   1e9b8:	f94f0f13          	addi	t5,t5,-108 # 22948 <blanks.4502>
   1e9bc:	01000f93          	li	t6,16
   1e9c0:	00700393          	li	t2,7
   1e9c4:	01c5c863          	blt	a1,t3,1e9d4 <_svfiprintf_r+0xa84>
   1e9c8:	07c0006f          	j	1ea44 <_svfiprintf_r+0xaf4>
   1e9cc:	ff0e0e1b          	addiw	t3,t3,-16
   1e9d0:	07cfda63          	bge	t6,t3,1ea44 <_svfiprintf_r+0xaf4>
   1e9d4:	0016061b          	addiw	a2,a2,1
   1e9d8:	01078793          	addi	a5,a5,16
   1e9dc:	01edb023          	sd	t5,0(s11)
   1e9e0:	01fdb423          	sd	t6,8(s11)
   1e9e4:	08f13023          	sd	a5,128(sp)
   1e9e8:	06c12c23          	sw	a2,120(sp)
   1e9ec:	010d8d93          	addi	s11,s11,16
   1e9f0:	fcc3dee3          	bge	t2,a2,1e9cc <_svfiprintf_r+0xa7c>
   1e9f4:	07010613          	addi	a2,sp,112
   1e9f8:	00090593          	mv	a1,s2
   1e9fc:	000a0513          	mv	a0,s4
   1ea00:	03e13c23          	sd	t5,56(sp)
   1ea04:	03c13823          	sd	t3,48(sp)
   1ea08:	02513423          	sd	t0,40(sp)
   1ea0c:	01d13c23          	sd	t4,24(sp)
   1ea10:	b58ff0ef          	jal	ra,1dd68 <__ssprint_r>
   1ea14:	ee051663          	bnez	a0,1e100 <_svfiprintf_r+0x1b0>
   1ea18:	03013e03          	ld	t3,48(sp)
   1ea1c:	01000f93          	li	t6,16
   1ea20:	08013783          	ld	a5,128(sp)
   1ea24:	ff0e0e1b          	addiw	t3,t3,-16
   1ea28:	07812603          	lw	a2,120(sp)
   1ea2c:	00048d93          	mv	s11,s1
   1ea30:	03813f03          	ld	t5,56(sp)
   1ea34:	00700393          	li	t2,7
   1ea38:	02813283          	ld	t0,40(sp)
   1ea3c:	01813e83          	ld	t4,24(sp)
   1ea40:	f9cfcae3          	blt	t6,t3,1e9d4 <_svfiprintf_r+0xa84>
   1ea44:	0016061b          	addiw	a2,a2,1
   1ea48:	01c787b3          	add	a5,a5,t3
   1ea4c:	01edb023          	sd	t5,0(s11)
   1ea50:	01cdb423          	sd	t3,8(s11)
   1ea54:	08f13023          	sd	a5,128(sp)
   1ea58:	06c12c23          	sw	a2,120(sp)
   1ea5c:	00700593          	li	a1,7
   1ea60:	010d8d93          	addi	s11,s11,16
   1ea64:	80c5d6e3          	bge	a1,a2,1e270 <_svfiprintf_r+0x320>
   1ea68:	07010613          	addi	a2,sp,112
   1ea6c:	00090593          	mv	a1,s2
   1ea70:	000a0513          	mv	a0,s4
   1ea74:	02513423          	sd	t0,40(sp)
   1ea78:	01d13c23          	sd	t4,24(sp)
   1ea7c:	aecff0ef          	jal	ra,1dd68 <__ssprint_r>
   1ea80:	e8051063          	bnez	a0,1e100 <_svfiprintf_r+0x1b0>
   1ea84:	08013783          	ld	a5,128(sp)
   1ea88:	07812603          	lw	a2,120(sp)
   1ea8c:	00048d93          	mv	s11,s1
   1ea90:	02813283          	ld	t0,40(sp)
   1ea94:	01813e83          	ld	t4,24(sp)
   1ea98:	fd8ff06f          	j	1e270 <_svfiprintf_r+0x320>
   1ea9c:	07010613          	addi	a2,sp,112
   1eaa0:	00090593          	mv	a1,s2
   1eaa4:	000a0513          	mv	a0,s4
   1eaa8:	02513423          	sd	t0,40(sp)
   1eaac:	01d13c23          	sd	t4,24(sp)
   1eab0:	ab8ff0ef          	jal	ra,1dd68 <__ssprint_r>
   1eab4:	e4051663          	bnez	a0,1e100 <_svfiprintf_r+0x1b0>
   1eab8:	07812603          	lw	a2,120(sp)
   1eabc:	08013783          	ld	a5,128(sp)
   1eac0:	10010593          	addi	a1,sp,256
   1eac4:	0016051b          	addiw	a0,a2,1
   1eac8:	00048d93          	mv	s11,s1
   1eacc:	02813283          	ld	t0,40(sp)
   1ead0:	01813e83          	ld	t4,24(sp)
   1ead4:	fe8ff06f          	j	1e2bc <_svfiprintf_r+0x36c>
   1ead8:	07010613          	addi	a2,sp,112
   1eadc:	00090593          	mv	a1,s2
   1eae0:	000a0513          	mv	a0,s4
   1eae4:	00513c23          	sd	t0,24(sp)
   1eae8:	a80ff0ef          	jal	ra,1dd68 <__ssprint_r>
   1eaec:	e0051a63          	bnez	a0,1e100 <_svfiprintf_r+0x1b0>
   1eaf0:	07812603          	lw	a2,120(sp)
   1eaf4:	08013783          	ld	a5,128(sp)
   1eaf8:	10010593          	addi	a1,sp,256
   1eafc:	0016051b          	addiw	a0,a2,1
   1eb00:	00048d93          	mv	s11,s1
   1eb04:	01813283          	ld	t0,24(sp)
   1eb08:	fecff06f          	j	1e2f4 <_svfiprintf_r+0x3a4>
   1eb0c:	01000693          	li	a3,16
   1eb10:	07812703          	lw	a4,120(sp)
   1eb14:	00004f17          	auipc	t5,0x4
   1eb18:	e34f0f13          	addi	t5,t5,-460 # 22948 <blanks.4502>
   1eb1c:	01000c13          	li	s8,16
   1eb20:	00700b93          	li	s7,7
   1eb24:	0166c863          	blt	a3,s6,1eb34 <_svfiprintf_r+0xbe4>
   1eb28:	05c0006f          	j	1eb84 <_svfiprintf_r+0xc34>
   1eb2c:	ff0b0b1b          	addiw	s6,s6,-16
   1eb30:	056c5a63          	bge	s8,s6,1eb84 <_svfiprintf_r+0xc34>
   1eb34:	0017071b          	addiw	a4,a4,1
   1eb38:	01078793          	addi	a5,a5,16
   1eb3c:	01e5b023          	sd	t5,0(a1)
   1eb40:	0185b423          	sd	s8,8(a1)
   1eb44:	08f13023          	sd	a5,128(sp)
   1eb48:	06e12c23          	sw	a4,120(sp)
   1eb4c:	01058593          	addi	a1,a1,16
   1eb50:	fcebdee3          	bge	s7,a4,1eb2c <_svfiprintf_r+0xbdc>
   1eb54:	07010613          	addi	a2,sp,112
   1eb58:	00090593          	mv	a1,s2
   1eb5c:	000a0513          	mv	a0,s4
   1eb60:	01e13c23          	sd	t5,24(sp)
   1eb64:	a04ff0ef          	jal	ra,1dd68 <__ssprint_r>
   1eb68:	d8051c63          	bnez	a0,1e100 <_svfiprintf_r+0x1b0>
   1eb6c:	ff0b0b1b          	addiw	s6,s6,-16
   1eb70:	08013783          	ld	a5,128(sp)
   1eb74:	07812703          	lw	a4,120(sp)
   1eb78:	00048593          	mv	a1,s1
   1eb7c:	01813f03          	ld	t5,24(sp)
   1eb80:	fb6c4ae3          	blt	s8,s6,1eb34 <_svfiprintf_r+0xbe4>
   1eb84:	0017069b          	addiw	a3,a4,1
   1eb88:	016787b3          	add	a5,a5,s6
   1eb8c:	01e5b023          	sd	t5,0(a1)
   1eb90:	0165b423          	sd	s6,8(a1)
   1eb94:	08f13023          	sd	a5,128(sp)
   1eb98:	06d12c23          	sw	a3,120(sp)
   1eb9c:	00700713          	li	a4,7
   1eba0:	f8d75863          	bge	a4,a3,1e330 <_svfiprintf_r+0x3e0>
   1eba4:	07010613          	addi	a2,sp,112
   1eba8:	00090593          	mv	a1,s2
   1ebac:	000a0513          	mv	a0,s4
   1ebb0:	9b8ff0ef          	jal	ra,1dd68 <__ssprint_r>
   1ebb4:	d4051663          	bnez	a0,1e100 <_svfiprintf_r+0x1b0>
   1ebb8:	08013783          	ld	a5,128(sp)
   1ebbc:	f74ff06f          	j	1e330 <_svfiprintf_r+0x3e0>
   1ebc0:	2a0c1063          	bnez	s8,1ee60 <_svfiprintf_r+0xf10>
   1ebc4:	00000c13          	li	s8,0
   1ebc8:	00000b13          	li	s6,0
   1ebcc:	0ec10b93          	addi	s7,sp,236
   1ebd0:	e04ff06f          	j	1e1d4 <_svfiprintf_r+0x284>
   1ebd4:	07010613          	addi	a2,sp,112
   1ebd8:	00090593          	mv	a1,s2
   1ebdc:	000a0513          	mv	a0,s4
   1ebe0:	988ff0ef          	jal	ra,1dd68 <__ssprint_r>
   1ebe4:	d0051e63          	bnez	a0,1e100 <_svfiprintf_r+0x1b0>
   1ebe8:	07812503          	lw	a0,120(sp)
   1ebec:	08013783          	ld	a5,128(sp)
   1ebf0:	10010593          	addi	a1,sp,256
   1ebf4:	0015051b          	addiw	a0,a0,1
   1ebf8:	00048d93          	mv	s11,s1
   1ebfc:	f08ff06f          	j	1e304 <_svfiprintf_r+0x3b4>
   1ec00:	000d0993          	mv	s3,s10
   1ec04:	c5cff06f          	j	1e060 <_svfiprintf_r+0x110>
   1ec08:	000c8893          	mv	a7,s9
   1ec0c:	8ddff06f          	j	1e4e8 <_svfiprintf_r+0x598>
   1ec10:	000c8993          	mv	s3,s9
   1ec14:	901ff06f          	j	1e514 <_svfiprintf_r+0x5c4>
   1ec18:	000c8993          	mv	s3,s9
   1ec1c:	865ff06f          	j	1e480 <_svfiprintf_r+0x530>
   1ec20:	01013783          	ld	a5,16(sp)
   1ec24:	0007bb03          	ld	s6,0(a5)
   1ec28:	d44ff06f          	j	1e16c <_svfiprintf_r+0x21c>
   1ec2c:	000b8513          	mv	a0,s7
   1ec30:	924fa0ef          	jal	ra,18d54 <strlen>
   1ec34:	00050b1b          	sext.w	s6,a0
   1ec38:	00000c13          	li	s8,0
   1ec3c:	d98ff06f          	j	1e1d4 <_svfiprintf_r+0x284>
   1ec40:	04000593          	li	a1,64
   1ec44:	870f80ef          	jal	ra,16cb4 <_malloc_r>
   1ec48:	00a93023          	sd	a0,0(s2)
   1ec4c:	00a93c23          	sd	a0,24(s2)
   1ec50:	26050c63          	beqz	a0,1eec8 <_svfiprintf_r+0xf78>
   1ec54:	04000793          	li	a5,64
   1ec58:	02f92023          	sw	a5,32(s2)
   1ec5c:	b50ff06f          	j	1dfac <_svfiprintf_r+0x5c>
   1ec60:	4009f793          	andi	a5,s3,1024
   1ec64:	0007879b          	sext.w	a5,a5
   1ec68:	00f13c23          	sd	a5,24(sp)
   1ec6c:	00000c93          	li	s9,0
   1ec70:	0ec10b93          	addi	s7,sp,236
   1ec74:	00a00593          	li	a1,10
   1ec78:	000b0513          	mv	a0,s6
   1ec7c:	745020ef          	jal	ra,21bc0 <__umoddi3>
   1ec80:	01813783          	ld	a5,24(sp)
   1ec84:	0305051b          	addiw	a0,a0,48
   1ec88:	feab8fa3          	sb	a0,-1(s7)
   1ec8c:	001c8c9b          	addiw	s9,s9,1
   1ec90:	fffb8b93          	addi	s7,s7,-1
   1ec94:	00078863          	beqz	a5,1eca4 <_svfiprintf_r+0xd54>
   1ec98:	04013783          	ld	a5,64(sp)
   1ec9c:	0007c603          	lbu	a2,0(a5)
   1eca0:	03960063          	beq	a2,s9,1ecc0 <_svfiprintf_r+0xd70>
   1eca4:	00a00593          	li	a1,10
   1eca8:	000b0513          	mv	a0,s6
   1ecac:	6cd020ef          	jal	ra,21b78 <__udivdi3>
   1ecb0:	00900793          	li	a5,9
   1ecb4:	b367f2e3          	bgeu	a5,s6,1e7d8 <_svfiprintf_r+0x888>
   1ecb8:	00050b13          	mv	s6,a0
   1ecbc:	fb9ff06f          	j	1ec74 <_svfiprintf_r+0xd24>
   1ecc0:	0ff00793          	li	a5,255
   1ecc4:	fef600e3          	beq	a2,a5,1eca4 <_svfiprintf_r+0xd54>
   1ecc8:	00900793          	li	a5,9
   1eccc:	b167f6e3          	bgeu	a5,s6,1e7d8 <_svfiprintf_r+0x888>
   1ecd0:	05013783          	ld	a5,80(sp)
   1ecd4:	04813583          	ld	a1,72(sp)
   1ecd8:	00000c93          	li	s9,0
   1ecdc:	40fb8bb3          	sub	s7,s7,a5
   1ece0:	00078613          	mv	a2,a5
   1ece4:	000b8513          	mv	a0,s7
   1ece8:	93cfa0ef          	jal	ra,18e24 <strncpy>
   1ecec:	04013703          	ld	a4,64(sp)
   1ecf0:	000b0513          	mv	a0,s6
   1ecf4:	00a00593          	li	a1,10
   1ecf8:	00174603          	lbu	a2,1(a4)
   1ecfc:	00c037b3          	snez	a5,a2
   1ed00:	00f707b3          	add	a5,a4,a5
   1ed04:	04f13023          	sd	a5,64(sp)
   1ed08:	671020ef          	jal	ra,21b78 <__udivdi3>
   1ed0c:	00050b13          	mv	s6,a0
   1ed10:	f65ff06f          	j	1ec74 <_svfiprintf_r+0xd24>
   1ed14:	200ce893          	ori	a7,s9,512
   1ed18:	001d4603          	lbu	a2,1(s10)
   1ed1c:	00088c9b          	sext.w	s9,a7
   1ed20:	001d0d13          	addi	s10,s10,1
   1ed24:	b5cff06f          	j	1e080 <_svfiprintf_r+0x130>
   1ed28:	020ce893          	ori	a7,s9,32
   1ed2c:	001d4603          	lbu	a2,1(s10)
   1ed30:	00088c9b          	sext.w	s9,a7
   1ed34:	001d0d13          	addi	s10,s10,1
   1ed38:	b48ff06f          	j	1e080 <_svfiprintf_r+0x130>
   1ed3c:	07010613          	addi	a2,sp,112
   1ed40:	00090593          	mv	a1,s2
   1ed44:	000a0513          	mv	a0,s4
   1ed48:	820ff0ef          	jal	ra,1dd68 <__ssprint_r>
   1ed4c:	ba051a63          	bnez	a0,1e100 <_svfiprintf_r+0x1b0>
   1ed50:	07812603          	lw	a2,120(sp)
   1ed54:	08013783          	ld	a5,128(sp)
   1ed58:	10010593          	addi	a1,sp,256
   1ed5c:	0016051b          	addiw	a0,a2,1
   1ed60:	00048d93          	mv	s11,s1
   1ed64:	d98ff06f          	j	1e2fc <_svfiprintf_r+0x3ac>
   1ed68:	000c061b          	sext.w	a2,s8
   1ed6c:	00600793          	li	a5,6
   1ed70:	000c0693          	mv	a3,s8
   1ed74:	00c7f463          	bgeu	a5,a2,1ed7c <_svfiprintf_r+0xe2c>
   1ed78:	00600693          	li	a3,6
   1ed7c:	00068b1b          	sext.w	s6,a3
   1ed80:	000b0993          	mv	s3,s6
   1ed84:	00e13823          	sd	a4,16(sp)
   1ed88:	00003b97          	auipc	s7,0x3
   1ed8c:	238b8b93          	addi	s7,s7,568 # 21fc0 <zeroes.4541+0x90>
   1ed90:	cb4ff06f          	j	1e244 <_svfiprintf_r+0x2f4>
   1ed94:	200cf613          	andi	a2,s9,512
   1ed98:	0a060263          	beqz	a2,1ee3c <_svfiprintf_r+0xeec>
   1ed9c:	0ff7fb13          	andi	s6,a5,255
   1eda0:	00b13823          	sd	a1,16(sp)
   1eda4:	000c8993          	mv	s3,s9
   1eda8:	00100613          	li	a2,1
   1edac:	bf0ff06f          	j	1e19c <_svfiprintf_r+0x24c>
   1edb0:	200cf513          	andi	a0,s9,512
   1edb4:	0ff7fb13          	andi	s6,a5,255
   1edb8:	ba051a63          	bnez	a0,1e16c <_svfiprintf_r+0x21c>
   1edbc:	02079b13          	slli	s6,a5,0x20
   1edc0:	020b5b13          	srli	s6,s6,0x20
   1edc4:	ba8ff06f          	j	1e16c <_svfiprintf_r+0x21c>
   1edc8:	200cf593          	andi	a1,s9,512
   1edcc:	04058e63          	beqz	a1,1ee28 <_svfiprintf_r+0xed8>
   1edd0:	0ff7fb13          	andi	s6,a5,255
   1edd4:	000c8893          	mv	a7,s9
   1edd8:	00c13823          	sd	a2,16(sp)
   1eddc:	f18ff06f          	j	1e4f4 <_svfiprintf_r+0x5a4>
   1ede0:	200cf793          	andi	a5,s9,512
   1ede4:	02078663          	beqz	a5,1ee10 <_svfiprintf_r+0xec0>
   1ede8:	01013783          	ld	a5,16(sp)
   1edec:	000c8993          	mv	s3,s9
   1edf0:	00b13823          	sd	a1,16(sp)
   1edf4:	00078b03          	lb	s6,0(a5)
   1edf8:	000b0613          	mv	a2,s6
   1edfc:	f28ff06f          	j	1e524 <_svfiprintf_r+0x5d4>
   1ee00:	00058613          	mv	a2,a1
   1ee04:	00004e97          	auipc	t4,0x4
   1ee08:	b54e8e93          	addi	t4,t4,-1196 # 22958 <zeroes.4503>
   1ee0c:	b21ff06f          	j	1e92c <_svfiprintf_r+0x9dc>
   1ee10:	01013783          	ld	a5,16(sp)
   1ee14:	000c8993          	mv	s3,s9
   1ee18:	00b13823          	sd	a1,16(sp)
   1ee1c:	0007ab03          	lw	s6,0(a5)
   1ee20:	000b0613          	mv	a2,s6
   1ee24:	f00ff06f          	j	1e524 <_svfiprintf_r+0x5d4>
   1ee28:	02079b13          	slli	s6,a5,0x20
   1ee2c:	020b5b13          	srli	s6,s6,0x20
   1ee30:	000c8893          	mv	a7,s9
   1ee34:	00c13823          	sd	a2,16(sp)
   1ee38:	ebcff06f          	j	1e4f4 <_svfiprintf_r+0x5a4>
   1ee3c:	02079b13          	slli	s6,a5,0x20
   1ee40:	020b5b13          	srli	s6,s6,0x20
   1ee44:	00b13823          	sd	a1,16(sp)
   1ee48:	000c8993          	mv	s3,s9
   1ee4c:	00100613          	li	a2,1
   1ee50:	b4cff06f          	j	1e19c <_svfiprintf_r+0x24c>
   1ee54:	00813783          	ld	a5,8(sp)
   1ee58:	00f69023          	sh	a5,0(a3)
   1ee5c:	98cff06f          	j	1dfe8 <_svfiprintf_r+0x98>
   1ee60:	000c8993          	mv	s3,s9
   1ee64:	ee4ff06f          	j	1e548 <_svfiprintf_r+0x5f8>
   1ee68:	000c0b13          	mv	s6,s8
   1ee6c:	00e13823          	sd	a4,16(sp)
   1ee70:	00000c13          	li	s8,0
   1ee74:	b60ff06f          	j	1e1d4 <_svfiprintf_r+0x284>
   1ee78:	00058f13          	mv	t5,a1
   1ee7c:	00050613          	mv	a2,a0
   1ee80:	00004e97          	auipc	t4,0x4
   1ee84:	ad8e8e93          	addi	t4,t4,-1320 # 22958 <zeroes.4503>
   1ee88:	9f5ff06f          	j	1e87c <_svfiprintf_r+0x92c>
   1ee8c:	00f6a023          	sw	a5,0(a3)
   1ee90:	958ff06f          	j	1dfe8 <_svfiprintf_r+0x98>
   1ee94:	fff00793          	li	a5,-1
   1ee98:	00f13423          	sd	a5,8(sp)
   1ee9c:	a70ff06f          	j	1e10c <_svfiprintf_r+0x1bc>
   1eea0:	01013703          	ld	a4,16(sp)
   1eea4:	00072683          	lw	a3,0(a4)
   1eea8:	00870b93          	addi	s7,a4,8
   1eeac:	0006d463          	bgez	a3,1eeb4 <_svfiprintf_r+0xf64>
   1eeb0:	fff00693          	li	a3,-1
   1eeb4:	001d4603          	lbu	a2,1(s10)
   1eeb8:	00068c13          	mv	s8,a3
   1eebc:	01713823          	sd	s7,16(sp)
   1eec0:	00078d13          	mv	s10,a5
   1eec4:	9bcff06f          	j	1e080 <_svfiprintf_r+0x130>
   1eec8:	00c00793          	li	a5,12
   1eecc:	00fa2023          	sw	a5,0(s4)
   1eed0:	fff00793          	li	a5,-1
   1eed4:	00f13423          	sd	a5,8(sp)
   1eed8:	a34ff06f          	j	1e10c <_svfiprintf_r+0x1bc>

000000000001eedc <__swbuf_r>:
   1eedc:	fd010113          	addi	sp,sp,-48
   1eee0:	02813023          	sd	s0,32(sp)
   1eee4:	00913c23          	sd	s1,24(sp)
   1eee8:	01213823          	sd	s2,16(sp)
   1eeec:	02113423          	sd	ra,40(sp)
   1eef0:	01313423          	sd	s3,8(sp)
   1eef4:	00050913          	mv	s2,a0
   1eef8:	00058493          	mv	s1,a1
   1eefc:	00060413          	mv	s0,a2
   1ef00:	00050663          	beqz	a0,1ef0c <__swbuf_r+0x30>
   1ef04:	05052783          	lw	a5,80(a0)
   1ef08:	14078863          	beqz	a5,1f058 <__swbuf_r+0x17c>
   1ef0c:	01041703          	lh	a4,16(s0)
   1ef10:	02842783          	lw	a5,40(s0)
   1ef14:	03071693          	slli	a3,a4,0x30
   1ef18:	0306d693          	srli	a3,a3,0x30
   1ef1c:	00f42623          	sw	a5,12(s0)
   1ef20:	0086f793          	andi	a5,a3,8
   1ef24:	08078263          	beqz	a5,1efa8 <__swbuf_r+0xcc>
   1ef28:	01843783          	ld	a5,24(s0)
   1ef2c:	06078e63          	beqz	a5,1efa8 <__swbuf_r+0xcc>
   1ef30:	0ff4f993          	andi	s3,s1,255
   1ef34:	03269613          	slli	a2,a3,0x32
   1ef38:	00098493          	mv	s1,s3
   1ef3c:	08065e63          	bgez	a2,1efd8 <__swbuf_r+0xfc>
   1ef40:	00043703          	ld	a4,0(s0)
   1ef44:	02042683          	lw	a3,32(s0)
   1ef48:	40f707bb          	subw	a5,a4,a5
   1ef4c:	0ad7de63          	bge	a5,a3,1f008 <__swbuf_r+0x12c>
   1ef50:	00c42683          	lw	a3,12(s0)
   1ef54:	00170613          	addi	a2,a4,1
   1ef58:	00c43023          	sd	a2,0(s0)
   1ef5c:	fff6869b          	addiw	a3,a3,-1
   1ef60:	00d42623          	sw	a3,12(s0)
   1ef64:	01370023          	sb	s3,0(a4)
   1ef68:	02042703          	lw	a4,32(s0)
   1ef6c:	0017879b          	addiw	a5,a5,1
   1ef70:	0cf70863          	beq	a4,a5,1f040 <__swbuf_r+0x164>
   1ef74:	01045783          	lhu	a5,16(s0)
   1ef78:	0017f793          	andi	a5,a5,1
   1ef7c:	00078663          	beqz	a5,1ef88 <__swbuf_r+0xac>
   1ef80:	00a00793          	li	a5,10
   1ef84:	0af48e63          	beq	s1,a5,1f040 <__swbuf_r+0x164>
   1ef88:	02813083          	ld	ra,40(sp)
   1ef8c:	02013403          	ld	s0,32(sp)
   1ef90:	00048513          	mv	a0,s1
   1ef94:	01013903          	ld	s2,16(sp)
   1ef98:	01813483          	ld	s1,24(sp)
   1ef9c:	00813983          	ld	s3,8(sp)
   1efa0:	03010113          	addi	sp,sp,48
   1efa4:	00008067          	ret
   1efa8:	00040593          	mv	a1,s0
   1efac:	00090513          	mv	a0,s2
   1efb0:	ef9f30ef          	jal	ra,12ea8 <__swsetup_r>
   1efb4:	08051e63          	bnez	a0,1f050 <__swbuf_r+0x174>
   1efb8:	01041703          	lh	a4,16(s0)
   1efbc:	0ff4f993          	andi	s3,s1,255
   1efc0:	01843783          	ld	a5,24(s0)
   1efc4:	03071693          	slli	a3,a4,0x30
   1efc8:	0306d693          	srli	a3,a3,0x30
   1efcc:	03269613          	slli	a2,a3,0x32
   1efd0:	00098493          	mv	s1,s3
   1efd4:	f60646e3          	bltz	a2,1ef40 <__swbuf_r+0x64>
   1efd8:	0ac42683          	lw	a3,172(s0)
   1efdc:	00002637          	lui	a2,0x2
   1efe0:	00c76733          	or	a4,a4,a2
   1efe4:	ffffe637          	lui	a2,0xffffe
   1efe8:	fff60613          	addi	a2,a2,-1 # ffffffffffffdfff <__BSS_END__+0xfffffffffffd93df>
   1efec:	00c6f6b3          	and	a3,a3,a2
   1eff0:	00e41823          	sh	a4,16(s0)
   1eff4:	00043703          	ld	a4,0(s0)
   1eff8:	0ad42623          	sw	a3,172(s0)
   1effc:	02042683          	lw	a3,32(s0)
   1f000:	40f707bb          	subw	a5,a4,a5
   1f004:	f4d7c6e3          	blt	a5,a3,1ef50 <__swbuf_r+0x74>
   1f008:	00040593          	mv	a1,s0
   1f00c:	00090513          	mv	a0,s2
   1f010:	c2cf40ef          	jal	ra,1343c <_fflush_r>
   1f014:	02051e63          	bnez	a0,1f050 <__swbuf_r+0x174>
   1f018:	00043703          	ld	a4,0(s0)
   1f01c:	00c42683          	lw	a3,12(s0)
   1f020:	00100793          	li	a5,1
   1f024:	00170613          	addi	a2,a4,1
   1f028:	fff6869b          	addiw	a3,a3,-1
   1f02c:	00c43023          	sd	a2,0(s0)
   1f030:	00d42623          	sw	a3,12(s0)
   1f034:	01370023          	sb	s3,0(a4)
   1f038:	02042703          	lw	a4,32(s0)
   1f03c:	f2f71ce3          	bne	a4,a5,1ef74 <__swbuf_r+0x98>
   1f040:	00040593          	mv	a1,s0
   1f044:	00090513          	mv	a0,s2
   1f048:	bf4f40ef          	jal	ra,1343c <_fflush_r>
   1f04c:	f2050ee3          	beqz	a0,1ef88 <__swbuf_r+0xac>
   1f050:	fff00493          	li	s1,-1
   1f054:	f35ff06f          	j	1ef88 <__swbuf_r+0xac>
   1f058:	f8cf40ef          	jal	ra,137e4 <__sinit>
   1f05c:	eb1ff06f          	j	1ef0c <__swbuf_r+0x30>

000000000001f060 <__swbuf>:
   1f060:	75818793          	addi	a5,gp,1880 # 24b78 <_impure_ptr>
   1f064:	00058613          	mv	a2,a1
   1f068:	00050593          	mv	a1,a0
   1f06c:	0007b503          	ld	a0,0(a5)
   1f070:	e6dff06f          	j	1eedc <__swbuf_r>

000000000001f074 <_wcrtomb_r>:
   1f074:	fd010113          	addi	sp,sp,-48
   1f078:	02813023          	sd	s0,32(sp)
   1f07c:	00913c23          	sd	s1,24(sp)
   1f080:	d6018793          	addi	a5,gp,-672 # 24180 <__global_locale>
   1f084:	02113423          	sd	ra,40(sp)
   1f088:	00050413          	mv	s0,a0
   1f08c:	00068493          	mv	s1,a3
   1f090:	0e07b783          	ld	a5,224(a5)
   1f094:	02058263          	beqz	a1,1f0b8 <_wcrtomb_r+0x44>
   1f098:	000780e7          	jalr	a5
   1f09c:	fff00793          	li	a5,-1
   1f0a0:	02f50663          	beq	a0,a5,1f0cc <_wcrtomb_r+0x58>
   1f0a4:	02813083          	ld	ra,40(sp)
   1f0a8:	02013403          	ld	s0,32(sp)
   1f0ac:	01813483          	ld	s1,24(sp)
   1f0b0:	03010113          	addi	sp,sp,48
   1f0b4:	00008067          	ret
   1f0b8:	00000613          	li	a2,0
   1f0bc:	00010593          	mv	a1,sp
   1f0c0:	000780e7          	jalr	a5
   1f0c4:	fff00793          	li	a5,-1
   1f0c8:	fcf51ee3          	bne	a0,a5,1f0a4 <_wcrtomb_r+0x30>
   1f0cc:	0004a023          	sw	zero,0(s1)
   1f0d0:	08a00793          	li	a5,138
   1f0d4:	00f42023          	sw	a5,0(s0)
   1f0d8:	02813083          	ld	ra,40(sp)
   1f0dc:	02013403          	ld	s0,32(sp)
   1f0e0:	01813483          	ld	s1,24(sp)
   1f0e4:	03010113          	addi	sp,sp,48
   1f0e8:	00008067          	ret

000000000001f0ec <wcrtomb>:
   1f0ec:	fd010113          	addi	sp,sp,-48
   1f0f0:	75818793          	addi	a5,gp,1880 # 24b78 <_impure_ptr>
   1f0f4:	02813023          	sd	s0,32(sp)
   1f0f8:	00913c23          	sd	s1,24(sp)
   1f0fc:	0007b403          	ld	s0,0(a5)
   1f100:	02113423          	sd	ra,40(sp)
   1f104:	d6018793          	addi	a5,gp,-672 # 24180 <__global_locale>
   1f108:	00060493          	mv	s1,a2
   1f10c:	0e07b783          	ld	a5,224(a5)
   1f110:	00060693          	mv	a3,a2
   1f114:	02050863          	beqz	a0,1f144 <wcrtomb+0x58>
   1f118:	00058613          	mv	a2,a1
   1f11c:	00050593          	mv	a1,a0
   1f120:	00040513          	mv	a0,s0
   1f124:	000780e7          	jalr	a5
   1f128:	fff00793          	li	a5,-1
   1f12c:	02f50863          	beq	a0,a5,1f15c <wcrtomb+0x70>
   1f130:	02813083          	ld	ra,40(sp)
   1f134:	02013403          	ld	s0,32(sp)
   1f138:	01813483          	ld	s1,24(sp)
   1f13c:	03010113          	addi	sp,sp,48
   1f140:	00008067          	ret
   1f144:	00000613          	li	a2,0
   1f148:	00010593          	mv	a1,sp
   1f14c:	00040513          	mv	a0,s0
   1f150:	000780e7          	jalr	a5
   1f154:	fff00793          	li	a5,-1
   1f158:	fcf51ce3          	bne	a0,a5,1f130 <wcrtomb+0x44>
   1f15c:	0004a023          	sw	zero,0(s1)
   1f160:	08a00793          	li	a5,138
   1f164:	00f42023          	sw	a5,0(s0)
   1f168:	02813083          	ld	ra,40(sp)
   1f16c:	02013403          	ld	s0,32(sp)
   1f170:	01813483          	ld	s1,24(sp)
   1f174:	03010113          	addi	sp,sp,48
   1f178:	00008067          	ret

000000000001f17c <_close>:
   1f17c:	00000593          	li	a1,0
   1f180:	00000613          	li	a2,0
   1f184:	00000693          	li	a3,0
   1f188:	00000713          	li	a4,0
   1f18c:	00000793          	li	a5,0
   1f190:	03900893          	li	a7,57
   1f194:	00000073          	ecall
   1f198:	00054663          	bltz	a0,1f1a4 <_close+0x28>
   1f19c:	0005051b          	sext.w	a0,a0
   1f1a0:	00008067          	ret
   1f1a4:	ff010113          	addi	sp,sp,-16
   1f1a8:	00813023          	sd	s0,0(sp)
   1f1ac:	00113423          	sd	ra,8(sp)
   1f1b0:	00050413          	mv	s0,a0
   1f1b4:	314000ef          	jal	ra,1f4c8 <__errno>
   1f1b8:	408007bb          	negw	a5,s0
   1f1bc:	00813083          	ld	ra,8(sp)
   1f1c0:	00013403          	ld	s0,0(sp)
   1f1c4:	00f52023          	sw	a5,0(a0)
   1f1c8:	fff00513          	li	a0,-1
   1f1cc:	01010113          	addi	sp,sp,16
   1f1d0:	00008067          	ret

000000000001f1d4 <_exit>:
   1f1d4:	00000593          	li	a1,0
   1f1d8:	00000613          	li	a2,0
   1f1dc:	00000693          	li	a3,0
   1f1e0:	00000713          	li	a4,0
   1f1e4:	00000793          	li	a5,0
   1f1e8:	05d00893          	li	a7,93
   1f1ec:	00000073          	ecall
   1f1f0:	00054463          	bltz	a0,1f1f8 <_exit+0x24>
   1f1f4:	0000006f          	j	1f1f4 <_exit+0x20>
   1f1f8:	ff010113          	addi	sp,sp,-16
   1f1fc:	00813023          	sd	s0,0(sp)
   1f200:	00050413          	mv	s0,a0
   1f204:	00113423          	sd	ra,8(sp)
   1f208:	4080043b          	negw	s0,s0
   1f20c:	2bc000ef          	jal	ra,1f4c8 <__errno>
   1f210:	00852023          	sw	s0,0(a0)
   1f214:	0000006f          	j	1f214 <_exit+0x40>

000000000001f218 <_fstat>:
   1f218:	f6010113          	addi	sp,sp,-160
   1f21c:	08913423          	sd	s1,136(sp)
   1f220:	08113c23          	sd	ra,152(sp)
   1f224:	00058493          	mv	s1,a1
   1f228:	08813823          	sd	s0,144(sp)
   1f22c:	00000613          	li	a2,0
   1f230:	00010593          	mv	a1,sp
   1f234:	00000693          	li	a3,0
   1f238:	00000713          	li	a4,0
   1f23c:	00000793          	li	a5,0
   1f240:	05000893          	li	a7,80
   1f244:	00000073          	ecall
   1f248:	00050413          	mv	s0,a0
   1f24c:	02054663          	bltz	a0,1f278 <_fstat+0x60>
   1f250:	0005041b          	sext.w	s0,a0
   1f254:	00048513          	mv	a0,s1
   1f258:	00010593          	mv	a1,sp
   1f25c:	200000ef          	jal	ra,1f45c <_conv_stat>
   1f260:	00040513          	mv	a0,s0
   1f264:	09813083          	ld	ra,152(sp)
   1f268:	09013403          	ld	s0,144(sp)
   1f26c:	08813483          	ld	s1,136(sp)
   1f270:	0a010113          	addi	sp,sp,160
   1f274:	00008067          	ret
   1f278:	4080043b          	negw	s0,s0
   1f27c:	24c000ef          	jal	ra,1f4c8 <__errno>
   1f280:	00852023          	sw	s0,0(a0)
   1f284:	fff00413          	li	s0,-1
   1f288:	fcdff06f          	j	1f254 <_fstat+0x3c>

000000000001f28c <_isatty>:
   1f28c:	f8010113          	addi	sp,sp,-128
   1f290:	00810593          	addi	a1,sp,8
   1f294:	06113c23          	sd	ra,120(sp)
   1f298:	f81ff0ef          	jal	ra,1f218 <_fstat>
   1f29c:	fff00793          	li	a5,-1
   1f2a0:	00f50e63          	beq	a0,a5,1f2bc <_isatty+0x30>
   1f2a4:	00c12503          	lw	a0,12(sp)
   1f2a8:	07813083          	ld	ra,120(sp)
   1f2ac:	40d5551b          	sraiw	a0,a0,0xd
   1f2b0:	00157513          	andi	a0,a0,1
   1f2b4:	08010113          	addi	sp,sp,128
   1f2b8:	00008067          	ret
   1f2bc:	07813083          	ld	ra,120(sp)
   1f2c0:	00000513          	li	a0,0
   1f2c4:	08010113          	addi	sp,sp,128
   1f2c8:	00008067          	ret

000000000001f2cc <_lseek>:
   1f2cc:	ff010113          	addi	sp,sp,-16
   1f2d0:	00113423          	sd	ra,8(sp)
   1f2d4:	00813023          	sd	s0,0(sp)
   1f2d8:	00000693          	li	a3,0
   1f2dc:	00000713          	li	a4,0
   1f2e0:	00000793          	li	a5,0
   1f2e4:	03e00893          	li	a7,62
   1f2e8:	00000073          	ecall
   1f2ec:	00050413          	mv	s0,a0
   1f2f0:	00054c63          	bltz	a0,1f308 <_lseek+0x3c>
   1f2f4:	00040513          	mv	a0,s0
   1f2f8:	00813083          	ld	ra,8(sp)
   1f2fc:	00013403          	ld	s0,0(sp)
   1f300:	01010113          	addi	sp,sp,16
   1f304:	00008067          	ret
   1f308:	4080043b          	negw	s0,s0
   1f30c:	1bc000ef          	jal	ra,1f4c8 <__errno>
   1f310:	00852023          	sw	s0,0(a0)
   1f314:	fff00413          	li	s0,-1
   1f318:	fddff06f          	j	1f2f4 <_lseek+0x28>

000000000001f31c <_read>:
   1f31c:	ff010113          	addi	sp,sp,-16
   1f320:	00113423          	sd	ra,8(sp)
   1f324:	00813023          	sd	s0,0(sp)
   1f328:	00000693          	li	a3,0
   1f32c:	00000713          	li	a4,0
   1f330:	00000793          	li	a5,0
   1f334:	03f00893          	li	a7,63
   1f338:	00000073          	ecall
   1f33c:	00050413          	mv	s0,a0
   1f340:	00054c63          	bltz	a0,1f358 <_read+0x3c>
   1f344:	00040513          	mv	a0,s0
   1f348:	00813083          	ld	ra,8(sp)
   1f34c:	00013403          	ld	s0,0(sp)
   1f350:	01010113          	addi	sp,sp,16
   1f354:	00008067          	ret
   1f358:	4080043b          	negw	s0,s0
   1f35c:	16c000ef          	jal	ra,1f4c8 <__errno>
   1f360:	00852023          	sw	s0,0(a0)
   1f364:	fff00413          	li	s0,-1
   1f368:	fddff06f          	j	1f344 <_read+0x28>

000000000001f36c <_sbrk>:
   1f36c:	79018313          	addi	t1,gp,1936 # 24bb0 <heap_end.1900>
   1f370:	00033783          	ld	a5,0(t1)
   1f374:	ff010113          	addi	sp,sp,-16
   1f378:	00113423          	sd	ra,8(sp)
   1f37c:	00050813          	mv	a6,a0
   1f380:	02079863          	bnez	a5,1f3b0 <_sbrk+0x44>
   1f384:	00000513          	li	a0,0
   1f388:	00000593          	li	a1,0
   1f38c:	00000613          	li	a2,0
   1f390:	00000693          	li	a3,0
   1f394:	00000713          	li	a4,0
   1f398:	0d600893          	li	a7,214
   1f39c:	00000073          	ecall
   1f3a0:	fff00793          	li	a5,-1
   1f3a4:	04f50663          	beq	a0,a5,1f3f0 <_sbrk+0x84>
   1f3a8:	00050793          	mv	a5,a0
   1f3ac:	78a1b823          	sd	a0,1936(gp) # 24bb0 <heap_end.1900>
   1f3b0:	00f80533          	add	a0,a6,a5
   1f3b4:	00000593          	li	a1,0
   1f3b8:	00000613          	li	a2,0
   1f3bc:	00000693          	li	a3,0
   1f3c0:	00000713          	li	a4,0
   1f3c4:	00000793          	li	a5,0
   1f3c8:	0d600893          	li	a7,214
   1f3cc:	00000073          	ecall
   1f3d0:	00033783          	ld	a5,0(t1)
   1f3d4:	00f80833          	add	a6,a6,a5
   1f3d8:	01051c63          	bne	a0,a6,1f3f0 <_sbrk+0x84>
   1f3dc:	00813083          	ld	ra,8(sp)
   1f3e0:	78a1b823          	sd	a0,1936(gp) # 24bb0 <heap_end.1900>
   1f3e4:	00078513          	mv	a0,a5
   1f3e8:	01010113          	addi	sp,sp,16
   1f3ec:	00008067          	ret
   1f3f0:	0d8000ef          	jal	ra,1f4c8 <__errno>
   1f3f4:	00813083          	ld	ra,8(sp)
   1f3f8:	00c00793          	li	a5,12
   1f3fc:	00f52023          	sw	a5,0(a0)
   1f400:	fff00513          	li	a0,-1
   1f404:	01010113          	addi	sp,sp,16
   1f408:	00008067          	ret

000000000001f40c <_write>:
   1f40c:	ff010113          	addi	sp,sp,-16
   1f410:	00113423          	sd	ra,8(sp)
   1f414:	00813023          	sd	s0,0(sp)
   1f418:	00000693          	li	a3,0
   1f41c:	00000713          	li	a4,0
   1f420:	00000793          	li	a5,0
   1f424:	04000893          	li	a7,64
   1f428:	00000073          	ecall
   1f42c:	00050413          	mv	s0,a0
   1f430:	00054c63          	bltz	a0,1f448 <_write+0x3c>
   1f434:	00040513          	mv	a0,s0
   1f438:	00813083          	ld	ra,8(sp)
   1f43c:	00013403          	ld	s0,0(sp)
   1f440:	01010113          	addi	sp,sp,16
   1f444:	00008067          	ret
   1f448:	4080043b          	negw	s0,s0
   1f44c:	07c000ef          	jal	ra,1f4c8 <__errno>
   1f450:	00852023          	sw	s0,0(a0)
   1f454:	fff00413          	li	s0,-1
   1f458:	fddff06f          	j	1f434 <_write+0x28>

000000000001f45c <_conv_stat>:
   1f45c:	0005b383          	ld	t2,0(a1)
   1f460:	0085b283          	ld	t0,8(a1)
   1f464:	0105af83          	lw	t6,16(a1)
   1f468:	0145af03          	lw	t5,20(a1)
   1f46c:	0185ae83          	lw	t4,24(a1)
   1f470:	01c5ae03          	lw	t3,28(a1)
   1f474:	0205b303          	ld	t1,32(a1)
   1f478:	0305b883          	ld	a7,48(a1)
   1f47c:	0405b803          	ld	a6,64(a1)
   1f480:	0385a603          	lw	a2,56(a1)
   1f484:	0485b683          	ld	a3,72(a1)
   1f488:	0585b703          	ld	a4,88(a1)
   1f48c:	0685b783          	ld	a5,104(a1)
   1f490:	00751023          	sh	t2,0(a0)
   1f494:	00551123          	sh	t0,2(a0)
   1f498:	01f52223          	sw	t6,4(a0)
   1f49c:	01e51423          	sh	t5,8(a0)
   1f4a0:	01d51523          	sh	t4,10(a0)
   1f4a4:	01c51623          	sh	t3,12(a0)
   1f4a8:	00651723          	sh	t1,14(a0)
   1f4ac:	01153823          	sd	a7,16(a0)
   1f4b0:	05053823          	sd	a6,80(a0)
   1f4b4:	04c53423          	sd	a2,72(a0)
   1f4b8:	00d53c23          	sd	a3,24(a0)
   1f4bc:	02e53423          	sd	a4,40(a0)
   1f4c0:	02f53c23          	sd	a5,56(a0)
   1f4c4:	00008067          	ret

000000000001f4c8 <__errno>:
   1f4c8:	75818793          	addi	a5,gp,1880 # 24b78 <_impure_ptr>
   1f4cc:	0007b503          	ld	a0,0(a5)
   1f4d0:	00008067          	ret

000000000001f4d4 <__divdf3>:
   1f4d4:	f9010113          	addi	sp,sp,-112
   1f4d8:	01913c23          	sd	s9,24(sp)
   1f4dc:	06113423          	sd	ra,104(sp)
   1f4e0:	06813023          	sd	s0,96(sp)
   1f4e4:	04913c23          	sd	s1,88(sp)
   1f4e8:	05213823          	sd	s2,80(sp)
   1f4ec:	05313423          	sd	s3,72(sp)
   1f4f0:	05413023          	sd	s4,64(sp)
   1f4f4:	03513c23          	sd	s5,56(sp)
   1f4f8:	03613823          	sd	s6,48(sp)
   1f4fc:	03713423          	sd	s7,40(sp)
   1f500:	03813023          	sd	s8,32(sp)
   1f504:	01a13823          	sd	s10,16(sp)
   1f508:	01b13423          	sd	s11,8(sp)
   1f50c:	00058c93          	mv	s9,a1
   1f510:	00202b73          	frrm	s6
   1f514:	03455993          	srli	s3,a0,0x34
   1f518:	00c51913          	slli	s2,a0,0xc
   1f51c:	7ff9f993          	andi	s3,s3,2047
   1f520:	000b0b1b          	sext.w	s6,s6
   1f524:	00c95913          	srli	s2,s2,0xc
   1f528:	03f55a93          	srli	s5,a0,0x3f
   1f52c:	02098663          	beqz	s3,1f558 <__divdf3+0x84>
   1f530:	7ff00793          	li	a5,2047
   1f534:	04f98463          	beq	s3,a5,1f57c <__divdf3+0xa8>
   1f538:	00100793          	li	a5,1
   1f53c:	00391913          	slli	s2,s2,0x3
   1f540:	03779793          	slli	a5,a5,0x37
   1f544:	00f96933          	or	s2,s2,a5
   1f548:	c0198993          	addi	s3,s3,-1023
   1f54c:	00000c13          	li	s8,0
   1f550:	00000493          	li	s1,0
   1f554:	0400006f          	j	1f594 <__divdf3+0xc0>
   1f558:	0a090663          	beqz	s2,1f604 <__divdf3+0x130>
   1f55c:	00090513          	mv	a0,s2
   1f560:	e71f00ef          	jal	ra,103d0 <__clzdi2>
   1f564:	0005051b          	sext.w	a0,a0
   1f568:	ff85079b          	addiw	a5,a0,-8
   1f56c:	c0d00993          	li	s3,-1011
   1f570:	00f91933          	sll	s2,s2,a5
   1f574:	40a989b3          	sub	s3,s3,a0
   1f578:	fd5ff06f          	j	1f54c <__divdf3+0x78>
   1f57c:	08090a63          	beqz	s2,1f610 <__divdf3+0x13c>
   1f580:	00c91793          	slli	a5,s2,0xc
   1f584:	7ff00993          	li	s3,2047
   1f588:	00300c13          	li	s8,3
   1f58c:	01000493          	li	s1,16
   1f590:	fc07c0e3          	bltz	a5,1f550 <__divdf3+0x7c>
   1f594:	034cd513          	srli	a0,s9,0x34
   1f598:	00cc9413          	slli	s0,s9,0xc
   1f59c:	7ff57513          	andi	a0,a0,2047
   1f5a0:	00c45413          	srli	s0,s0,0xc
   1f5a4:	03fcdc93          	srli	s9,s9,0x3f
   1f5a8:	06050a63          	beqz	a0,1f61c <__divdf3+0x148>
   1f5ac:	7ff00793          	li	a5,2047
   1f5b0:	08f50863          	beq	a0,a5,1f640 <__divdf3+0x16c>
   1f5b4:	00100793          	li	a5,1
   1f5b8:	00341413          	slli	s0,s0,0x3
   1f5bc:	03779793          	slli	a5,a5,0x37
   1f5c0:	00f46433          	or	s0,s0,a5
   1f5c4:	c0150513          	addi	a0,a0,-1023
   1f5c8:	00000793          	li	a5,0
   1f5cc:	002c1713          	slli	a4,s8,0x2
   1f5d0:	00f76733          	or	a4,a4,a5
   1f5d4:	fff70713          	addi	a4,a4,-1
   1f5d8:	00e00693          	li	a3,14
   1f5dc:	019aca33          	xor	s4,s5,s9
   1f5e0:	40a98bb3          	sub	s7,s3,a0
   1f5e4:	08e6ec63          	bltu	a3,a4,1f67c <__divdf3+0x1a8>
   1f5e8:	00003697          	auipc	a3,0x3
   1f5ec:	38068693          	addi	a3,a3,896 # 22968 <zeroes.4503+0x10>
   1f5f0:	00271713          	slli	a4,a4,0x2
   1f5f4:	00d70733          	add	a4,a4,a3
   1f5f8:	00072703          	lw	a4,0(a4)
   1f5fc:	00d70733          	add	a4,a4,a3
   1f600:	00070067          	jr	a4
   1f604:	00000993          	li	s3,0
   1f608:	00100c13          	li	s8,1
   1f60c:	f45ff06f          	j	1f550 <__divdf3+0x7c>
   1f610:	7ff00993          	li	s3,2047
   1f614:	00200c13          	li	s8,2
   1f618:	f39ff06f          	j	1f550 <__divdf3+0x7c>
   1f61c:	04040063          	beqz	s0,1f65c <__divdf3+0x188>
   1f620:	00040513          	mv	a0,s0
   1f624:	dadf00ef          	jal	ra,103d0 <__clzdi2>
   1f628:	0005051b          	sext.w	a0,a0
   1f62c:	ff85079b          	addiw	a5,a0,-8
   1f630:	00f41433          	sll	s0,s0,a5
   1f634:	c0d00793          	li	a5,-1011
   1f638:	40a78533          	sub	a0,a5,a0
   1f63c:	f8dff06f          	j	1f5c8 <__divdf3+0xf4>
   1f640:	02040463          	beqz	s0,1f668 <__divdf3+0x194>
   1f644:	00c41793          	slli	a5,s0,0xc
   1f648:	7ff00513          	li	a0,2047
   1f64c:	0207c463          	bltz	a5,1f674 <__divdf3+0x1a0>
   1f650:	00300793          	li	a5,3
   1f654:	01000493          	li	s1,16
   1f658:	f75ff06f          	j	1f5cc <__divdf3+0xf8>
   1f65c:	00000513          	li	a0,0
   1f660:	00100793          	li	a5,1
   1f664:	f69ff06f          	j	1f5cc <__divdf3+0xf8>
   1f668:	7ff00513          	li	a0,2047
   1f66c:	00200793          	li	a5,2
   1f670:	f5dff06f          	j	1f5cc <__divdf3+0xf8>
   1f674:	00300793          	li	a5,3
   1f678:	f55ff06f          	j	1f5cc <__divdf3+0xf8>
   1f67c:	00841c93          	slli	s9,s0,0x8
   1f680:	1a897e63          	bgeu	s2,s0,1f83c <__divdf3+0x368>
   1f684:	fffb8b93          	addi	s7,s7,-1
   1f688:	00000993          	li	s3,0
   1f68c:	020cdc13          	srli	s8,s9,0x20
   1f690:	fff00413          	li	s0,-1
   1f694:	000c0593          	mv	a1,s8
   1f698:	02045413          	srli	s0,s0,0x20
   1f69c:	00090513          	mv	a0,s2
   1f6a0:	4d8020ef          	jal	ra,21b78 <__udivdi3>
   1f6a4:	008cf433          	and	s0,s9,s0
   1f6a8:	00050593          	mv	a1,a0
   1f6ac:	00050d93          	mv	s11,a0
   1f6b0:	00040513          	mv	a0,s0
   1f6b4:	458020ef          	jal	ra,21b0c <__muldi3>
   1f6b8:	00050d13          	mv	s10,a0
   1f6bc:	000c0593          	mv	a1,s8
   1f6c0:	00090513          	mv	a0,s2
   1f6c4:	4fc020ef          	jal	ra,21bc0 <__umoddi3>
   1f6c8:	02051513          	slli	a0,a0,0x20
   1f6cc:	0209d993          	srli	s3,s3,0x20
   1f6d0:	00a9e533          	or	a0,s3,a0
   1f6d4:	000d8a93          	mv	s5,s11
   1f6d8:	01a57e63          	bgeu	a0,s10,1f6f4 <__divdf3+0x220>
   1f6dc:	01950533          	add	a0,a0,s9
   1f6e0:	fffd8a93          	addi	s5,s11,-1
   1f6e4:	01956863          	bltu	a0,s9,1f6f4 <__divdf3+0x220>
   1f6e8:	01a57663          	bgeu	a0,s10,1f6f4 <__divdf3+0x220>
   1f6ec:	ffed8a93          	addi	s5,s11,-2
   1f6f0:	01950533          	add	a0,a0,s9
   1f6f4:	41a50933          	sub	s2,a0,s10
   1f6f8:	000c0593          	mv	a1,s8
   1f6fc:	00090513          	mv	a0,s2
   1f700:	478020ef          	jal	ra,21b78 <__udivdi3>
   1f704:	00050593          	mv	a1,a0
   1f708:	00050d13          	mv	s10,a0
   1f70c:	00040513          	mv	a0,s0
   1f710:	3fc020ef          	jal	ra,21b0c <__muldi3>
   1f714:	00050993          	mv	s3,a0
   1f718:	000c0593          	mv	a1,s8
   1f71c:	00090513          	mv	a0,s2
   1f720:	4a0020ef          	jal	ra,21bc0 <__umoddi3>
   1f724:	02051513          	slli	a0,a0,0x20
   1f728:	000d0793          	mv	a5,s10
   1f72c:	01357e63          	bgeu	a0,s3,1f748 <__divdf3+0x274>
   1f730:	01950533          	add	a0,a0,s9
   1f734:	fffd0793          	addi	a5,s10,-1
   1f738:	01956863          	bltu	a0,s9,1f748 <__divdf3+0x274>
   1f73c:	01357663          	bgeu	a0,s3,1f748 <__divdf3+0x274>
   1f740:	ffed0793          	addi	a5,s10,-2
   1f744:	01950533          	add	a0,a0,s9
   1f748:	020a9413          	slli	s0,s5,0x20
   1f74c:	41350533          	sub	a0,a0,s3
   1f750:	00f46433          	or	s0,s0,a5
   1f754:	00a03533          	snez	a0,a0
   1f758:	00a46433          	or	s0,s0,a0
   1f75c:	3ffb8513          	addi	a0,s7,1023
   1f760:	16a05663          	blez	a0,1f8cc <__divdf3+0x3f8>
   1f764:	00747793          	andi	a5,s0,7
   1f768:	02078663          	beqz	a5,1f794 <__divdf3+0x2c0>
   1f76c:	00200793          	li	a5,2
   1f770:	0014e493          	ori	s1,s1,1
   1f774:	12fb0c63          	beq	s6,a5,1f8ac <__divdf3+0x3d8>
   1f778:	00300793          	li	a5,3
   1f77c:	12fb0263          	beq	s6,a5,1f8a0 <__divdf3+0x3cc>
   1f780:	000b1a63          	bnez	s6,1f794 <__divdf3+0x2c0>
   1f784:	00f47793          	andi	a5,s0,15
   1f788:	00400713          	li	a4,4
   1f78c:	00e78463          	beq	a5,a4,1f794 <__divdf3+0x2c0>
   1f790:	00440413          	addi	s0,s0,4
   1f794:	00741793          	slli	a5,s0,0x7
   1f798:	0007dc63          	bgez	a5,1f7b0 <__divdf3+0x2dc>
   1f79c:	fff00793          	li	a5,-1
   1f7a0:	03879793          	slli	a5,a5,0x38
   1f7a4:	fff78793          	addi	a5,a5,-1
   1f7a8:	00f47433          	and	s0,s0,a5
   1f7ac:	400b8513          	addi	a0,s7,1024
   1f7b0:	7fe00793          	li	a5,2046
   1f7b4:	00345413          	srli	s0,s0,0x3
   1f7b8:	02a7d263          	bge	a5,a0,1f7dc <__divdf3+0x308>
   1f7bc:	00200793          	li	a5,2
   1f7c0:	10fb0263          	beq	s6,a5,1f8c4 <__divdf3+0x3f0>
   1f7c4:	00300793          	li	a5,3
   1f7c8:	0efb0663          	beq	s6,a5,1f8b4 <__divdf3+0x3e0>
   1f7cc:	0e0b0663          	beqz	s6,1f8b8 <__divdf3+0x3e4>
   1f7d0:	fff00413          	li	s0,-1
   1f7d4:	7fe00513          	li	a0,2046
   1f7d8:	0054e493          	ori	s1,s1,5
   1f7dc:	00c41413          	slli	s0,s0,0xc
   1f7e0:	7ff57513          	andi	a0,a0,2047
   1f7e4:	03451513          	slli	a0,a0,0x34
   1f7e8:	00c45413          	srli	s0,s0,0xc
   1f7ec:	03fa1793          	slli	a5,s4,0x3f
   1f7f0:	00a46433          	or	s0,s0,a0
   1f7f4:	00f46533          	or	a0,s0,a5
   1f7f8:	00048463          	beqz	s1,1f800 <__divdf3+0x32c>
   1f7fc:	0014a073          	csrs	fflags,s1
   1f800:	06813083          	ld	ra,104(sp)
   1f804:	06013403          	ld	s0,96(sp)
   1f808:	05813483          	ld	s1,88(sp)
   1f80c:	05013903          	ld	s2,80(sp)
   1f810:	04813983          	ld	s3,72(sp)
   1f814:	04013a03          	ld	s4,64(sp)
   1f818:	03813a83          	ld	s5,56(sp)
   1f81c:	03013b03          	ld	s6,48(sp)
   1f820:	02813b83          	ld	s7,40(sp)
   1f824:	02013c03          	ld	s8,32(sp)
   1f828:	01813c83          	ld	s9,24(sp)
   1f82c:	01013d03          	ld	s10,16(sp)
   1f830:	00813d83          	ld	s11,8(sp)
   1f834:	07010113          	addi	sp,sp,112
   1f838:	00008067          	ret
   1f83c:	03f91993          	slli	s3,s2,0x3f
   1f840:	00195913          	srli	s2,s2,0x1
   1f844:	e49ff06f          	j	1f68c <__divdf3+0x1b8>
   1f848:	000a8a13          	mv	s4,s5
   1f84c:	00090413          	mv	s0,s2
   1f850:	000c0793          	mv	a5,s8
   1f854:	00200713          	li	a4,2
   1f858:	02e78463          	beq	a5,a4,1f880 <__divdf3+0x3ac>
   1f85c:	00300713          	li	a4,3
   1f860:	1ce78a63          	beq	a5,a4,1fa34 <__divdf3+0x560>
   1f864:	00100713          	li	a4,1
   1f868:	eee79ae3          	bne	a5,a4,1f75c <__divdf3+0x288>
   1f86c:	00000413          	li	s0,0
   1f870:	1980006f          	j	1fa08 <__divdf3+0x534>
   1f874:	000c8a13          	mv	s4,s9
   1f878:	fddff06f          	j	1f854 <__divdf3+0x380>
   1f87c:	0084e493          	ori	s1,s1,8
   1f880:	00000413          	li	s0,0
   1f884:	7ff00513          	li	a0,2047
   1f888:	f55ff06f          	j	1f7dc <__divdf3+0x308>
   1f88c:	00100413          	li	s0,1
   1f890:	03341413          	slli	s0,s0,0x33
   1f894:	00000a13          	li	s4,0
   1f898:	00300793          	li	a5,3
   1f89c:	fb9ff06f          	j	1f854 <__divdf3+0x380>
   1f8a0:	ee0a1ae3          	bnez	s4,1f794 <__divdf3+0x2c0>
   1f8a4:	00840413          	addi	s0,s0,8
   1f8a8:	eedff06f          	j	1f794 <__divdf3+0x2c0>
   1f8ac:	ee0a04e3          	beqz	s4,1f794 <__divdf3+0x2c0>
   1f8b0:	ff5ff06f          	j	1f8a4 <__divdf3+0x3d0>
   1f8b4:	f00a1ee3          	bnez	s4,1f7d0 <__divdf3+0x2fc>
   1f8b8:	00000413          	li	s0,0
   1f8bc:	7ff00513          	li	a0,2047
   1f8c0:	f19ff06f          	j	1f7d8 <__divdf3+0x304>
   1f8c4:	fe0a1ae3          	bnez	s4,1f8b8 <__divdf3+0x3e4>
   1f8c8:	f09ff06f          	j	1f7d0 <__divdf3+0x2fc>
   1f8cc:	00100713          	li	a4,1
   1f8d0:	04051263          	bnez	a0,1f914 <__divdf3+0x440>
   1f8d4:	00747793          	andi	a5,s0,7
   1f8d8:	00040713          	mv	a4,s0
   1f8dc:	02078663          	beqz	a5,1f908 <__divdf3+0x434>
   1f8e0:	00200793          	li	a5,2
   1f8e4:	0014e493          	ori	s1,s1,1
   1f8e8:	0afb0a63          	beq	s6,a5,1f99c <__divdf3+0x4c8>
   1f8ec:	00300793          	li	a5,3
   1f8f0:	0afb0063          	beq	s6,a5,1f990 <__divdf3+0x4bc>
   1f8f4:	000b1a63          	bnez	s6,1f908 <__divdf3+0x434>
   1f8f8:	00f47793          	andi	a5,s0,15
   1f8fc:	00400693          	li	a3,4
   1f900:	00d78463          	beq	a5,a3,1f908 <__divdf3+0x434>
   1f904:	00440713          	addi	a4,s0,4
   1f908:	03875713          	srli	a4,a4,0x38
   1f90c:	00174713          	xori	a4,a4,1
   1f910:	00177713          	andi	a4,a4,1
   1f914:	00100693          	li	a3,1
   1f918:	40a68533          	sub	a0,a3,a0
   1f91c:	03800793          	li	a5,56
   1f920:	0aa7c863          	blt	a5,a0,1f9d0 <__divdf3+0x4fc>
   1f924:	0005069b          	sext.w	a3,a0
   1f928:	04000513          	li	a0,64
   1f92c:	40d5053b          	subw	a0,a0,a3
   1f930:	00d457b3          	srl	a5,s0,a3
   1f934:	00a41433          	sll	s0,s0,a0
   1f938:	00803433          	snez	s0,s0
   1f93c:	0087e433          	or	s0,a5,s0
   1f940:	00747793          	andi	a5,s0,7
   1f944:	02078663          	beqz	a5,1f970 <__divdf3+0x49c>
   1f948:	00200793          	li	a5,2
   1f94c:	0014e493          	ori	s1,s1,1
   1f950:	06fb0063          	beq	s6,a5,1f9b0 <__divdf3+0x4dc>
   1f954:	00300793          	li	a5,3
   1f958:	04fb0663          	beq	s6,a5,1f9a4 <__divdf3+0x4d0>
   1f95c:	000b1a63          	bnez	s6,1f970 <__divdf3+0x49c>
   1f960:	00f47793          	andi	a5,s0,15
   1f964:	00400693          	li	a3,4
   1f968:	00d78463          	beq	a5,a3,1f970 <__divdf3+0x49c>
   1f96c:	00440413          	addi	s0,s0,4
   1f970:	00841793          	slli	a5,s0,0x8
   1f974:	0407d263          	bgez	a5,1f9b8 <__divdf3+0x4e4>
   1f978:	0014e493          	ori	s1,s1,1
   1f97c:	00000413          	li	s0,0
   1f980:	00100513          	li	a0,1
   1f984:	e4070ce3          	beqz	a4,1f7dc <__divdf3+0x308>
   1f988:	0024e493          	ori	s1,s1,2
   1f98c:	e51ff06f          	j	1f7dc <__divdf3+0x308>
   1f990:	f60a1ce3          	bnez	s4,1f908 <__divdf3+0x434>
   1f994:	00840713          	addi	a4,s0,8
   1f998:	f71ff06f          	j	1f908 <__divdf3+0x434>
   1f99c:	f60a06e3          	beqz	s4,1f908 <__divdf3+0x434>
   1f9a0:	ff5ff06f          	j	1f994 <__divdf3+0x4c0>
   1f9a4:	fc0a16e3          	bnez	s4,1f970 <__divdf3+0x49c>
   1f9a8:	00840413          	addi	s0,s0,8
   1f9ac:	fc5ff06f          	j	1f970 <__divdf3+0x49c>
   1f9b0:	fc0a00e3          	beqz	s4,1f970 <__divdf3+0x49c>
   1f9b4:	ff5ff06f          	j	1f9a8 <__divdf3+0x4d4>
   1f9b8:	00345413          	srli	s0,s0,0x3
   1f9bc:	00000513          	li	a0,0
   1f9c0:	e0070ee3          	beqz	a4,1f7dc <__divdf3+0x308>
   1f9c4:	0014f793          	andi	a5,s1,1
   1f9c8:	e0078ae3          	beqz	a5,1f7dc <__divdf3+0x308>
   1f9cc:	fbdff06f          	j	1f988 <__divdf3+0x4b4>
   1f9d0:	02040a63          	beqz	s0,1fa04 <__divdf3+0x530>
   1f9d4:	00200793          	li	a5,2
   1f9d8:	0014e493          	ori	s1,s1,1
   1f9dc:	02fb0a63          	beq	s6,a5,1fa10 <__divdf3+0x53c>
   1f9e0:	00300793          	li	a5,3
   1f9e4:	00fb0a63          	beq	s6,a5,1f9f8 <__divdf3+0x524>
   1f9e8:	00500413          	li	s0,5
   1f9ec:	000b0a63          	beqz	s6,1fa00 <__divdf3+0x52c>
   1f9f0:	00100413          	li	s0,1
   1f9f4:	00c0006f          	j	1fa00 <__divdf3+0x52c>
   1f9f8:	00900413          	li	s0,9
   1f9fc:	fe0a1ae3          	bnez	s4,1f9f0 <__divdf3+0x51c>
   1fa00:	00345413          	srli	s0,s0,0x3
   1fa04:	0024e493          	ori	s1,s1,2
   1fa08:	00000513          	li	a0,0
   1fa0c:	dd1ff06f          	j	1f7dc <__divdf3+0x308>
   1fa10:	00900413          	li	s0,9
   1fa14:	fe0a16e3          	bnez	s4,1fa00 <__divdf3+0x52c>
   1fa18:	fd9ff06f          	j	1f9f0 <__divdf3+0x51c>
   1fa1c:	00100413          	li	s0,1
   1fa20:	03341413          	slli	s0,s0,0x33
   1fa24:	7ff00513          	li	a0,2047
   1fa28:	00000a13          	li	s4,0
   1fa2c:	01000493          	li	s1,16
   1fa30:	dadff06f          	j	1f7dc <__divdf3+0x308>
   1fa34:	00100413          	li	s0,1
   1fa38:	03341413          	slli	s0,s0,0x33
   1fa3c:	7ff00513          	li	a0,2047
   1fa40:	00000a13          	li	s4,0
   1fa44:	d99ff06f          	j	1f7dc <__divdf3+0x308>

000000000001fa48 <__muldf3>:
   1fa48:	fb010113          	addi	sp,sp,-80
   1fa4c:	01713423          	sd	s7,8(sp)
   1fa50:	04113423          	sd	ra,72(sp)
   1fa54:	04813023          	sd	s0,64(sp)
   1fa58:	02913c23          	sd	s1,56(sp)
   1fa5c:	03213823          	sd	s2,48(sp)
   1fa60:	03313423          	sd	s3,40(sp)
   1fa64:	03413023          	sd	s4,32(sp)
   1fa68:	01513c23          	sd	s5,24(sp)
   1fa6c:	01613823          	sd	s6,16(sp)
   1fa70:	00058b93          	mv	s7,a1
   1fa74:	00202af3          	frrm	s5
   1fa78:	03455993          	srli	s3,a0,0x34
   1fa7c:	00c51913          	slli	s2,a0,0xc
   1fa80:	7ff9f993          	andi	s3,s3,2047
   1fa84:	000a8a9b          	sext.w	s5,s5
   1fa88:	00c95913          	srli	s2,s2,0xc
   1fa8c:	03f55a13          	srli	s4,a0,0x3f
   1fa90:	02098663          	beqz	s3,1fabc <__muldf3+0x74>
   1fa94:	7ff00793          	li	a5,2047
   1fa98:	04f98463          	beq	s3,a5,1fae0 <__muldf3+0x98>
   1fa9c:	00100793          	li	a5,1
   1faa0:	00391913          	slli	s2,s2,0x3
   1faa4:	03779793          	slli	a5,a5,0x37
   1faa8:	00f96933          	or	s2,s2,a5
   1faac:	c0198993          	addi	s3,s3,-1023
   1fab0:	00000b13          	li	s6,0
   1fab4:	00000493          	li	s1,0
   1fab8:	0400006f          	j	1faf8 <__muldf3+0xb0>
   1fabc:	0a090863          	beqz	s2,1fb6c <__muldf3+0x124>
   1fac0:	00090513          	mv	a0,s2
   1fac4:	90df00ef          	jal	ra,103d0 <__clzdi2>
   1fac8:	0005051b          	sext.w	a0,a0
   1facc:	ff85079b          	addiw	a5,a0,-8
   1fad0:	c0d00993          	li	s3,-1011
   1fad4:	00f91933          	sll	s2,s2,a5
   1fad8:	40a989b3          	sub	s3,s3,a0
   1fadc:	fd5ff06f          	j	1fab0 <__muldf3+0x68>
   1fae0:	08090c63          	beqz	s2,1fb78 <__muldf3+0x130>
   1fae4:	00c91793          	slli	a5,s2,0xc
   1fae8:	7ff00993          	li	s3,2047
   1faec:	00300b13          	li	s6,3
   1faf0:	01000493          	li	s1,16
   1faf4:	fc07c0e3          	bltz	a5,1fab4 <__muldf3+0x6c>
   1faf8:	034bd513          	srli	a0,s7,0x34
   1fafc:	00cb9413          	slli	s0,s7,0xc
   1fb00:	7ff57513          	andi	a0,a0,2047
   1fb04:	00c45413          	srli	s0,s0,0xc
   1fb08:	03fbdb93          	srli	s7,s7,0x3f
   1fb0c:	06050c63          	beqz	a0,1fb84 <__muldf3+0x13c>
   1fb10:	7ff00793          	li	a5,2047
   1fb14:	08f50a63          	beq	a0,a5,1fba8 <__muldf3+0x160>
   1fb18:	00100793          	li	a5,1
   1fb1c:	00341413          	slli	s0,s0,0x3
   1fb20:	03779793          	slli	a5,a5,0x37
   1fb24:	00f46433          	or	s0,s0,a5
   1fb28:	c0150513          	addi	a0,a0,-1023
   1fb2c:	00000713          	li	a4,0
   1fb30:	002b1693          	slli	a3,s6,0x2
   1fb34:	00e6e6b3          	or	a3,a3,a4
   1fb38:	00a989b3          	add	s3,s3,a0
   1fb3c:	fff68693          	addi	a3,a3,-1
   1fb40:	00e00613          	li	a2,14
   1fb44:	017a47b3          	xor	a5,s4,s7
   1fb48:	00198813          	addi	a6,s3,1
   1fb4c:	0ed66a63          	bltu	a2,a3,1fc40 <__muldf3+0x1f8>
   1fb50:	00003617          	auipc	a2,0x3
   1fb54:	e5460613          	addi	a2,a2,-428 # 229a4 <zeroes.4503+0x4c>
   1fb58:	00269693          	slli	a3,a3,0x2
   1fb5c:	00c686b3          	add	a3,a3,a2
   1fb60:	0006a683          	lw	a3,0(a3)
   1fb64:	00c686b3          	add	a3,a3,a2
   1fb68:	00068067          	jr	a3
   1fb6c:	00000993          	li	s3,0
   1fb70:	00100b13          	li	s6,1
   1fb74:	f41ff06f          	j	1fab4 <__muldf3+0x6c>
   1fb78:	7ff00993          	li	s3,2047
   1fb7c:	00200b13          	li	s6,2
   1fb80:	f35ff06f          	j	1fab4 <__muldf3+0x6c>
   1fb84:	04040063          	beqz	s0,1fbc4 <__muldf3+0x17c>
   1fb88:	00040513          	mv	a0,s0
   1fb8c:	845f00ef          	jal	ra,103d0 <__clzdi2>
   1fb90:	0005051b          	sext.w	a0,a0
   1fb94:	ff85079b          	addiw	a5,a0,-8
   1fb98:	00f41433          	sll	s0,s0,a5
   1fb9c:	c0d00793          	li	a5,-1011
   1fba0:	40a78533          	sub	a0,a5,a0
   1fba4:	f89ff06f          	j	1fb2c <__muldf3+0xe4>
   1fba8:	02040463          	beqz	s0,1fbd0 <__muldf3+0x188>
   1fbac:	00c41793          	slli	a5,s0,0xc
   1fbb0:	7ff00513          	li	a0,2047
   1fbb4:	00300713          	li	a4,3
   1fbb8:	f607cce3          	bltz	a5,1fb30 <__muldf3+0xe8>
   1fbbc:	01000493          	li	s1,16
   1fbc0:	f71ff06f          	j	1fb30 <__muldf3+0xe8>
   1fbc4:	00000513          	li	a0,0
   1fbc8:	00100713          	li	a4,1
   1fbcc:	f65ff06f          	j	1fb30 <__muldf3+0xe8>
   1fbd0:	7ff00513          	li	a0,2047
   1fbd4:	00200713          	li	a4,2
   1fbd8:	f59ff06f          	j	1fb30 <__muldf3+0xe8>
   1fbdc:	00100413          	li	s0,1
   1fbe0:	03341413          	slli	s0,s0,0x33
   1fbe4:	7ff00513          	li	a0,2047
   1fbe8:	00000793          	li	a5,0
   1fbec:	01000493          	li	s1,16
   1fbf0:	00c41413          	slli	s0,s0,0xc
   1fbf4:	7ff57513          	andi	a0,a0,2047
   1fbf8:	03451513          	slli	a0,a0,0x34
   1fbfc:	00c45413          	srli	s0,s0,0xc
   1fc00:	03f79793          	slli	a5,a5,0x3f
   1fc04:	00a46433          	or	s0,s0,a0
   1fc08:	00f46533          	or	a0,s0,a5
   1fc0c:	00048463          	beqz	s1,1fc14 <__muldf3+0x1cc>
   1fc10:	0014a073          	csrs	fflags,s1
   1fc14:	04813083          	ld	ra,72(sp)
   1fc18:	04013403          	ld	s0,64(sp)
   1fc1c:	03813483          	ld	s1,56(sp)
   1fc20:	03013903          	ld	s2,48(sp)
   1fc24:	02813983          	ld	s3,40(sp)
   1fc28:	02013a03          	ld	s4,32(sp)
   1fc2c:	01813a83          	ld	s5,24(sp)
   1fc30:	01013b03          	ld	s6,16(sp)
   1fc34:	00813b83          	ld	s7,8(sp)
   1fc38:	05010113          	addi	sp,sp,80
   1fc3c:	00008067          	ret
   1fc40:	fff00713          	li	a4,-1
   1fc44:	02075713          	srli	a4,a4,0x20
   1fc48:	02095f13          	srli	t5,s2,0x20
   1fc4c:	02045e93          	srli	t4,s0,0x20
   1fc50:	00e97933          	and	s2,s2,a4
   1fc54:	00e47433          	and	s0,s0,a4
   1fc58:	00090513          	mv	a0,s2
   1fc5c:	00040593          	mv	a1,s0
   1fc60:	6ad010ef          	jal	ra,21b0c <__muldi3>
   1fc64:	00050893          	mv	a7,a0
   1fc68:	000e8593          	mv	a1,t4
   1fc6c:	00090513          	mv	a0,s2
   1fc70:	69d010ef          	jal	ra,21b0c <__muldi3>
   1fc74:	00050313          	mv	t1,a0
   1fc78:	00040593          	mv	a1,s0
   1fc7c:	000f0513          	mv	a0,t5
   1fc80:	68d010ef          	jal	ra,21b0c <__muldi3>
   1fc84:	00050e13          	mv	t3,a0
   1fc88:	000e8593          	mv	a1,t4
   1fc8c:	000f0513          	mv	a0,t5
   1fc90:	67d010ef          	jal	ra,21b0c <__muldi3>
   1fc94:	0208d713          	srli	a4,a7,0x20
   1fc98:	01c30333          	add	t1,t1,t3
   1fc9c:	00670733          	add	a4,a4,t1
   1fca0:	01c77863          	bgeu	a4,t3,1fcb0 <__muldf3+0x268>
   1fca4:	00100693          	li	a3,1
   1fca8:	02069693          	slli	a3,a3,0x20
   1fcac:	00d50533          	add	a0,a0,a3
   1fcb0:	fff00613          	li	a2,-1
   1fcb4:	02065613          	srli	a2,a2,0x20
   1fcb8:	00c776b3          	and	a3,a4,a2
   1fcbc:	02069693          	slli	a3,a3,0x20
   1fcc0:	00c8f8b3          	and	a7,a7,a2
   1fcc4:	011686b3          	add	a3,a3,a7
   1fcc8:	00969413          	slli	s0,a3,0x9
   1fccc:	02075713          	srli	a4,a4,0x20
   1fcd0:	00803433          	snez	s0,s0
   1fcd4:	00a70733          	add	a4,a4,a0
   1fcd8:	0376d693          	srli	a3,a3,0x37
   1fcdc:	00d466b3          	or	a3,s0,a3
   1fce0:	00971413          	slli	s0,a4,0x9
   1fce4:	00d46433          	or	s0,s0,a3
   1fce8:	00741713          	slli	a4,s0,0x7
   1fcec:	0c075463          	bgez	a4,1fdb4 <__muldf3+0x36c>
   1fcf0:	00145713          	srli	a4,s0,0x1
   1fcf4:	00147413          	andi	s0,s0,1
   1fcf8:	00876433          	or	s0,a4,s0
   1fcfc:	3ff80513          	addi	a0,a6,1023
   1fd00:	0ea05463          	blez	a0,1fde8 <__muldf3+0x3a0>
   1fd04:	00747713          	andi	a4,s0,7
   1fd08:	02070663          	beqz	a4,1fd34 <__muldf3+0x2ec>
   1fd0c:	00200713          	li	a4,2
   1fd10:	0014e493          	ori	s1,s1,1
   1fd14:	0aea8a63          	beq	s5,a4,1fdc8 <__muldf3+0x380>
   1fd18:	00300713          	li	a4,3
   1fd1c:	0aea8063          	beq	s5,a4,1fdbc <__muldf3+0x374>
   1fd20:	000a9a63          	bnez	s5,1fd34 <__muldf3+0x2ec>
   1fd24:	00f47713          	andi	a4,s0,15
   1fd28:	00400693          	li	a3,4
   1fd2c:	00d70463          	beq	a4,a3,1fd34 <__muldf3+0x2ec>
   1fd30:	00440413          	addi	s0,s0,4
   1fd34:	00741713          	slli	a4,s0,0x7
   1fd38:	00075c63          	bgez	a4,1fd50 <__muldf3+0x308>
   1fd3c:	fff00713          	li	a4,-1
   1fd40:	03871713          	slli	a4,a4,0x38
   1fd44:	fff70713          	addi	a4,a4,-1
   1fd48:	00e47433          	and	s0,s0,a4
   1fd4c:	40080513          	addi	a0,a6,1024
   1fd50:	7fe00713          	li	a4,2046
   1fd54:	00345413          	srli	s0,s0,0x3
   1fd58:	e8a75ce3          	bge	a4,a0,1fbf0 <__muldf3+0x1a8>
   1fd5c:	00200713          	li	a4,2
   1fd60:	08ea8063          	beq	s5,a4,1fde0 <__muldf3+0x398>
   1fd64:	00300713          	li	a4,3
   1fd68:	06ea8463          	beq	s5,a4,1fdd0 <__muldf3+0x388>
   1fd6c:	060a8463          	beqz	s5,1fdd4 <__muldf3+0x38c>
   1fd70:	fff00413          	li	s0,-1
   1fd74:	7fe00513          	li	a0,2046
   1fd78:	0054e493          	ori	s1,s1,5
   1fd7c:	e75ff06f          	j	1fbf0 <__muldf3+0x1a8>
   1fd80:	000a0793          	mv	a5,s4
   1fd84:	00090413          	mv	s0,s2
   1fd88:	000b0713          	mv	a4,s6
   1fd8c:	00200693          	li	a3,2
   1fd90:	1ad70863          	beq	a4,a3,1ff40 <__muldf3+0x4f8>
   1fd94:	00300693          	li	a3,3
   1fd98:	1ad70a63          	beq	a4,a3,1ff4c <__muldf3+0x504>
   1fd9c:	00100693          	li	a3,1
   1fda0:	f4d71ee3          	bne	a4,a3,1fcfc <__muldf3+0x2b4>
   1fda4:	00000413          	li	s0,0
   1fda8:	1840006f          	j	1ff2c <__muldf3+0x4e4>
   1fdac:	000b8793          	mv	a5,s7
   1fdb0:	fddff06f          	j	1fd8c <__muldf3+0x344>
   1fdb4:	00098813          	mv	a6,s3
   1fdb8:	f45ff06f          	j	1fcfc <__muldf3+0x2b4>
   1fdbc:	f6079ce3          	bnez	a5,1fd34 <__muldf3+0x2ec>
   1fdc0:	00840413          	addi	s0,s0,8
   1fdc4:	f71ff06f          	j	1fd34 <__muldf3+0x2ec>
   1fdc8:	f60786e3          	beqz	a5,1fd34 <__muldf3+0x2ec>
   1fdcc:	ff5ff06f          	j	1fdc0 <__muldf3+0x378>
   1fdd0:	fa0790e3          	bnez	a5,1fd70 <__muldf3+0x328>
   1fdd4:	00000413          	li	s0,0
   1fdd8:	7ff00513          	li	a0,2047
   1fddc:	f9dff06f          	j	1fd78 <__muldf3+0x330>
   1fde0:	fe079ae3          	bnez	a5,1fdd4 <__muldf3+0x38c>
   1fde4:	f8dff06f          	j	1fd70 <__muldf3+0x328>
   1fde8:	00100713          	li	a4,1
   1fdec:	04051463          	bnez	a0,1fe34 <__muldf3+0x3ec>
   1fdf0:	00747693          	andi	a3,s0,7
   1fdf4:	00040713          	mv	a4,s0
   1fdf8:	02068863          	beqz	a3,1fe28 <__muldf3+0x3e0>
   1fdfc:	00200713          	li	a4,2
   1fe00:	0014e493          	ori	s1,s1,1
   1fe04:	0aea8e63          	beq	s5,a4,1fec0 <__muldf3+0x478>
   1fe08:	00300713          	li	a4,3
   1fe0c:	0aea8263          	beq	s5,a4,1feb0 <__muldf3+0x468>
   1fe10:	00040713          	mv	a4,s0
   1fe14:	000a9a63          	bnez	s5,1fe28 <__muldf3+0x3e0>
   1fe18:	00f47693          	andi	a3,s0,15
   1fe1c:	00400613          	li	a2,4
   1fe20:	00c68463          	beq	a3,a2,1fe28 <__muldf3+0x3e0>
   1fe24:	00440713          	addi	a4,s0,4
   1fe28:	03875713          	srli	a4,a4,0x38
   1fe2c:	00174713          	xori	a4,a4,1
   1fe30:	00177713          	andi	a4,a4,1
   1fe34:	00100613          	li	a2,1
   1fe38:	40a60533          	sub	a0,a2,a0
   1fe3c:	03800693          	li	a3,56
   1fe40:	0aa6ca63          	blt	a3,a0,1fef4 <__muldf3+0x4ac>
   1fe44:	0005061b          	sext.w	a2,a0
   1fe48:	04000513          	li	a0,64
   1fe4c:	40c5053b          	subw	a0,a0,a2
   1fe50:	00c456b3          	srl	a3,s0,a2
   1fe54:	00a41433          	sll	s0,s0,a0
   1fe58:	00803433          	snez	s0,s0
   1fe5c:	0086e433          	or	s0,a3,s0
   1fe60:	00747693          	andi	a3,s0,7
   1fe64:	02068663          	beqz	a3,1fe90 <__muldf3+0x448>
   1fe68:	00200693          	li	a3,2
   1fe6c:	0014e493          	ori	s1,s1,1
   1fe70:	06da8463          	beq	s5,a3,1fed8 <__muldf3+0x490>
   1fe74:	00300693          	li	a3,3
   1fe78:	04da8a63          	beq	s5,a3,1fecc <__muldf3+0x484>
   1fe7c:	000a9a63          	bnez	s5,1fe90 <__muldf3+0x448>
   1fe80:	00f47693          	andi	a3,s0,15
   1fe84:	00400613          	li	a2,4
   1fe88:	00c68463          	beq	a3,a2,1fe90 <__muldf3+0x448>
   1fe8c:	00440413          	addi	s0,s0,4
   1fe90:	00841693          	slli	a3,s0,0x8
   1fe94:	0406d663          	bgez	a3,1fee0 <__muldf3+0x498>
   1fe98:	0014e493          	ori	s1,s1,1
   1fe9c:	00000413          	li	s0,0
   1fea0:	00100513          	li	a0,1
   1fea4:	d40706e3          	beqz	a4,1fbf0 <__muldf3+0x1a8>
   1fea8:	0024e493          	ori	s1,s1,2
   1feac:	d45ff06f          	j	1fbf0 <__muldf3+0x1a8>
   1feb0:	00040713          	mv	a4,s0
   1feb4:	f6079ae3          	bnez	a5,1fe28 <__muldf3+0x3e0>
   1feb8:	00840713          	addi	a4,s0,8
   1febc:	f6dff06f          	j	1fe28 <__muldf3+0x3e0>
   1fec0:	00040713          	mv	a4,s0
   1fec4:	f60782e3          	beqz	a5,1fe28 <__muldf3+0x3e0>
   1fec8:	ff1ff06f          	j	1feb8 <__muldf3+0x470>
   1fecc:	fc0792e3          	bnez	a5,1fe90 <__muldf3+0x448>
   1fed0:	00840413          	addi	s0,s0,8
   1fed4:	fbdff06f          	j	1fe90 <__muldf3+0x448>
   1fed8:	fa078ce3          	beqz	a5,1fe90 <__muldf3+0x448>
   1fedc:	ff5ff06f          	j	1fed0 <__muldf3+0x488>
   1fee0:	00345413          	srli	s0,s0,0x3
   1fee4:	00000513          	li	a0,0
   1fee8:	d00704e3          	beqz	a4,1fbf0 <__muldf3+0x1a8>
   1feec:	0014f713          	andi	a4,s1,1
   1fef0:	fb5ff06f          	j	1fea4 <__muldf3+0x45c>
   1fef4:	02040a63          	beqz	s0,1ff28 <__muldf3+0x4e0>
   1fef8:	00200713          	li	a4,2
   1fefc:	0014e493          	ori	s1,s1,1
   1ff00:	02ea8a63          	beq	s5,a4,1ff34 <__muldf3+0x4ec>
   1ff04:	00300713          	li	a4,3
   1ff08:	00ea8a63          	beq	s5,a4,1ff1c <__muldf3+0x4d4>
   1ff0c:	00500413          	li	s0,5
   1ff10:	000a8a63          	beqz	s5,1ff24 <__muldf3+0x4dc>
   1ff14:	00100413          	li	s0,1
   1ff18:	00c0006f          	j	1ff24 <__muldf3+0x4dc>
   1ff1c:	00900413          	li	s0,9
   1ff20:	fe079ae3          	bnez	a5,1ff14 <__muldf3+0x4cc>
   1ff24:	00345413          	srli	s0,s0,0x3
   1ff28:	0024e493          	ori	s1,s1,2
   1ff2c:	00000513          	li	a0,0
   1ff30:	cc1ff06f          	j	1fbf0 <__muldf3+0x1a8>
   1ff34:	00900413          	li	s0,9
   1ff38:	fe0796e3          	bnez	a5,1ff24 <__muldf3+0x4dc>
   1ff3c:	fd9ff06f          	j	1ff14 <__muldf3+0x4cc>
   1ff40:	00000413          	li	s0,0
   1ff44:	7ff00513          	li	a0,2047
   1ff48:	ca9ff06f          	j	1fbf0 <__muldf3+0x1a8>
   1ff4c:	00100413          	li	s0,1
   1ff50:	03341413          	slli	s0,s0,0x33
   1ff54:	7ff00513          	li	a0,2047
   1ff58:	00000793          	li	a5,0
   1ff5c:	c95ff06f          	j	1fbf0 <__muldf3+0x1a8>

000000000001ff60 <__eqtf2>:
   1ff60:	002027f3          	frrm	a5
   1ff64:	00008737          	lui	a4,0x8
   1ff68:	0305d893          	srli	a7,a1,0x30
   1ff6c:	fff70713          	addi	a4,a4,-1 # 7fff <main-0x80b1>
   1ff70:	fff00793          	li	a5,-1
   1ff74:	0107d793          	srli	a5,a5,0x10
   1ff78:	0306d313          	srli	t1,a3,0x30
   1ff7c:	00e8f8b3          	and	a7,a7,a4
   1ff80:	00f5f833          	and	a6,a1,a5
   1ff84:	00e37333          	and	t1,t1,a4
   1ff88:	00f6f7b3          	and	a5,a3,a5
   1ff8c:	03f5d593          	srli	a1,a1,0x3f
   1ff90:	03f6d693          	srli	a3,a3,0x3f
   1ff94:	00e89c63          	bne	a7,a4,1ffac <__eqtf2+0x4c>
   1ff98:	00a86733          	or	a4,a6,a0
   1ff9c:	06071463          	bnez	a4,20004 <__eqtf2+0xa4>
   1ffa0:	00100713          	li	a4,1
   1ffa4:	03131a63          	bne	t1,a7,1ffd8 <__eqtf2+0x78>
   1ffa8:	0080006f          	j	1ffb0 <__eqtf2+0x50>
   1ffac:	00e31663          	bne	t1,a4,1ffb8 <__eqtf2+0x58>
   1ffb0:	00c7e733          	or	a4,a5,a2
   1ffb4:	02071e63          	bnez	a4,1fff0 <__eqtf2+0x90>
   1ffb8:	00100713          	li	a4,1
   1ffbc:	00689e63          	bne	a7,t1,1ffd8 <__eqtf2+0x78>
   1ffc0:	00f81c63          	bne	a6,a5,1ffd8 <__eqtf2+0x78>
   1ffc4:	00c51a63          	bne	a0,a2,1ffd8 <__eqtf2+0x78>
   1ffc8:	00d58c63          	beq	a1,a3,1ffe0 <__eqtf2+0x80>
   1ffcc:	00089663          	bnez	a7,1ffd8 <__eqtf2+0x78>
   1ffd0:	00a86733          	or	a4,a6,a0
   1ffd4:	00e03733          	snez	a4,a4
   1ffd8:	00070513          	mv	a0,a4
   1ffdc:	00008067          	ret
   1ffe0:	00000713          	li	a4,0
   1ffe4:	ff5ff06f          	j	1ffd8 <__eqtf2+0x78>
   1ffe8:	00186073          	csrsi	fflags,16
   1ffec:	0400006f          	j	2002c <__eqtf2+0xcc>
   1fff0:	00008737          	lui	a4,0x8
   1fff4:	fff70713          	addi	a4,a4,-1 # 7fff <main-0x80b1>
   1fff8:	02e89663          	bne	a7,a4,20024 <__eqtf2+0xc4>
   1fffc:	00a86733          	or	a4,a6,a0
   20000:	02070263          	beqz	a4,20024 <__eqtf2+0xc4>
   20004:	02f85813          	srli	a6,a6,0x2f
   20008:	fe0800e3          	beqz	a6,1ffe8 <__eqtf2+0x88>
   2000c:	00008737          	lui	a4,0x8
   20010:	fff70713          	addi	a4,a4,-1 # 7fff <main-0x80b1>
   20014:	00100513          	li	a0,1
   20018:	00e31e63          	bne	t1,a4,20034 <__eqtf2+0xd4>
   2001c:	00c7e633          	or	a2,a5,a2
   20020:	00060a63          	beqz	a2,20034 <__eqtf2+0xd4>
   20024:	02f7d793          	srli	a5,a5,0x2f
   20028:	fc0780e3          	beqz	a5,1ffe8 <__eqtf2+0x88>
   2002c:	00100513          	li	a0,1
   20030:	00008067          	ret
   20034:	00008067          	ret

0000000000020038 <__getf2>:
   20038:	002027f3          	frrm	a5
   2003c:	000088b7          	lui	a7,0x8
   20040:	0305d813          	srli	a6,a1,0x30
   20044:	fff88893          	addi	a7,a7,-1 # 7fff <main-0x80b1>
   20048:	fff00793          	li	a5,-1
   2004c:	0107d793          	srli	a5,a5,0x10
   20050:	0306d713          	srli	a4,a3,0x30
   20054:	01187833          	and	a6,a6,a7
   20058:	00f5f333          	and	t1,a1,a5
   2005c:	01177733          	and	a4,a4,a7
   20060:	00f6f7b3          	and	a5,a3,a5
   20064:	03f5d593          	srli	a1,a1,0x3f
   20068:	03f6d693          	srli	a3,a3,0x3f
   2006c:	01181c63          	bne	a6,a7,20084 <__getf2+0x4c>
   20070:	00a368b3          	or	a7,t1,a0
   20074:	08088e63          	beqz	a7,20110 <__getf2+0xd8>
   20078:	00186073          	csrsi	fflags,16
   2007c:	ffe00593          	li	a1,-2
   20080:	04c0006f          	j	200cc <__getf2+0x94>
   20084:	01171663          	bne	a4,a7,20090 <__getf2+0x58>
   20088:	00c7e8b3          	or	a7,a5,a2
   2008c:	fe0896e3          	bnez	a7,20078 <__getf2+0x40>
   20090:	08081263          	bnez	a6,20114 <__getf2+0xdc>
   20094:	00a368b3          	or	a7,t1,a0
   20098:	0018b893          	seqz	a7,a7
   2009c:	00071663          	bnez	a4,200a8 <__getf2+0x70>
   200a0:	00c7ee33          	or	t3,a5,a2
   200a4:	040e0e63          	beqz	t3,20100 <__getf2+0xc8>
   200a8:	00089c63          	bnez	a7,200c0 <__getf2+0x88>
   200ac:	00d59463          	bne	a1,a3,200b4 <__getf2+0x7c>
   200b0:	03075263          	bge	a4,a6,200d4 <__getf2+0x9c>
   200b4:	04058263          	beqz	a1,200f8 <__getf2+0xc0>
   200b8:	fff00593          	li	a1,-1
   200bc:	0100006f          	j	200cc <__getf2+0x94>
   200c0:	fff00593          	li	a1,-1
   200c4:	00068463          	beqz	a3,200cc <__getf2+0x94>
   200c8:	00068593          	mv	a1,a3
   200cc:	00058513          	mv	a0,a1
   200d0:	00008067          	ret
   200d4:	00e85663          	bge	a6,a4,200e0 <__getf2+0xa8>
   200d8:	fe059ae3          	bnez	a1,200cc <__getf2+0x94>
   200dc:	fddff06f          	j	200b8 <__getf2+0x80>
   200e0:	fc67eae3          	bltu	a5,t1,200b4 <__getf2+0x7c>
   200e4:	02f31263          	bne	t1,a5,20108 <__getf2+0xd0>
   200e8:	fca666e3          	bltu	a2,a0,200b4 <__getf2+0x7c>
   200ec:	fec566e3          	bltu	a0,a2,200d8 <__getf2+0xa0>
   200f0:	00000593          	li	a1,0
   200f4:	fd9ff06f          	j	200cc <__getf2+0x94>
   200f8:	00100593          	li	a1,1
   200fc:	fd1ff06f          	j	200cc <__getf2+0x94>
   20100:	fe0898e3          	bnez	a7,200f0 <__getf2+0xb8>
   20104:	fb1ff06f          	j	200b4 <__getf2+0x7c>
   20108:	fcf368e3          	bltu	t1,a5,200d8 <__getf2+0xa0>
   2010c:	fe5ff06f          	j	200f0 <__getf2+0xb8>
   20110:	f7070ce3          	beq	a4,a6,20088 <__getf2+0x50>
   20114:	f8071ce3          	bnez	a4,200ac <__getf2+0x74>
   20118:	00000893          	li	a7,0
   2011c:	f85ff06f          	j	200a0 <__getf2+0x68>

0000000000020120 <__letf2>:
   20120:	002027f3          	frrm	a5
   20124:	000088b7          	lui	a7,0x8
   20128:	0305d813          	srli	a6,a1,0x30
   2012c:	fff88893          	addi	a7,a7,-1 # 7fff <main-0x80b1>
   20130:	fff00793          	li	a5,-1
   20134:	0107d793          	srli	a5,a5,0x10
   20138:	0306d713          	srli	a4,a3,0x30
   2013c:	01187833          	and	a6,a6,a7
   20140:	00f5f333          	and	t1,a1,a5
   20144:	01177733          	and	a4,a4,a7
   20148:	00f6f7b3          	and	a5,a3,a5
   2014c:	03f5d593          	srli	a1,a1,0x3f
   20150:	03f6d693          	srli	a3,a3,0x3f
   20154:	01181c63          	bne	a6,a7,2016c <__letf2+0x4c>
   20158:	00a368b3          	or	a7,t1,a0
   2015c:	08088e63          	beqz	a7,201f8 <__letf2+0xd8>
   20160:	00186073          	csrsi	fflags,16
   20164:	00200593          	li	a1,2
   20168:	04c0006f          	j	201b4 <__letf2+0x94>
   2016c:	01171663          	bne	a4,a7,20178 <__letf2+0x58>
   20170:	00c7e8b3          	or	a7,a5,a2
   20174:	fe0896e3          	bnez	a7,20160 <__letf2+0x40>
   20178:	08081263          	bnez	a6,201fc <__letf2+0xdc>
   2017c:	00a368b3          	or	a7,t1,a0
   20180:	0018b893          	seqz	a7,a7
   20184:	00071663          	bnez	a4,20190 <__letf2+0x70>
   20188:	00c7ee33          	or	t3,a5,a2
   2018c:	040e0e63          	beqz	t3,201e8 <__letf2+0xc8>
   20190:	00089c63          	bnez	a7,201a8 <__letf2+0x88>
   20194:	00d59463          	bne	a1,a3,2019c <__letf2+0x7c>
   20198:	03075263          	bge	a4,a6,201bc <__letf2+0x9c>
   2019c:	04058263          	beqz	a1,201e0 <__letf2+0xc0>
   201a0:	fff00593          	li	a1,-1
   201a4:	0100006f          	j	201b4 <__letf2+0x94>
   201a8:	fff00593          	li	a1,-1
   201ac:	00068463          	beqz	a3,201b4 <__letf2+0x94>
   201b0:	00068593          	mv	a1,a3
   201b4:	00058513          	mv	a0,a1
   201b8:	00008067          	ret
   201bc:	00e85663          	bge	a6,a4,201c8 <__letf2+0xa8>
   201c0:	fe059ae3          	bnez	a1,201b4 <__letf2+0x94>
   201c4:	fddff06f          	j	201a0 <__letf2+0x80>
   201c8:	fc67eae3          	bltu	a5,t1,2019c <__letf2+0x7c>
   201cc:	02f31263          	bne	t1,a5,201f0 <__letf2+0xd0>
   201d0:	fca666e3          	bltu	a2,a0,2019c <__letf2+0x7c>
   201d4:	fec566e3          	bltu	a0,a2,201c0 <__letf2+0xa0>
   201d8:	00000593          	li	a1,0
   201dc:	fd9ff06f          	j	201b4 <__letf2+0x94>
   201e0:	00100593          	li	a1,1
   201e4:	fd1ff06f          	j	201b4 <__letf2+0x94>
   201e8:	fe0898e3          	bnez	a7,201d8 <__letf2+0xb8>
   201ec:	fb1ff06f          	j	2019c <__letf2+0x7c>
   201f0:	fcf368e3          	bltu	t1,a5,201c0 <__letf2+0xa0>
   201f4:	fe5ff06f          	j	201d8 <__letf2+0xb8>
   201f8:	f7070ce3          	beq	a4,a6,20170 <__letf2+0x50>
   201fc:	f8071ce3          	bnez	a4,20194 <__letf2+0x74>
   20200:	00000893          	li	a7,0
   20204:	f85ff06f          	j	20188 <__letf2+0x68>

0000000000020208 <__multf3>:
   20208:	fa010113          	addi	sp,sp,-96
   2020c:	03613023          	sd	s6,32(sp)
   20210:	01913423          	sd	s9,8(sp)
   20214:	04113c23          	sd	ra,88(sp)
   20218:	04813823          	sd	s0,80(sp)
   2021c:	04913423          	sd	s1,72(sp)
   20220:	05213023          	sd	s2,64(sp)
   20224:	03313c23          	sd	s3,56(sp)
   20228:	03413823          	sd	s4,48(sp)
   2022c:	03513423          	sd	s5,40(sp)
   20230:	01713c23          	sd	s7,24(sp)
   20234:	01813823          	sd	s8,16(sp)
   20238:	00060c93          	mv	s9,a2
   2023c:	00068b13          	mv	s6,a3
   20240:	002029f3          	frrm	s3
   20244:	00008737          	lui	a4,0x8
   20248:	0305da93          	srli	s5,a1,0x30
   2024c:	fff70713          	addi	a4,a4,-1 # 7fff <main-0x80b1>
   20250:	01059913          	slli	s2,a1,0x10
   20254:	00eaf7b3          	and	a5,s5,a4
   20258:	0009899b          	sext.w	s3,s3
   2025c:	01095913          	srli	s2,s2,0x10
   20260:	03f5db93          	srli	s7,a1,0x3f
   20264:	04078263          	beqz	a5,202a8 <__multf3+0xa0>
   20268:	00078a9b          	sext.w	s5,a5
   2026c:	00050a13          	mv	s4,a0
   20270:	0aea8863          	beq	s5,a4,20320 <__multf3+0x118>
   20274:	00391913          	slli	s2,s2,0x3
   20278:	03d55713          	srli	a4,a0,0x3d
   2027c:	01276733          	or	a4,a4,s2
   20280:	ffffcab7          	lui	s5,0xffffc
   20284:	00100913          	li	s2,1
   20288:	03391913          	slli	s2,s2,0x33
   2028c:	001a8a93          	addi	s5,s5,1 # ffffffffffffc001 <__BSS_END__+0xfffffffffffd73e1>
   20290:	01276933          	or	s2,a4,s2
   20294:	00351a13          	slli	s4,a0,0x3
   20298:	01578ab3          	add	s5,a5,s5
   2029c:	00000c13          	li	s8,0
   202a0:	00000493          	li	s1,0
   202a4:	0940006f          	j	20338 <__multf3+0x130>
   202a8:	00a967b3          	or	a5,s2,a0
   202ac:	00050413          	mv	s0,a0
   202b0:	10078e63          	beqz	a5,203cc <__multf3+0x1c4>
   202b4:	04090663          	beqz	s2,20300 <__multf3+0xf8>
   202b8:	00090513          	mv	a0,s2
   202bc:	914f00ef          	jal	ra,103d0 <__clzdi2>
   202c0:	0005051b          	sext.w	a0,a0
   202c4:	ff150713          	addi	a4,a0,-15
   202c8:	03c00693          	li	a3,60
   202cc:	0007079b          	sext.w	a5,a4
   202d0:	04e6c063          	blt	a3,a4,20310 <__multf3+0x108>
   202d4:	03d00713          	li	a4,61
   202d8:	00378a1b          	addiw	s4,a5,3
   202dc:	40f707bb          	subw	a5,a4,a5
   202e0:	01491933          	sll	s2,s2,s4
   202e4:	00f457b3          	srl	a5,s0,a5
   202e8:	0127e933          	or	s2,a5,s2
   202ec:	01441a33          	sll	s4,s0,s4
   202f0:	ffffcab7          	lui	s5,0xffffc
   202f4:	011a8a93          	addi	s5,s5,17 # ffffffffffffc011 <__BSS_END__+0xfffffffffffd73f1>
   202f8:	40aa8ab3          	sub	s5,s5,a0
   202fc:	fa1ff06f          	j	2029c <__multf3+0x94>
   20300:	8d0f00ef          	jal	ra,103d0 <__clzdi2>
   20304:	0005051b          	sext.w	a0,a0
   20308:	04050513          	addi	a0,a0,64
   2030c:	fb9ff06f          	j	202c4 <__multf3+0xbc>
   20310:	fc37891b          	addiw	s2,a5,-61
   20314:	01241933          	sll	s2,s0,s2
   20318:	00000a13          	li	s4,0
   2031c:	fd5ff06f          	j	202f0 <__multf3+0xe8>
   20320:	00a967b3          	or	a5,s2,a0
   20324:	0a078e63          	beqz	a5,203e0 <__multf3+0x1d8>
   20328:	01091793          	slli	a5,s2,0x10
   2032c:	00300c13          	li	s8,3
   20330:	01000493          	li	s1,16
   20334:	f607c6e3          	bltz	a5,202a0 <__multf3+0x98>
   20338:	00008637          	lui	a2,0x8
   2033c:	030b5513          	srli	a0,s6,0x30
   20340:	fff60613          	addi	a2,a2,-1 # 7fff <main-0x80b1>
   20344:	010b1413          	slli	s0,s6,0x10
   20348:	00c57733          	and	a4,a0,a2
   2034c:	000c8793          	mv	a5,s9
   20350:	01045413          	srli	s0,s0,0x10
   20354:	03fb5b13          	srli	s6,s6,0x3f
   20358:	08070c63          	beqz	a4,203f0 <__multf3+0x1e8>
   2035c:	0007051b          	sext.w	a0,a4
   20360:	10c50463          	beq	a0,a2,20468 <__multf3+0x260>
   20364:	00341413          	slli	s0,s0,0x3
   20368:	03dcd693          	srli	a3,s9,0x3d
   2036c:	0086e6b3          	or	a3,a3,s0
   20370:	ffffc537          	lui	a0,0xffffc
   20374:	00100413          	li	s0,1
   20378:	03341413          	slli	s0,s0,0x33
   2037c:	00150513          	addi	a0,a0,1 # ffffffffffffc001 <__BSS_END__+0xfffffffffffd73e1>
   20380:	0086e433          	or	s0,a3,s0
   20384:	003c9793          	slli	a5,s9,0x3
   20388:	00a70533          	add	a0,a4,a0
   2038c:	00000713          	li	a4,0
   20390:	002c1693          	slli	a3,s8,0x2
   20394:	00e6e6b3          	or	a3,a3,a4
   20398:	01550ab3          	add	s5,a0,s5
   2039c:	fff68693          	addi	a3,a3,-1
   203a0:	00e00613          	li	a2,14
   203a4:	016bc833          	xor	a6,s7,s6
   203a8:	001a8313          	addi	t1,s5,1
   203ac:	16d66c63          	bltu	a2,a3,20524 <__multf3+0x31c>
   203b0:	00002617          	auipc	a2,0x2
   203b4:	63060613          	addi	a2,a2,1584 # 229e0 <zeroes.4503+0x88>
   203b8:	00269693          	slli	a3,a3,0x2
   203bc:	00c686b3          	add	a3,a3,a2
   203c0:	0006a683          	lw	a3,0(a3)
   203c4:	00c686b3          	add	a3,a3,a2
   203c8:	00068067          	jr	a3
   203cc:	00000913          	li	s2,0
   203d0:	00000a13          	li	s4,0
   203d4:	00000a93          	li	s5,0
   203d8:	00100c13          	li	s8,1
   203dc:	ec5ff06f          	j	202a0 <__multf3+0x98>
   203e0:	00000913          	li	s2,0
   203e4:	00000a13          	li	s4,0
   203e8:	00200c13          	li	s8,2
   203ec:	eb5ff06f          	j	202a0 <__multf3+0x98>
   203f0:	019467b3          	or	a5,s0,s9
   203f4:	08078863          	beqz	a5,20484 <__multf3+0x27c>
   203f8:	04040663          	beqz	s0,20444 <__multf3+0x23c>
   203fc:	00040513          	mv	a0,s0
   20400:	fd1ef0ef          	jal	ra,103d0 <__clzdi2>
   20404:	0005051b          	sext.w	a0,a0
   20408:	ff150793          	addi	a5,a0,-15
   2040c:	03c00693          	li	a3,60
   20410:	0007871b          	sext.w	a4,a5
   20414:	04f6c263          	blt	a3,a5,20458 <__multf3+0x250>
   20418:	03d00693          	li	a3,61
   2041c:	0037079b          	addiw	a5,a4,3
   20420:	40e6873b          	subw	a4,a3,a4
   20424:	00f41433          	sll	s0,s0,a5
   20428:	00ecd733          	srl	a4,s9,a4
   2042c:	00876433          	or	s0,a4,s0
   20430:	00fc97b3          	sll	a5,s9,a5
   20434:	ffffc737          	lui	a4,0xffffc
   20438:	01170713          	addi	a4,a4,17 # ffffffffffffc011 <__BSS_END__+0xfffffffffffd73f1>
   2043c:	40a70533          	sub	a0,a4,a0
   20440:	f4dff06f          	j	2038c <__multf3+0x184>
   20444:	000c8513          	mv	a0,s9
   20448:	f89ef0ef          	jal	ra,103d0 <__clzdi2>
   2044c:	0005051b          	sext.w	a0,a0
   20450:	04050513          	addi	a0,a0,64
   20454:	fb5ff06f          	j	20408 <__multf3+0x200>
   20458:	fc37041b          	addiw	s0,a4,-61
   2045c:	008c9433          	sll	s0,s9,s0
   20460:	00000793          	li	a5,0
   20464:	fd1ff06f          	j	20434 <__multf3+0x22c>
   20468:	01946733          	or	a4,s0,s9
   2046c:	02070663          	beqz	a4,20498 <__multf3+0x290>
   20470:	01041713          	slli	a4,s0,0x10
   20474:	02074a63          	bltz	a4,204a8 <__multf3+0x2a0>
   20478:	00300713          	li	a4,3
   2047c:	01000493          	li	s1,16
   20480:	f11ff06f          	j	20390 <__multf3+0x188>
   20484:	00000413          	li	s0,0
   20488:	00000793          	li	a5,0
   2048c:	00000513          	li	a0,0
   20490:	00100713          	li	a4,1
   20494:	efdff06f          	j	20390 <__multf3+0x188>
   20498:	00000413          	li	s0,0
   2049c:	00000793          	li	a5,0
   204a0:	00200713          	li	a4,2
   204a4:	eedff06f          	j	20390 <__multf3+0x188>
   204a8:	00300713          	li	a4,3
   204ac:	ee5ff06f          	j	20390 <__multf3+0x188>
   204b0:	00100413          	li	s0,1
   204b4:	000085b7          	lui	a1,0x8
   204b8:	02f41413          	slli	s0,s0,0x2f
   204bc:	00000513          	li	a0,0
   204c0:	fff58593          	addi	a1,a1,-1 # 7fff <main-0x80b1>
   204c4:	00000813          	li	a6,0
   204c8:	01000493          	li	s1,16
   204cc:	01041413          	slli	s0,s0,0x10
   204d0:	03159593          	slli	a1,a1,0x31
   204d4:	0015d593          	srli	a1,a1,0x1
   204d8:	01045413          	srli	s0,s0,0x10
   204dc:	03f81813          	slli	a6,a6,0x3f
   204e0:	00b46433          	or	s0,s0,a1
   204e4:	010465b3          	or	a1,s0,a6
   204e8:	00048463          	beqz	s1,204f0 <__multf3+0x2e8>
   204ec:	0014a073          	csrs	fflags,s1
   204f0:	05813083          	ld	ra,88(sp)
   204f4:	05013403          	ld	s0,80(sp)
   204f8:	04813483          	ld	s1,72(sp)
   204fc:	04013903          	ld	s2,64(sp)
   20500:	03813983          	ld	s3,56(sp)
   20504:	03013a03          	ld	s4,48(sp)
   20508:	02813a83          	ld	s5,40(sp)
   2050c:	02013b03          	ld	s6,32(sp)
   20510:	01813b83          	ld	s7,24(sp)
   20514:	01013c03          	ld	s8,16(sp)
   20518:	00813c83          	ld	s9,8(sp)
   2051c:	06010113          	addi	sp,sp,96
   20520:	00008067          	ret
   20524:	fff00713          	li	a4,-1
   20528:	01490bb3          	add	s7,s2,s4
   2052c:	008783b3          	add	t2,a5,s0
   20530:	02075713          	srli	a4,a4,0x20
   20534:	014bbfb3          	sltu	t6,s7,s4
   20538:	00f3b2b3          	sltu	t0,t2,a5
   2053c:	020a5c13          	srli	s8,s4,0x20
   20540:	0207df13          	srli	t5,a5,0x20
   20544:	00ea7a33          	and	s4,s4,a4
   20548:	00e7f7b3          	and	a5,a5,a4
   2054c:	000f8e9b          	sext.w	t4,t6
   20550:	00028b1b          	sext.w	s6,t0
   20554:	000a0513          	mv	a0,s4
   20558:	00078593          	mv	a1,a5
   2055c:	5b0010ef          	jal	ra,21b0c <__muldi3>
   20560:	00050e13          	mv	t3,a0
   20564:	000f0593          	mv	a1,t5
   20568:	000a0513          	mv	a0,s4
   2056c:	5a0010ef          	jal	ra,21b0c <__muldi3>
   20570:	00050893          	mv	a7,a0
   20574:	00078593          	mv	a1,a5
   20578:	000c0513          	mv	a0,s8
   2057c:	590010ef          	jal	ra,21b0c <__muldi3>
   20580:	00050713          	mv	a4,a0
   20584:	000f0593          	mv	a1,t5
   20588:	000c0513          	mv	a0,s8
   2058c:	580010ef          	jal	ra,21b0c <__muldi3>
   20590:	020e5793          	srli	a5,t3,0x20
   20594:	00e888b3          	add	a7,a7,a4
   20598:	011787b3          	add	a5,a5,a7
   2059c:	00e7f863          	bgeu	a5,a4,205ac <__multf3+0x3a4>
   205a0:	00100713          	li	a4,1
   205a4:	02071713          	slli	a4,a4,0x20
   205a8:	00e50533          	add	a0,a0,a4
   205ac:	fff00713          	li	a4,-1
   205b0:	02075713          	srli	a4,a4,0x20
   205b4:	00e7f8b3          	and	a7,a5,a4
   205b8:	00ee7e33          	and	t3,t3,a4
   205bc:	00ebfc33          	and	s8,s7,a4
   205c0:	0207df13          	srli	t5,a5,0x20
   205c4:	00e3f733          	and	a4,t2,a4
   205c8:	02089893          	slli	a7,a7,0x20
   205cc:	00af0f33          	add	t5,t5,a0
   205d0:	01c888b3          	add	a7,a7,t3
   205d4:	020bda13          	srli	s4,s7,0x20
   205d8:	0203d793          	srli	a5,t2,0x20
   205dc:	000c0513          	mv	a0,s8
   205e0:	00070593          	mv	a1,a4
   205e4:	528010ef          	jal	ra,21b0c <__muldi3>
   205e8:	00050e13          	mv	t3,a0
   205ec:	00078593          	mv	a1,a5
   205f0:	000c0513          	mv	a0,s8
   205f4:	518010ef          	jal	ra,21b0c <__muldi3>
   205f8:	00050c93          	mv	s9,a0
   205fc:	00070593          	mv	a1,a4
   20600:	000a0513          	mv	a0,s4
   20604:	508010ef          	jal	ra,21b0c <__muldi3>
   20608:	00050713          	mv	a4,a0
   2060c:	00078593          	mv	a1,a5
   20610:	000a0513          	mv	a0,s4
   20614:	4f8010ef          	jal	ra,21b0c <__muldi3>
   20618:	020e5693          	srli	a3,t3,0x20
   2061c:	00ec8cb3          	add	s9,s9,a4
   20620:	019686b3          	add	a3,a3,s9
   20624:	00050c13          	mv	s8,a0
   20628:	00e6f863          	bgeu	a3,a4,20638 <__multf3+0x430>
   2062c:	00100793          	li	a5,1
   20630:	02079793          	slli	a5,a5,0x20
   20634:	00f50c33          	add	s8,a0,a5
   20638:	fff00593          	li	a1,-1
   2063c:	0205d593          	srli	a1,a1,0x20
   20640:	0206da13          	srli	s4,a3,0x20
   20644:	00b6f6b3          	and	a3,a3,a1
   20648:	02069693          	slli	a3,a3,0x20
   2064c:	00be7e33          	and	t3,t3,a1
   20650:	02095713          	srli	a4,s2,0x20
   20654:	02045793          	srli	a5,s0,0x20
   20658:	00b97933          	and	s2,s2,a1
   2065c:	00b47433          	and	s0,s0,a1
   20660:	01c68e33          	add	t3,a3,t3
   20664:	00090513          	mv	a0,s2
   20668:	00040593          	mv	a1,s0
   2066c:	4a0010ef          	jal	ra,21b0c <__muldi3>
   20670:	00050c93          	mv	s9,a0
   20674:	00078593          	mv	a1,a5
   20678:	00090513          	mv	a0,s2
   2067c:	490010ef          	jal	ra,21b0c <__muldi3>
   20680:	00050913          	mv	s2,a0
   20684:	00040593          	mv	a1,s0
   20688:	00070513          	mv	a0,a4
   2068c:	480010ef          	jal	ra,21b0c <__muldi3>
   20690:	00050413          	mv	s0,a0
   20694:	00078593          	mv	a1,a5
   20698:	00070513          	mv	a0,a4
   2069c:	470010ef          	jal	ra,21b0c <__muldi3>
   206a0:	020cd613          	srli	a2,s9,0x20
   206a4:	00890933          	add	s2,s2,s0
   206a8:	01260633          	add	a2,a2,s2
   206ac:	00867863          	bgeu	a2,s0,206bc <__multf3+0x4b4>
   206b0:	00100793          	li	a5,1
   206b4:	02079793          	slli	a5,a5,0x20
   206b8:	00f50533          	add	a0,a0,a5
   206bc:	02065693          	srli	a3,a2,0x20
   206c0:	00a687b3          	add	a5,a3,a0
   206c4:	fff00693          	li	a3,-1
   206c8:	0206d693          	srli	a3,a3,0x20
   206cc:	00d67733          	and	a4,a2,a3
   206d0:	00dcfcb3          	and	s9,s9,a3
   206d4:	01ee06b3          	add	a3,t3,t5
   206d8:	01e6b633          	sltu	a2,a3,t5
   206dc:	00ca0533          	add	a0,s4,a2
   206e0:	416005b3          	neg	a1,s6
   206e4:	01850533          	add	a0,a0,s8
   206e8:	0175f5b3          	and	a1,a1,s7
   206ec:	41d00eb3          	neg	t4,t4
   206f0:	00a585b3          	add	a1,a1,a0
   206f4:	00c53633          	sltu	a2,a0,a2
   206f8:	007ef3b3          	and	t2,t4,t2
   206fc:	005ff433          	and	s0,t6,t0
   20700:	00b383b3          	add	t2,t2,a1
   20704:	00a5b533          	sltu	a0,a1,a0
   20708:	00860433          	add	s0,a2,s0
   2070c:	00a40433          	add	s0,s0,a0
   20710:	00b3b5b3          	sltu	a1,t2,a1
   20714:	00b40433          	add	s0,s0,a1
   20718:	411685b3          	sub	a1,a3,a7
   2071c:	41e38633          	sub	a2,t2,t5
   20720:	00b6b533          	sltu	a0,a3,a1
   20724:	02071713          	slli	a4,a4,0x20
   20728:	00c3be33          	sltu	t3,t2,a2
   2072c:	01970733          	add	a4,a4,s9
   20730:	40a60633          	sub	a2,a2,a0
   20734:	00000513          	li	a0,0
   20738:	00b6f663          	bgeu	a3,a1,20744 <__multf3+0x53c>
   2073c:	407f03b3          	sub	t2,t5,t2
   20740:	0013b513          	seqz	a0,t2
   20744:	01c563b3          	or	t2,a0,t3
   20748:	40e58533          	sub	a0,a1,a4
   2074c:	40f606b3          	sub	a3,a2,a5
   20750:	00f40433          	add	s0,s0,a5
   20754:	00a5b7b3          	sltu	a5,a1,a0
   20758:	00d63633          	sltu	a2,a2,a3
   2075c:	40f707b3          	sub	a5,a4,a5
   20760:	00000e13          	li	t3,0
   20764:	00a5f463          	bgeu	a1,a0,2076c <__multf3+0x564>
   20768:	0016be13          	seqz	t3,a3
   2076c:	00f686b3          	add	a3,a3,a5
   20770:	00e6b733          	sltu	a4,a3,a4
   20774:	00870433          	add	s0,a4,s0
   20778:	40740433          	sub	s0,s0,t2
   2077c:	00ce6633          	or	a2,t3,a2
   20780:	40c40433          	sub	s0,s0,a2
   20784:	0336d793          	srli	a5,a3,0x33
   20788:	00d41413          	slli	s0,s0,0xd
   2078c:	00f46433          	or	s0,s0,a5
   20790:	00d51793          	slli	a5,a0,0xd
   20794:	0117e7b3          	or	a5,a5,a7
   20798:	00f037b3          	snez	a5,a5
   2079c:	03355513          	srli	a0,a0,0x33
   207a0:	00a7e7b3          	or	a5,a5,a0
   207a4:	00d69693          	slli	a3,a3,0xd
   207a8:	00b41713          	slli	a4,s0,0xb
   207ac:	00d7e7b3          	or	a5,a5,a3
   207b0:	0a075463          	bgez	a4,20858 <__multf3+0x650>
   207b4:	0017d713          	srli	a4,a5,0x1
   207b8:	0017f793          	andi	a5,a5,1
   207bc:	03f41513          	slli	a0,s0,0x3f
   207c0:	00f767b3          	or	a5,a4,a5
   207c4:	00a7e7b3          	or	a5,a5,a0
   207c8:	00145413          	srli	s0,s0,0x1
   207cc:	000045b7          	lui	a1,0x4
   207d0:	fff58593          	addi	a1,a1,-1 # 3fff <main-0xc0b1>
   207d4:	00b305b3          	add	a1,t1,a1
   207d8:	12b05063          	blez	a1,208f8 <__multf3+0x6f0>
   207dc:	0077f713          	andi	a4,a5,7
   207e0:	08070863          	beqz	a4,20870 <__multf3+0x668>
   207e4:	00200713          	li	a4,2
   207e8:	0014e493          	ori	s1,s1,1
   207ec:	08e98063          	beq	s3,a4,2086c <__multf3+0x664>
   207f0:	00300713          	li	a4,3
   207f4:	06e98663          	beq	s3,a4,20860 <__multf3+0x658>
   207f8:	06099c63          	bnez	s3,20870 <__multf3+0x668>
   207fc:	00f7f713          	andi	a4,a5,15
   20800:	00400693          	li	a3,4
   20804:	06d70663          	beq	a4,a3,20870 <__multf3+0x668>
   20808:	00478713          	addi	a4,a5,4
   2080c:	00f737b3          	sltu	a5,a4,a5
   20810:	00f40433          	add	s0,s0,a5
   20814:	00070793          	mv	a5,a4
   20818:	0580006f          	j	20870 <__multf3+0x668>
   2081c:	000b8813          	mv	a6,s7
   20820:	00090413          	mv	s0,s2
   20824:	000a0793          	mv	a5,s4
   20828:	000c0713          	mv	a4,s8
   2082c:	00200693          	li	a3,2
   20830:	28d70c63          	beq	a4,a3,20ac8 <__multf3+0x8c0>
   20834:	00300693          	li	a3,3
   20838:	2ad70263          	beq	a4,a3,20adc <__multf3+0x8d4>
   2083c:	00100693          	li	a3,1
   20840:	f8d716e3          	bne	a4,a3,207cc <__multf3+0x5c4>
   20844:	00000413          	li	s0,0
   20848:	00000513          	li	a0,0
   2084c:	2680006f          	j	20ab4 <__multf3+0x8ac>
   20850:	000b0813          	mv	a6,s6
   20854:	fd9ff06f          	j	2082c <__multf3+0x624>
   20858:	000a8313          	mv	t1,s5
   2085c:	f71ff06f          	j	207cc <__multf3+0x5c4>
   20860:	00081863          	bnez	a6,20870 <__multf3+0x668>
   20864:	00878713          	addi	a4,a5,8
   20868:	fa5ff06f          	j	2080c <__multf3+0x604>
   2086c:	fe081ce3          	bnez	a6,20864 <__multf3+0x65c>
   20870:	00b41713          	slli	a4,s0,0xb
   20874:	00075e63          	bgez	a4,20890 <__multf3+0x688>
   20878:	fff00713          	li	a4,-1
   2087c:	03471713          	slli	a4,a4,0x34
   20880:	fff70713          	addi	a4,a4,-1
   20884:	000045b7          	lui	a1,0x4
   20888:	00e47433          	and	s0,s0,a4
   2088c:	00b305b3          	add	a1,t1,a1
   20890:	00008737          	lui	a4,0x8
   20894:	ffe70693          	addi	a3,a4,-2 # 7ffe <main-0x80b2>
   20898:	00b6cc63          	blt	a3,a1,208b0 <__multf3+0x6a8>
   2089c:	0037d513          	srli	a0,a5,0x3
   208a0:	03d41793          	slli	a5,s0,0x3d
   208a4:	00a7e533          	or	a0,a5,a0
   208a8:	00345413          	srli	s0,s0,0x3
   208ac:	c21ff06f          	j	204cc <__multf3+0x2c4>
   208b0:	00200793          	li	a5,2
   208b4:	02f98a63          	beq	s3,a5,208e8 <__multf3+0x6e0>
   208b8:	00300793          	li	a5,3
   208bc:	fff70593          	addi	a1,a4,-1
   208c0:	00f98e63          	beq	s3,a5,208dc <__multf3+0x6d4>
   208c4:	00098e63          	beqz	s3,208e0 <__multf3+0x6d8>
   208c8:	fff00513          	li	a0,-1
   208cc:	00068593          	mv	a1,a3
   208d0:	0054e493          	ori	s1,s1,5
   208d4:	00050413          	mv	s0,a0
   208d8:	bf5ff06f          	j	204cc <__multf3+0x2c4>
   208dc:	fe0816e3          	bnez	a6,208c8 <__multf3+0x6c0>
   208e0:	00000513          	li	a0,0
   208e4:	fedff06f          	j	208d0 <__multf3+0x6c8>
   208e8:	fe0800e3          	beqz	a6,208c8 <__multf3+0x6c0>
   208ec:	00000513          	li	a0,0
   208f0:	fff70593          	addi	a1,a4,-1
   208f4:	fddff06f          	j	208d0 <__multf3+0x6c8>
   208f8:	00100693          	li	a3,1
   208fc:	06059663          	bnez	a1,20968 <__multf3+0x760>
   20900:	0077f693          	andi	a3,a5,7
   20904:	00040713          	mv	a4,s0
   20908:	04068a63          	beqz	a3,2095c <__multf3+0x754>
   2090c:	00200713          	li	a4,2
   20910:	0014e493          	ori	s1,s1,1
   20914:	04e98063          	beq	s3,a4,20954 <__multf3+0x74c>
   20918:	00300713          	li	a4,3
   2091c:	02e98463          	beq	s3,a4,20944 <__multf3+0x73c>
   20920:	00040713          	mv	a4,s0
   20924:	02099c63          	bnez	s3,2095c <__multf3+0x754>
   20928:	00f7f693          	andi	a3,a5,15
   2092c:	00400613          	li	a2,4
   20930:	02c68663          	beq	a3,a2,2095c <__multf3+0x754>
   20934:	ffc7b713          	sltiu	a4,a5,-4
   20938:	00174713          	xori	a4,a4,1
   2093c:	00e40733          	add	a4,s0,a4
   20940:	01c0006f          	j	2095c <__multf3+0x754>
   20944:	00040713          	mv	a4,s0
   20948:	00081a63          	bnez	a6,2095c <__multf3+0x754>
   2094c:	ff87b713          	sltiu	a4,a5,-8
   20950:	fe9ff06f          	j	20938 <__multf3+0x730>
   20954:	00040713          	mv	a4,s0
   20958:	fe081ae3          	bnez	a6,2094c <__multf3+0x744>
   2095c:	03475693          	srli	a3,a4,0x34
   20960:	0016c693          	xori	a3,a3,1
   20964:	0016f693          	andi	a3,a3,1
   20968:	00100713          	li	a4,1
   2096c:	40b705b3          	sub	a1,a4,a1
   20970:	07400713          	li	a4,116
   20974:	10b74063          	blt	a4,a1,20a74 <__multf3+0x86c>
   20978:	03f00613          	li	a2,63
   2097c:	0005871b          	sext.w	a4,a1
   20980:	06b64463          	blt	a2,a1,209e8 <__multf3+0x7e0>
   20984:	04000613          	li	a2,64
   20988:	40e6063b          	subw	a2,a2,a4
   2098c:	00c41533          	sll	a0,s0,a2
   20990:	00e7d5b3          	srl	a1,a5,a4
   20994:	00c797b3          	sll	a5,a5,a2
   20998:	00b56533          	or	a0,a0,a1
   2099c:	00f037b3          	snez	a5,a5
   209a0:	00f56533          	or	a0,a0,a5
   209a4:	00e45433          	srl	s0,s0,a4
   209a8:	00757793          	andi	a5,a0,7
   209ac:	08078063          	beqz	a5,20a2c <__multf3+0x824>
   209b0:	00200793          	li	a5,2
   209b4:	0014e493          	ori	s1,s1,1
   209b8:	06f98863          	beq	s3,a5,20a28 <__multf3+0x820>
   209bc:	00300793          	li	a5,3
   209c0:	04f98e63          	beq	s3,a5,20a1c <__multf3+0x814>
   209c4:	06099463          	bnez	s3,20a2c <__multf3+0x824>
   209c8:	00f57793          	andi	a5,a0,15
   209cc:	00400713          	li	a4,4
   209d0:	04e78e63          	beq	a5,a4,20a2c <__multf3+0x824>
   209d4:	00450793          	addi	a5,a0,4
   209d8:	00a7b533          	sltu	a0,a5,a0
   209dc:	00a40433          	add	s0,s0,a0
   209e0:	00078513          	mv	a0,a5
   209e4:	0480006f          	j	20a2c <__multf3+0x824>
   209e8:	fc07051b          	addiw	a0,a4,-64
   209ec:	04000893          	li	a7,64
   209f0:	00a45533          	srl	a0,s0,a0
   209f4:	00000613          	li	a2,0
   209f8:	01158863          	beq	a1,a7,20a08 <__multf3+0x800>
   209fc:	08000613          	li	a2,128
   20a00:	40e6073b          	subw	a4,a2,a4
   20a04:	00e41633          	sll	a2,s0,a4
   20a08:	00f667b3          	or	a5,a2,a5
   20a0c:	00f037b3          	snez	a5,a5
   20a10:	00f56533          	or	a0,a0,a5
   20a14:	00000413          	li	s0,0
   20a18:	f91ff06f          	j	209a8 <__multf3+0x7a0>
   20a1c:	00081863          	bnez	a6,20a2c <__multf3+0x824>
   20a20:	00850793          	addi	a5,a0,8
   20a24:	fb5ff06f          	j	209d8 <__multf3+0x7d0>
   20a28:	fe081ce3          	bnez	a6,20a20 <__multf3+0x818>
   20a2c:	00c41793          	slli	a5,s0,0xc
   20a30:	0207d063          	bgez	a5,20a50 <__multf3+0x848>
   20a34:	0014e493          	ori	s1,s1,1
   20a38:	00000413          	li	s0,0
   20a3c:	00000513          	li	a0,0
   20a40:	00100593          	li	a1,1
   20a44:	a80684e3          	beqz	a3,204cc <__multf3+0x2c4>
   20a48:	0024e493          	ori	s1,s1,2
   20a4c:	a81ff06f          	j	204cc <__multf3+0x2c4>
   20a50:	03d41793          	slli	a5,s0,0x3d
   20a54:	00355513          	srli	a0,a0,0x3
   20a58:	00a7e533          	or	a0,a5,a0
   20a5c:	00345413          	srli	s0,s0,0x3
   20a60:	00000593          	li	a1,0
   20a64:	a60684e3          	beqz	a3,204cc <__multf3+0x2c4>
   20a68:	0014f793          	andi	a5,s1,1
   20a6c:	a60780e3          	beqz	a5,204cc <__multf3+0x2c4>
   20a70:	fd9ff06f          	j	20a48 <__multf3+0x840>
   20a74:	0087e533          	or	a0,a5,s0
   20a78:	02050a63          	beqz	a0,20aac <__multf3+0x8a4>
   20a7c:	00200793          	li	a5,2
   20a80:	0014e493          	ori	s1,s1,1
   20a84:	02f98c63          	beq	s3,a5,20abc <__multf3+0x8b4>
   20a88:	00300793          	li	a5,3
   20a8c:	00f98a63          	beq	s3,a5,20aa0 <__multf3+0x898>
   20a90:	00500793          	li	a5,5
   20a94:	00098a63          	beqz	s3,20aa8 <__multf3+0x8a0>
   20a98:	00100793          	li	a5,1
   20a9c:	00c0006f          	j	20aa8 <__multf3+0x8a0>
   20aa0:	00900793          	li	a5,9
   20aa4:	fe081ae3          	bnez	a6,20a98 <__multf3+0x890>
   20aa8:	0037d513          	srli	a0,a5,0x3
   20aac:	0024e493          	ori	s1,s1,2
   20ab0:	00000413          	li	s0,0
   20ab4:	00000593          	li	a1,0
   20ab8:	a15ff06f          	j	204cc <__multf3+0x2c4>
   20abc:	00900793          	li	a5,9
   20ac0:	fe0814e3          	bnez	a6,20aa8 <__multf3+0x8a0>
   20ac4:	fd5ff06f          	j	20a98 <__multf3+0x890>
   20ac8:	000085b7          	lui	a1,0x8
   20acc:	00000413          	li	s0,0
   20ad0:	00000513          	li	a0,0
   20ad4:	fff58593          	addi	a1,a1,-1 # 7fff <main-0x80b1>
   20ad8:	9f5ff06f          	j	204cc <__multf3+0x2c4>
   20adc:	00100413          	li	s0,1
   20ae0:	000085b7          	lui	a1,0x8
   20ae4:	02f41413          	slli	s0,s0,0x2f
   20ae8:	00000513          	li	a0,0
   20aec:	fff58593          	addi	a1,a1,-1 # 7fff <main-0x80b1>
   20af0:	00000813          	li	a6,0
   20af4:	9d9ff06f          	j	204cc <__multf3+0x2c4>

0000000000020af8 <__subtf3>:
   20af8:	fd010113          	addi	sp,sp,-48
   20afc:	02113423          	sd	ra,40(sp)
   20b00:	02813023          	sd	s0,32(sp)
   20b04:	00913c23          	sd	s1,24(sp)
   20b08:	01213823          	sd	s2,16(sp)
   20b0c:	01313423          	sd	s3,8(sp)
   20b10:	01413023          	sd	s4,0(sp)
   20b14:	002024f3          	frrm	s1
   20b18:	fff00f93          	li	t6,-1
   20b1c:	010fdf93          	srli	t6,t6,0x10
   20b20:	00008f37          	lui	t5,0x8
   20b24:	0305d893          	srli	a7,a1,0x30
   20b28:	ffff0f13          	addi	t5,t5,-1 # 7fff <main-0x80b1>
   20b2c:	0306d813          	srli	a6,a3,0x30
   20b30:	03f5d413          	srli	s0,a1,0x3f
   20b34:	03f6d313          	srli	t1,a3,0x3f
   20b38:	01f5f5b3          	and	a1,a1,t6
   20b3c:	01f6f6b3          	and	a3,a3,t6
   20b40:	03d55793          	srli	a5,a0,0x3d
   20b44:	01e8f8b3          	and	a7,a7,t5
   20b48:	00359593          	slli	a1,a1,0x3
   20b4c:	00351e93          	slli	t4,a0,0x3
   20b50:	00369693          	slli	a3,a3,0x3
   20b54:	03d65513          	srli	a0,a2,0x3d
   20b58:	01e87833          	and	a6,a6,t5
   20b5c:	0004849b          	sext.w	s1,s1
   20b60:	00088993          	mv	s3,a7
   20b64:	00b7e5b3          	or	a1,a5,a1
   20b68:	00d566b3          	or	a3,a0,a3
   20b6c:	00361e13          	slli	t3,a2,0x3
   20b70:	01e81663          	bne	a6,t5,20b7c <__subtf3+0x84>
   20b74:	01c6e7b3          	or	a5,a3,t3
   20b78:	00079463          	bnez	a5,20b80 <__subtf3+0x88>
   20b7c:	00134313          	xori	t1,t1,1
   20b80:	410887bb          	subw	a5,a7,a6
   20b84:	00008537          	lui	a0,0x8
   20b88:	0007871b          	sext.w	a4,a5
   20b8c:	fff50613          	addi	a2,a0,-1 # 7fff <main-0x80b1>
   20b90:	3e831a63          	bne	t1,s0,20f84 <__subtf3+0x48c>
   20b94:	12e05c63          	blez	a4,20ccc <__subtf3+0x1d4>
   20b98:	0a081663          	bnez	a6,20c44 <__subtf3+0x14c>
   20b9c:	01c6e733          	or	a4,a3,t3
   20ba0:	02071463          	bnez	a4,20bc8 <__subtf3+0xd0>
   20ba4:	0ec890e3          	bne	a7,a2,21484 <__subtf3+0x98c>
   20ba8:	01d5ee33          	or	t3,a1,t4
   20bac:	140e06e3          	beqz	t3,214f8 <__subtf3+0xa00>
   20bb0:	00d59793          	slli	a5,a1,0xd
   20bb4:	00058693          	mv	a3,a1
   20bb8:	000e8e13          	mv	t3,t4
   20bbc:	0607c263          	bltz	a5,20c20 <__subtf3+0x128>
   20bc0:	01000793          	li	a5,16
   20bc4:	2700006f          	j	20e34 <__subtf3+0x33c>
   20bc8:	fff7871b          	addiw	a4,a5,-1
   20bcc:	04071e63          	bnez	a4,20c28 <__subtf3+0x130>
   20bd0:	01de0e33          	add	t3,t3,t4
   20bd4:	00b686b3          	add	a3,a3,a1
   20bd8:	01de3eb3          	sltu	t4,t3,t4
   20bdc:	01d686b3          	add	a3,a3,t4
   20be0:	00c69793          	slli	a5,a3,0xc
   20be4:	0807d8e3          	bgez	a5,21474 <__subtf3+0x97c>
   20be8:	000087b7          	lui	a5,0x8
   20bec:	00198993          	addi	s3,s3,1
   20bf0:	fff78713          	addi	a4,a5,-1 # 7fff <main-0x80b1>
   20bf4:	34e98863          	beq	s3,a4,20f44 <__subtf3+0x44c>
   20bf8:	fff00513          	li	a0,-1
   20bfc:	03351513          	slli	a0,a0,0x33
   20c00:	fff50513          	addi	a0,a0,-1
   20c04:	00a6f533          	and	a0,a3,a0
   20c08:	001e5593          	srli	a1,t3,0x1
   20c0c:	001e7e13          	andi	t3,t3,1
   20c10:	03f51693          	slli	a3,a0,0x3f
   20c14:	01c5ee33          	or	t3,a1,t3
   20c18:	01c6ee33          	or	t3,a3,t3
   20c1c:	00155693          	srli	a3,a0,0x1
   20c20:	00000713          	li	a4,0
   20c24:	2ac0006f          	j	20ed0 <__subtf3+0x3d8>
   20c28:	02c89663          	bne	a7,a2,20c54 <__subtf3+0x15c>
   20c2c:	01d5ee33          	or	t3,a1,t4
   20c30:	0c0e04e3          	beqz	t3,214f8 <__subtf3+0xa00>
   20c34:	00d59793          	slli	a5,a1,0xd
   20c38:	00058693          	mv	a3,a1
   20c3c:	000e8e13          	mv	t3,t4
   20c40:	0b00006f          	j	20cf0 <__subtf3+0x1f8>
   20c44:	fec884e3          	beq	a7,a2,20c2c <__subtf3+0x134>
   20c48:	00100793          	li	a5,1
   20c4c:	03379793          	slli	a5,a5,0x33
   20c50:	00f6e6b3          	or	a3,a3,a5
   20c54:	07400793          	li	a5,116
   20c58:	06e7c463          	blt	a5,a4,20cc0 <__subtf3+0x1c8>
   20c5c:	03f00793          	li	a5,63
   20c60:	02e7c663          	blt	a5,a4,20c8c <__subtf3+0x194>
   20c64:	04000613          	li	a2,64
   20c68:	40e6063b          	subw	a2,a2,a4
   20c6c:	00c697b3          	sll	a5,a3,a2
   20c70:	00ee5533          	srl	a0,t3,a4
   20c74:	00ce1e33          	sll	t3,t3,a2
   20c78:	00a7e7b3          	or	a5,a5,a0
   20c7c:	01c03e33          	snez	t3,t3
   20c80:	01c7ee33          	or	t3,a5,t3
   20c84:	00e6d6b3          	srl	a3,a3,a4
   20c88:	f49ff06f          	j	20bd0 <__subtf3+0xd8>
   20c8c:	fc07079b          	addiw	a5,a4,-64
   20c90:	04000513          	li	a0,64
   20c94:	00f6d7b3          	srl	a5,a3,a5
   20c98:	00000613          	li	a2,0
   20c9c:	00a70863          	beq	a4,a0,20cac <__subtf3+0x1b4>
   20ca0:	08000613          	li	a2,128
   20ca4:	40e6073b          	subw	a4,a2,a4
   20ca8:	00e69633          	sll	a2,a3,a4
   20cac:	01c66e33          	or	t3,a2,t3
   20cb0:	01c03e33          	snez	t3,t3
   20cb4:	01c7ee33          	or	t3,a5,t3
   20cb8:	00000693          	li	a3,0
   20cbc:	f15ff06f          	j	20bd0 <__subtf3+0xd8>
   20cc0:	01c6ee33          	or	t3,a3,t3
   20cc4:	01c03e33          	snez	t3,t3
   20cc8:	ff1ff06f          	j	20cb8 <__subtf3+0x1c0>
   20ccc:	10070a63          	beqz	a4,20de0 <__subtf3+0x2e8>
   20cd0:	0a089263          	bnez	a7,20d74 <__subtf3+0x27c>
   20cd4:	01d5e533          	or	a0,a1,t4
   20cd8:	02051263          	bnez	a0,20cfc <__subtf3+0x204>
   20cdc:	00080993          	mv	s3,a6
   20ce0:	78c81a63          	bne	a6,a2,21474 <__subtf3+0x97c>
   20ce4:	01c6e7b3          	or	a5,a3,t3
   20ce8:	7e078863          	beqz	a5,214d8 <__subtf3+0x9e0>
   20cec:	00d69793          	slli	a5,a3,0xd
   20cf0:	00000713          	li	a4,0
   20cf4:	1c07ce63          	bltz	a5,20ed0 <__subtf3+0x3d8>
   20cf8:	ec9ff06f          	j	20bc0 <__subtf3+0xc8>
   20cfc:	fff00513          	li	a0,-1
   20d00:	02a71063          	bne	a4,a0,20d20 <__subtf3+0x228>
   20d04:	01ce8eb3          	add	t4,t4,t3
   20d08:	00d586b3          	add	a3,a1,a3
   20d0c:	01cebe33          	sltu	t3,t4,t3
   20d10:	01c686b3          	add	a3,a3,t3
   20d14:	000e8e13          	mv	t3,t4
   20d18:	00080993          	mv	s3,a6
   20d1c:	ec5ff06f          	j	20be0 <__subtf3+0xe8>
   20d20:	04c80c63          	beq	a6,a2,20d78 <__subtf3+0x280>
   20d24:	fff7c793          	not	a5,a5
   20d28:	0007879b          	sext.w	a5,a5
   20d2c:	07400713          	li	a4,116
   20d30:	0af74263          	blt	a4,a5,20dd4 <__subtf3+0x2dc>
   20d34:	03f00713          	li	a4,63
   20d38:	06f74463          	blt	a4,a5,20da0 <__subtf3+0x2a8>
   20d3c:	04000513          	li	a0,64
   20d40:	40f5053b          	subw	a0,a0,a5
   20d44:	00fed633          	srl	a2,t4,a5
   20d48:	00a59733          	sll	a4,a1,a0
   20d4c:	00ae9eb3          	sll	t4,t4,a0
   20d50:	00c76733          	or	a4,a4,a2
   20d54:	01d03eb3          	snez	t4,t4
   20d58:	01d76eb3          	or	t4,a4,t4
   20d5c:	00f5d7b3          	srl	a5,a1,a5
   20d60:	01ce8eb3          	add	t4,t4,t3
   20d64:	00d787b3          	add	a5,a5,a3
   20d68:	01ceb6b3          	sltu	a3,t4,t3
   20d6c:	00d786b3          	add	a3,a5,a3
   20d70:	fa5ff06f          	j	20d14 <__subtf3+0x21c>
   20d74:	00c81c63          	bne	a6,a2,20d8c <__subtf3+0x294>
   20d78:	01c6e7b3          	or	a5,a3,t3
   20d7c:	76078663          	beqz	a5,214e8 <__subtf3+0x9f0>
   20d80:	00d69793          	slli	a5,a3,0xd
   20d84:	00080993          	mv	s3,a6
   20d88:	f69ff06f          	j	20cf0 <__subtf3+0x1f8>
   20d8c:	00100713          	li	a4,1
   20d90:	03371713          	slli	a4,a4,0x33
   20d94:	40f007bb          	negw	a5,a5
   20d98:	00e5e5b3          	or	a1,a1,a4
   20d9c:	f91ff06f          	j	20d2c <__subtf3+0x234>
   20da0:	fc07871b          	addiw	a4,a5,-64
   20da4:	04000613          	li	a2,64
   20da8:	00e5d733          	srl	a4,a1,a4
   20dac:	00000513          	li	a0,0
   20db0:	00c78863          	beq	a5,a2,20dc0 <__subtf3+0x2c8>
   20db4:	08000513          	li	a0,128
   20db8:	40f507bb          	subw	a5,a0,a5
   20dbc:	00f59533          	sll	a0,a1,a5
   20dc0:	01d56eb3          	or	t4,a0,t4
   20dc4:	01d03eb3          	snez	t4,t4
   20dc8:	01d76eb3          	or	t4,a4,t4
   20dcc:	00000793          	li	a5,0
   20dd0:	f91ff06f          	j	20d60 <__subtf3+0x268>
   20dd4:	01d5e7b3          	or	a5,a1,t4
   20dd8:	00f03eb3          	snez	t4,a5
   20ddc:	ff1ff06f          	j	20dcc <__subtf3+0x2d4>
   20de0:	00188313          	addi	t1,a7,1
   20de4:	ffe50793          	addi	a5,a0,-2
   20de8:	00f37533          	and	a0,t1,a5
   20dec:	0a051e63          	bnez	a0,20ea8 <__subtf3+0x3b0>
   20df0:	01d5e533          	or	a0,a1,t4
   20df4:	04089a63          	bnez	a7,20e48 <__subtf3+0x350>
   20df8:	68050063          	beqz	a0,21478 <__subtf3+0x980>
   20dfc:	01c6e7b3          	or	a5,a3,t3
   20e00:	38078463          	beqz	a5,21188 <__subtf3+0x690>
   20e04:	01de0e33          	add	t3,t3,t4
   20e08:	01de37b3          	sltu	a5,t3,t4
   20e0c:	00d586b3          	add	a3,a1,a3
   20e10:	00f685b3          	add	a1,a3,a5
   20e14:	00c59793          	slli	a5,a1,0xc
   20e18:	6607d263          	bgez	a5,2147c <__subtf3+0x984>
   20e1c:	fff00693          	li	a3,-1
   20e20:	03369693          	slli	a3,a3,0x33
   20e24:	fff68693          	addi	a3,a3,-1
   20e28:	00d5f6b3          	and	a3,a1,a3
   20e2c:	00000793          	li	a5,0
   20e30:	00100993          	li	s3,1
   20e34:	007e7613          	andi	a2,t3,7
   20e38:	0c061a63          	bnez	a2,20f0c <__subtf3+0x414>
   20e3c:	48070263          	beqz	a4,212c0 <__subtf3+0x7c8>
   20e40:	0017f713          	andi	a4,a5,1
   20e44:	6ec0006f          	j	21530 <__subtf3+0xa38>
   20e48:	04c89863          	bne	a7,a2,20e98 <__subtf3+0x3a0>
   20e4c:	72050e63          	beqz	a0,21588 <__subtf3+0xa90>
   20e50:	0325d793          	srli	a5,a1,0x32
   20e54:	0017f793          	andi	a5,a5,1
   20e58:	0017b793          	seqz	a5,a5
   20e5c:	00479793          	slli	a5,a5,0x4
   20e60:	01181e63          	bne	a6,a7,20e7c <__subtf3+0x384>
   20e64:	01c6e633          	or	a2,a3,t3
   20e68:	70060c63          	beqz	a2,21580 <__subtf3+0xa88>
   20e6c:	00d69613          	slli	a2,a3,0xd
   20e70:	00064463          	bltz	a2,20e78 <__subtf3+0x380>
   20e74:	01000793          	li	a5,16
   20e78:	00050a63          	beqz	a0,20e8c <__subtf3+0x394>
   20e7c:	01c6e6b3          	or	a3,a3,t3
   20e80:	42069463          	bnez	a3,212a8 <__subtf3+0x7b0>
   20e84:	00058693          	mv	a3,a1
   20e88:	000e8e13          	mv	t3,t4
   20e8c:	000089b7          	lui	s3,0x8
   20e90:	fff98993          	addi	s3,s3,-1 # 7fff <main-0x80b1>
   20e94:	fa1ff06f          	j	20e34 <__subtf3+0x33c>
   20e98:	00000793          	li	a5,0
   20e9c:	fcc81ee3          	bne	a6,a2,20e78 <__subtf3+0x380>
   20ea0:	00000793          	li	a5,0
   20ea4:	fc1ff06f          	j	20e64 <__subtf3+0x36c>
   20ea8:	02c30863          	beq	t1,a2,20ed8 <__subtf3+0x3e0>
   20eac:	01ce8e33          	add	t3,t4,t3
   20eb0:	00d587b3          	add	a5,a1,a3
   20eb4:	01de36b3          	sltu	a3,t3,t4
   20eb8:	00d78eb3          	add	t4,a5,a3
   20ebc:	03fe9693          	slli	a3,t4,0x3f
   20ec0:	001e5e13          	srli	t3,t3,0x1
   20ec4:	01c6ee33          	or	t3,a3,t3
   20ec8:	00030993          	mv	s3,t1
   20ecc:	001ed693          	srli	a3,t4,0x1
   20ed0:	00000793          	li	a5,0
   20ed4:	f61ff06f          	j	20e34 <__subtf3+0x33c>
   20ed8:	00048863          	beqz	s1,20ee8 <__subtf3+0x3f0>
   20edc:	00300693          	li	a3,3
   20ee0:	00d49863          	bne	s1,a3,20ef0 <__subtf3+0x3f8>
   20ee4:	00041c63          	bnez	s0,20efc <__subtf3+0x404>
   20ee8:	00030993          	mv	s3,t1
   20eec:	0680006f          	j	20f54 <__subtf3+0x45c>
   20ef0:	00200693          	li	a3,2
   20ef4:	00d49463          	bne	s1,a3,20efc <__subtf3+0x404>
   20ef8:	fe0418e3          	bnez	s0,20ee8 <__subtf3+0x3f0>
   20efc:	fff00693          	li	a3,-1
   20f00:	fff00e13          	li	t3,-1
   20f04:	00078993          	mv	s3,a5
   20f08:	00500793          	li	a5,5
   20f0c:	00200613          	li	a2,2
   20f10:	0017e793          	ori	a5,a5,1
   20f14:	60c48c63          	beq	s1,a2,2152c <__subtf3+0xa34>
   20f18:	00300613          	li	a2,3
   20f1c:	60c48263          	beq	s1,a2,21520 <__subtf3+0xa28>
   20f20:	60049863          	bnez	s1,21530 <__subtf3+0xa38>
   20f24:	00fe7613          	andi	a2,t3,15
   20f28:	00400593          	li	a1,4
   20f2c:	60b60263          	beq	a2,a1,21530 <__subtf3+0xa38>
   20f30:	004e0593          	addi	a1,t3,4
   20f34:	01c5be33          	sltu	t3,a1,t3
   20f38:	01c686b3          	add	a3,a3,t3
   20f3c:	00058e13          	mv	t3,a1
   20f40:	5f00006f          	j	21530 <__subtf3+0xa38>
   20f44:	00048863          	beqz	s1,20f54 <__subtf3+0x45c>
   20f48:	00300713          	li	a4,3
   20f4c:	00e49c63          	bne	s1,a4,20f64 <__subtf3+0x46c>
   20f50:	02041063          	bnez	s0,20f70 <__subtf3+0x478>
   20f54:	00000693          	li	a3,0
   20f58:	00000e13          	li	t3,0
   20f5c:	00500793          	li	a5,5
   20f60:	3600006f          	j	212c0 <__subtf3+0x7c8>
   20f64:	00200713          	li	a4,2
   20f68:	00e49463          	bne	s1,a4,20f70 <__subtf3+0x478>
   20f6c:	fe0414e3          	bnez	s0,20f54 <__subtf3+0x45c>
   20f70:	fff00693          	li	a3,-1
   20f74:	fff00e13          	li	t3,-1
   20f78:	ffe78993          	addi	s3,a5,-2
   20f7c:	00000713          	li	a4,0
   20f80:	f89ff06f          	j	20f08 <__subtf3+0x410>
   20f84:	0ce05863          	blez	a4,21054 <__subtf3+0x55c>
   20f88:	06081c63          	bnez	a6,21000 <__subtf3+0x508>
   20f8c:	01c6e733          	or	a4,a3,t3
   20f90:	c0070ae3          	beqz	a4,20ba4 <__subtf3+0xac>
   20f94:	fff7871b          	addiw	a4,a5,-1
   20f98:	02071663          	bnez	a4,20fc4 <__subtf3+0x4cc>
   20f9c:	41ce8e33          	sub	t3,t4,t3
   20fa0:	40d586b3          	sub	a3,a1,a3
   20fa4:	01cebeb3          	sltu	t4,t4,t3
   20fa8:	41d686b3          	sub	a3,a3,t4
   20fac:	00c69793          	slli	a5,a3,0xc
   20fb0:	4c07d263          	bgez	a5,21474 <__subtf3+0x97c>
   20fb4:	00d69913          	slli	s2,a3,0xd
   20fb8:	00d95913          	srli	s2,s2,0xd
   20fbc:	000e0a13          	mv	s4,t3
   20fc0:	3d00006f          	j	21390 <__subtf3+0x898>
   20fc4:	c6c884e3          	beq	a7,a2,20c2c <__subtf3+0x134>
   20fc8:	07400793          	li	a5,116
   20fcc:	06e7ce63          	blt	a5,a4,21048 <__subtf3+0x550>
   20fd0:	03f00793          	li	a5,63
   20fd4:	04e7c063          	blt	a5,a4,21014 <__subtf3+0x51c>
   20fd8:	04000613          	li	a2,64
   20fdc:	40e6063b          	subw	a2,a2,a4
   20fe0:	00c697b3          	sll	a5,a3,a2
   20fe4:	00ee5533          	srl	a0,t3,a4
   20fe8:	00ce1e33          	sll	t3,t3,a2
   20fec:	00a7e7b3          	or	a5,a5,a0
   20ff0:	01c03e33          	snez	t3,t3
   20ff4:	01c7ee33          	or	t3,a5,t3
   20ff8:	00e6d6b3          	srl	a3,a3,a4
   20ffc:	fa1ff06f          	j	20f9c <__subtf3+0x4a4>
   21000:	c2c886e3          	beq	a7,a2,20c2c <__subtf3+0x134>
   21004:	00100793          	li	a5,1
   21008:	03379793          	slli	a5,a5,0x33
   2100c:	00f6e6b3          	or	a3,a3,a5
   21010:	fb9ff06f          	j	20fc8 <__subtf3+0x4d0>
   21014:	fc07079b          	addiw	a5,a4,-64
   21018:	04000513          	li	a0,64
   2101c:	00f6d7b3          	srl	a5,a3,a5
   21020:	00000613          	li	a2,0
   21024:	00a70863          	beq	a4,a0,21034 <__subtf3+0x53c>
   21028:	08000613          	li	a2,128
   2102c:	40e6073b          	subw	a4,a2,a4
   21030:	00e69633          	sll	a2,a3,a4
   21034:	01c66e33          	or	t3,a2,t3
   21038:	01c03e33          	snez	t3,t3
   2103c:	01c7ee33          	or	t3,a5,t3
   21040:	00000693          	li	a3,0
   21044:	f59ff06f          	j	20f9c <__subtf3+0x4a4>
   21048:	01c6ee33          	or	t3,a3,t3
   2104c:	01c03e33          	snez	t3,t3
   21050:	ff1ff06f          	j	21040 <__subtf3+0x548>
   21054:	10070063          	beqz	a4,21154 <__subtf3+0x65c>
   21058:	0a089263          	bnez	a7,210fc <__subtf3+0x604>
   2105c:	01d5e533          	or	a0,a1,t4
   21060:	02051063          	bnez	a0,21080 <__subtf3+0x588>
   21064:	42c81663          	bne	a6,a2,21490 <__subtf3+0x998>
   21068:	01c6e7b3          	or	a5,a3,t3
   2106c:	48078a63          	beqz	a5,21500 <__subtf3+0xa08>
   21070:	00d69793          	slli	a5,a3,0xd
   21074:	00080993          	mv	s3,a6
   21078:	00030413          	mv	s0,t1
   2107c:	c75ff06f          	j	20cf0 <__subtf3+0x1f8>
   21080:	fff00513          	li	a0,-1
   21084:	02a71263          	bne	a4,a0,210a8 <__subtf3+0x5b0>
   21088:	41de0eb3          	sub	t4,t3,t4
   2108c:	40b686b3          	sub	a3,a3,a1
   21090:	01de3e33          	sltu	t3,t3,t4
   21094:	41c686b3          	sub	a3,a3,t3
   21098:	000e8e13          	mv	t3,t4
   2109c:	00080993          	mv	s3,a6
   210a0:	00030413          	mv	s0,t1
   210a4:	f09ff06f          	j	20fac <__subtf3+0x4b4>
   210a8:	fcc800e3          	beq	a6,a2,21068 <__subtf3+0x570>
   210ac:	fff7c793          	not	a5,a5
   210b0:	0007879b          	sext.w	a5,a5
   210b4:	07400713          	li	a4,116
   210b8:	08f74863          	blt	a4,a5,21148 <__subtf3+0x650>
   210bc:	03f00713          	li	a4,63
   210c0:	04f74a63          	blt	a4,a5,21114 <__subtf3+0x61c>
   210c4:	04000513          	li	a0,64
   210c8:	40f5053b          	subw	a0,a0,a5
   210cc:	00fed633          	srl	a2,t4,a5
   210d0:	00a59733          	sll	a4,a1,a0
   210d4:	00ae9eb3          	sll	t4,t4,a0
   210d8:	00c76733          	or	a4,a4,a2
   210dc:	01d03eb3          	snez	t4,t4
   210e0:	01d76eb3          	or	t4,a4,t4
   210e4:	00f5d7b3          	srl	a5,a1,a5
   210e8:	41de0eb3          	sub	t4,t3,t4
   210ec:	40f687b3          	sub	a5,a3,a5
   210f0:	01de36b3          	sltu	a3,t3,t4
   210f4:	40d786b3          	sub	a3,a5,a3
   210f8:	fa1ff06f          	j	21098 <__subtf3+0x5a0>
   210fc:	f6c806e3          	beq	a6,a2,21068 <__subtf3+0x570>
   21100:	00100713          	li	a4,1
   21104:	03371713          	slli	a4,a4,0x33
   21108:	40f007bb          	negw	a5,a5
   2110c:	00e5e5b3          	or	a1,a1,a4
   21110:	fa5ff06f          	j	210b4 <__subtf3+0x5bc>
   21114:	fc07871b          	addiw	a4,a5,-64
   21118:	04000613          	li	a2,64
   2111c:	00e5d733          	srl	a4,a1,a4
   21120:	00000513          	li	a0,0
   21124:	00c78863          	beq	a5,a2,21134 <__subtf3+0x63c>
   21128:	08000513          	li	a0,128
   2112c:	40f507bb          	subw	a5,a0,a5
   21130:	00f59533          	sll	a0,a1,a5
   21134:	01d56eb3          	or	t4,a0,t4
   21138:	01d03eb3          	snez	t4,t4
   2113c:	01d76eb3          	or	t4,a4,t4
   21140:	00000793          	li	a5,0
   21144:	fa5ff06f          	j	210e8 <__subtf3+0x5f0>
   21148:	01d5e7b3          	or	a5,a1,t4
   2114c:	00f03eb3          	snez	t4,a5
   21150:	ff1ff06f          	j	21140 <__subtf3+0x648>
   21154:	00188f13          	addi	t5,a7,1
   21158:	ffe50793          	addi	a5,a0,-2
   2115c:	00ff77b3          	and	a5,t5,a5
   21160:	20079263          	bnez	a5,21364 <__subtf3+0x86c>
   21164:	01d5ef33          	or	t5,a1,t4
   21168:	01c6e533          	or	a0,a3,t3
   2116c:	0c089863          	bnez	a7,2123c <__subtf3+0x744>
   21170:	080f1063          	bnez	t5,211f0 <__subtf3+0x6f8>
   21174:	32051463          	bnez	a0,2149c <__subtf3+0x9a4>
   21178:	ffe48413          	addi	s0,s1,-2
   2117c:	00143413          	seqz	s0,s0
   21180:	00000593          	li	a1,0
   21184:	00000e93          	li	t4,0
   21188:	00beee33          	or	t3,t4,a1
   2118c:	380e0463          	beqz	t3,21514 <__subtf3+0xa1c>
   21190:	001e9613          	slli	a2,t4,0x1
   21194:	03fed793          	srli	a5,t4,0x3f
   21198:	00159713          	slli	a4,a1,0x1
   2119c:	00767693          	andi	a3,a2,7
   211a0:	00f70733          	add	a4,a4,a5
   211a4:	00000793          	li	a5,0
   211a8:	02068663          	beqz	a3,211d4 <__subtf3+0x6dc>
   211ac:	00200793          	li	a5,2
   211b0:	30f48e63          	beq	s1,a5,214cc <__subtf3+0x9d4>
   211b4:	00300793          	li	a5,3
   211b8:	2ef48e63          	beq	s1,a5,214b4 <__subtf3+0x9bc>
   211bc:	00100793          	li	a5,1
   211c0:	00049a63          	bnez	s1,211d4 <__subtf3+0x6dc>
   211c4:	00f67693          	andi	a3,a2,15
   211c8:	00400513          	li	a0,4
   211cc:	ffc63613          	sltiu	a2,a2,-4
   211d0:	2ea69863          	bne	a3,a0,214c0 <__subtf3+0x9c8>
   211d4:	03475713          	srli	a4,a4,0x34
   211d8:	00174713          	xori	a4,a4,1
   211dc:	00177713          	andi	a4,a4,1
   211e0:	00058693          	mv	a3,a1
   211e4:	000e8e13          	mv	t3,t4
   211e8:	00000993          	li	s3,0
   211ec:	c49ff06f          	j	20e34 <__subtf3+0x33c>
   211f0:	f8050ce3          	beqz	a0,21188 <__subtf3+0x690>
   211f4:	41ce8733          	sub	a4,t4,t3
   211f8:	00eeb633          	sltu	a2,t4,a4
   211fc:	40d587b3          	sub	a5,a1,a3
   21200:	40c787b3          	sub	a5,a5,a2
   21204:	00c79613          	slli	a2,a5,0xc
   21208:	00065e63          	bgez	a2,21224 <__subtf3+0x72c>
   2120c:	41de0eb3          	sub	t4,t3,t4
   21210:	40b687b3          	sub	a5,a3,a1
   21214:	01de36b3          	sltu	a3,t3,t4
   21218:	40d785b3          	sub	a1,a5,a3
   2121c:	00030413          	mv	s0,t1
   21220:	f69ff06f          	j	21188 <__subtf3+0x690>
   21224:	00f76eb3          	or	t4,a4,a5
   21228:	280e9063          	bnez	t4,214a8 <__subtf3+0x9b0>
   2122c:	ffe48413          	addi	s0,s1,-2
   21230:	00143413          	seqz	s0,s0
   21234:	00000593          	li	a1,0
   21238:	f51ff06f          	j	21188 <__subtf3+0x690>
   2123c:	04c89c63          	bne	a7,a2,21294 <__subtf3+0x79c>
   21240:	320f0a63          	beqz	t5,21574 <__subtf3+0xa7c>
   21244:	0325d793          	srli	a5,a1,0x32
   21248:	0017f793          	andi	a5,a5,1
   2124c:	0017b793          	seqz	a5,a5
   21250:	00479793          	slli	a5,a5,0x4
   21254:	05181863          	bne	a6,a7,212a4 <__subtf3+0x7ac>
   21258:	00050863          	beqz	a0,21268 <__subtf3+0x770>
   2125c:	00d69613          	slli	a2,a3,0xd
   21260:	00064463          	bltz	a2,21268 <__subtf3+0x770>
   21264:	01000793          	li	a5,16
   21268:	020f1e63          	bnez	t5,212a4 <__subtf3+0x7ac>
   2126c:	00030413          	mv	s0,t1
   21270:	c0051ee3          	bnez	a0,20e8c <__subtf3+0x394>
   21274:	00100693          	li	a3,1
   21278:	000089b7          	lui	s3,0x8
   2127c:	00000e13          	li	t3,0
   21280:	00000413          	li	s0,0
   21284:	03269693          	slli	a3,a3,0x32
   21288:	fff98993          	addi	s3,s3,-1 # 7fff <main-0x80b1>
   2128c:	01000793          	li	a5,16
   21290:	0300006f          	j	212c0 <__subtf3+0x7c8>
   21294:	00000793          	li	a5,0
   21298:	fcc818e3          	bne	a6,a2,21268 <__subtf3+0x770>
   2129c:	00000793          	li	a5,0
   212a0:	fb9ff06f          	j	21258 <__subtf3+0x760>
   212a4:	be0500e3          	beqz	a0,20e84 <__subtf3+0x38c>
   212a8:	00100693          	li	a3,1
   212ac:	000089b7          	lui	s3,0x8
   212b0:	00000413          	li	s0,0
   212b4:	03269693          	slli	a3,a3,0x32
   212b8:	00000e13          	li	t3,0
   212bc:	fff98993          	addi	s3,s3,-1 # 7fff <main-0x80b1>
   212c0:	00c69713          	slli	a4,a3,0xc
   212c4:	02075263          	bgez	a4,212e8 <__subtf3+0x7f0>
   212c8:	00008737          	lui	a4,0x8
   212cc:	00198993          	addi	s3,s3,1
   212d0:	fff70613          	addi	a2,a4,-1 # 7fff <main-0x80b1>
   212d4:	26c98463          	beq	s3,a2,2153c <__subtf3+0xa44>
   212d8:	fff00713          	li	a4,-1
   212dc:	03371713          	slli	a4,a4,0x33
   212e0:	fff70713          	addi	a4,a4,-1
   212e4:	00e6f6b3          	and	a3,a3,a4
   212e8:	00008737          	lui	a4,0x8
   212ec:	03d69513          	slli	a0,a3,0x3d
   212f0:	003e5e13          	srli	t3,t3,0x3
   212f4:	fff70713          	addi	a4,a4,-1 # 7fff <main-0x80b1>
   212f8:	01c56533          	or	a0,a0,t3
   212fc:	0036d693          	srli	a3,a3,0x3
   21300:	02e99063          	bne	s3,a4,21320 <__subtf3+0x828>
   21304:	00d56533          	or	a0,a0,a3
   21308:	00000693          	li	a3,0
   2130c:	00050a63          	beqz	a0,21320 <__subtf3+0x828>
   21310:	00100693          	li	a3,1
   21314:	02f69693          	slli	a3,a3,0x2f
   21318:	00000513          	li	a0,0
   2131c:	00000413          	li	s0,0
   21320:	01069693          	slli	a3,a3,0x10
   21324:	03199993          	slli	s3,s3,0x31
   21328:	0019d993          	srli	s3,s3,0x1
   2132c:	0106d693          	srli	a3,a3,0x10
   21330:	03f41593          	slli	a1,s0,0x3f
   21334:	0136e6b3          	or	a3,a3,s3
   21338:	00b6e5b3          	or	a1,a3,a1
   2133c:	00078463          	beqz	a5,21344 <__subtf3+0x84c>
   21340:	0017a073          	csrs	fflags,a5
   21344:	02813083          	ld	ra,40(sp)
   21348:	02013403          	ld	s0,32(sp)
   2134c:	01813483          	ld	s1,24(sp)
   21350:	01013903          	ld	s2,16(sp)
   21354:	00813983          	ld	s3,8(sp)
   21358:	00013a03          	ld	s4,0(sp)
   2135c:	03010113          	addi	sp,sp,48
   21360:	00008067          	ret
   21364:	41ce8a33          	sub	s4,t4,t3
   21368:	40d58933          	sub	s2,a1,a3
   2136c:	014eb733          	sltu	a4,t4,s4
   21370:	40e90933          	sub	s2,s2,a4
   21374:	00c91793          	slli	a5,s2,0xc
   21378:	0807d663          	bgez	a5,21404 <__subtf3+0x90c>
   2137c:	41de0a33          	sub	s4,t3,t4
   21380:	40b687b3          	sub	a5,a3,a1
   21384:	014e36b3          	sltu	a3,t3,s4
   21388:	40d78933          	sub	s2,a5,a3
   2138c:	00030413          	mv	s0,t1
   21390:	08090063          	beqz	s2,21410 <__subtf3+0x918>
   21394:	00090513          	mv	a0,s2
   21398:	838ef0ef          	jal	ra,103d0 <__clzdi2>
   2139c:	0005051b          	sext.w	a0,a0
   213a0:	ff45061b          	addiw	a2,a0,-12
   213a4:	03f00793          	li	a5,63
   213a8:	00060e93          	mv	t4,a2
   213ac:	06c7ca63          	blt	a5,a2,21420 <__subtf3+0x928>
   213b0:	04000693          	li	a3,64
   213b4:	40c686bb          	subw	a3,a3,a2
   213b8:	00c91933          	sll	s2,s2,a2
   213bc:	00da56b3          	srl	a3,s4,a3
   213c0:	0126e733          	or	a4,a3,s2
   213c4:	00ca1e33          	sll	t3,s4,a2
   213c8:	09364c63          	blt	a2,s3,21460 <__subtf3+0x968>
   213cc:	413e89bb          	subw	s3,t4,s3
   213d0:	0019879b          	addiw	a5,s3,1
   213d4:	03f00613          	li	a2,63
   213d8:	04f64c63          	blt	a2,a5,21430 <__subtf3+0x938>
   213dc:	04000613          	li	a2,64
   213e0:	40f6063b          	subw	a2,a2,a5
   213e4:	00c71eb3          	sll	t4,a4,a2
   213e8:	00fe56b3          	srl	a3,t3,a5
   213ec:	00ce1633          	sll	a2,t3,a2
   213f0:	00dee6b3          	or	a3,t4,a3
   213f4:	00c03633          	snez	a2,a2
   213f8:	00c6eeb3          	or	t4,a3,a2
   213fc:	00f755b3          	srl	a1,a4,a5
   21400:	d89ff06f          	j	21188 <__subtf3+0x690>
   21404:	012a6eb3          	or	t4,s4,s2
   21408:	f80e94e3          	bnez	t4,21390 <__subtf3+0x898>
   2140c:	e21ff06f          	j	2122c <__subtf3+0x734>
   21410:	000a0513          	mv	a0,s4
   21414:	fbdee0ef          	jal	ra,103d0 <__clzdi2>
   21418:	0405051b          	addiw	a0,a0,64
   2141c:	f85ff06f          	j	213a0 <__subtf3+0x8a8>
   21420:	fb45069b          	addiw	a3,a0,-76
   21424:	00da1733          	sll	a4,s4,a3
   21428:	00000e13          	li	t3,0
   2142c:	f9dff06f          	j	213c8 <__subtf3+0x8d0>
   21430:	fc198e9b          	addiw	t4,s3,-63
   21434:	04000593          	li	a1,64
   21438:	01d75eb3          	srl	t4,a4,t4
   2143c:	00000613          	li	a2,0
   21440:	00b78863          	beq	a5,a1,21450 <__subtf3+0x958>
   21444:	08000613          	li	a2,128
   21448:	40f6063b          	subw	a2,a2,a5
   2144c:	00c71633          	sll	a2,a4,a2
   21450:	00ce6633          	or	a2,t3,a2
   21454:	00c03633          	snez	a2,a2
   21458:	00ceeeb3          	or	t4,t4,a2
   2145c:	dd9ff06f          	j	21234 <__subtf3+0x73c>
   21460:	fff00693          	li	a3,-1
   21464:	03369693          	slli	a3,a3,0x33
   21468:	fff68693          	addi	a3,a3,-1
   2146c:	40c989b3          	sub	s3,s3,a2
   21470:	00d776b3          	and	a3,a4,a3
   21474:	fa099663          	bnez	s3,20c20 <__subtf3+0x128>
   21478:	00068593          	mv	a1,a3
   2147c:	000e0e93          	mv	t4,t3
   21480:	d09ff06f          	j	21188 <__subtf3+0x690>
   21484:	00058693          	mv	a3,a1
   21488:	000e8e13          	mv	t3,t4
   2148c:	fe9ff06f          	j	21474 <__subtf3+0x97c>
   21490:	00080993          	mv	s3,a6
   21494:	00030413          	mv	s0,t1
   21498:	fddff06f          	j	21474 <__subtf3+0x97c>
   2149c:	00068593          	mv	a1,a3
   214a0:	000e0e93          	mv	t4,t3
   214a4:	d79ff06f          	j	2121c <__subtf3+0x724>
   214a8:	00078593          	mv	a1,a5
   214ac:	00070e93          	mv	t4,a4
   214b0:	cd9ff06f          	j	21188 <__subtf3+0x690>
   214b4:	00100793          	li	a5,1
   214b8:	d0041ee3          	bnez	s0,211d4 <__subtf3+0x6dc>
   214bc:	ff863613          	sltiu	a2,a2,-8
   214c0:	00164613          	xori	a2,a2,1
   214c4:	00c70733          	add	a4,a4,a2
   214c8:	d0dff06f          	j	211d4 <__subtf3+0x6dc>
   214cc:	00100793          	li	a5,1
   214d0:	d00402e3          	beqz	s0,211d4 <__subtf3+0x6dc>
   214d4:	fe9ff06f          	j	214bc <__subtf3+0x9c4>
   214d8:	00000693          	li	a3,0
   214dc:	00000e13          	li	t3,0
   214e0:	00000793          	li	a5,0
   214e4:	dddff06f          	j	212c0 <__subtf3+0x7c8>
   214e8:	00000693          	li	a3,0
   214ec:	00000e13          	li	t3,0
   214f0:	00080993          	mv	s3,a6
   214f4:	fedff06f          	j	214e0 <__subtf3+0x9e8>
   214f8:	00000693          	li	a3,0
   214fc:	fe5ff06f          	j	214e0 <__subtf3+0x9e8>
   21500:	00000693          	li	a3,0
   21504:	00000e13          	li	t3,0
   21508:	00080993          	mv	s3,a6
   2150c:	00030413          	mv	s0,t1
   21510:	fd1ff06f          	j	214e0 <__subtf3+0x9e8>
   21514:	00000693          	li	a3,0
   21518:	00000993          	li	s3,0
   2151c:	fc5ff06f          	j	214e0 <__subtf3+0x9e8>
   21520:	00041863          	bnez	s0,21530 <__subtf3+0xa38>
   21524:	008e0593          	addi	a1,t3,8
   21528:	a0dff06f          	j	20f34 <__subtf3+0x43c>
   2152c:	fe041ce3          	bnez	s0,21524 <__subtf3+0xa2c>
   21530:	d80708e3          	beqz	a4,212c0 <__subtf3+0x7c8>
   21534:	0027e793          	ori	a5,a5,2
   21538:	d89ff06f          	j	212c0 <__subtf3+0x7c8>
   2153c:	00000e13          	li	t3,0
   21540:	02048463          	beqz	s1,21568 <__subtf3+0xa70>
   21544:	00300693          	li	a3,3
   21548:	00d49a63          	bne	s1,a3,2155c <__subtf3+0xa64>
   2154c:	00040e63          	beqz	s0,21568 <__subtf3+0xa70>
   21550:	fff00e13          	li	t3,-1
   21554:	ffe70993          	addi	s3,a4,-2
   21558:	0100006f          	j	21568 <__subtf3+0xa70>
   2155c:	00200693          	li	a3,2
   21560:	fed498e3          	bne	s1,a3,21550 <__subtf3+0xa58>
   21564:	fe0406e3          	beqz	s0,21550 <__subtf3+0xa58>
   21568:	0057e793          	ori	a5,a5,5
   2156c:	000e0693          	mv	a3,t3
   21570:	d79ff06f          	j	212e8 <__subtf3+0x7f0>
   21574:	00000793          	li	a5,0
   21578:	cf181ae3          	bne	a6,a7,2126c <__subtf3+0x774>
   2157c:	d21ff06f          	j	2129c <__subtf3+0x7a4>
   21580:	900506e3          	beqz	a0,20e8c <__subtf3+0x394>
   21584:	901ff06f          	j	20e84 <__subtf3+0x38c>
   21588:	951814e3          	bne	a6,a7,20ed0 <__subtf3+0x3d8>
   2158c:	915ff06f          	j	20ea0 <__subtf3+0x3a8>

0000000000021590 <__fixtfsi>:
   21590:	002027f3          	frrm	a5
   21594:	00004637          	lui	a2,0x4
   21598:	00159693          	slli	a3,a1,0x1
   2159c:	01059793          	slli	a5,a1,0x10
   215a0:	0316d693          	srli	a3,a3,0x31
   215a4:	ffe60713          	addi	a4,a2,-2 # 3ffe <main-0xc0b2>
   215a8:	0107d793          	srli	a5,a5,0x10
   215ac:	03f5d593          	srli	a1,a1,0x3f
   215b0:	00d74e63          	blt	a4,a3,215cc <__fixtfsi+0x3c>
   215b4:	08069e63          	bnez	a3,21650 <__fixtfsi+0xc0>
   215b8:	00a7e7b3          	or	a5,a5,a0
   215bc:	00000713          	li	a4,0
   215c0:	08079463          	bnez	a5,21648 <__fixtfsi+0xb8>
   215c4:	00070513          	mv	a0,a4
   215c8:	00008067          	ret
   215cc:	01d60713          	addi	a4,a2,29
   215d0:	02d75a63          	bge	a4,a3,21604 <__fixtfsi+0x74>
   215d4:	80000737          	lui	a4,0x80000
   215d8:	fff74713          	not	a4,a4
   215dc:	00b7073b          	addw	a4,a4,a1
   215e0:	06058c63          	beqz	a1,21658 <__fixtfsi+0xc8>
   215e4:	01e60593          	addi	a1,a2,30
   215e8:	01000613          	li	a2,16
   215ec:	06b69863          	bne	a3,a1,2165c <__fixtfsi+0xcc>
   215f0:	0117d693          	srli	a3,a5,0x11
   215f4:	06069463          	bnez	a3,2165c <__fixtfsi+0xcc>
   215f8:	02f79793          	slli	a5,a5,0x2f
   215fc:	00a7e7b3          	or	a5,a5,a0
   21600:	fc1ff06f          	j	215c0 <__fixtfsi+0x30>
   21604:	00100713          	li	a4,1
   21608:	03071713          	slli	a4,a4,0x30
   2160c:	00e7e7b3          	or	a5,a5,a4
   21610:	ffffc737          	lui	a4,0xffffc
   21614:	0006869b          	sext.w	a3,a3
   21618:	0117071b          	addiw	a4,a4,17
   2161c:	00e6873b          	addw	a4,a3,a4
   21620:	00e79733          	sll	a4,a5,a4
   21624:	00a76533          	or	a0,a4,a0
   21628:	00004737          	lui	a4,0x4
   2162c:	02f7071b          	addiw	a4,a4,47
   21630:	40d706bb          	subw	a3,a4,a3
   21634:	00d7d7b3          	srl	a5,a5,a3
   21638:	0007871b          	sext.w	a4,a5
   2163c:	00058463          	beqz	a1,21644 <__fixtfsi+0xb4>
   21640:	40e0073b          	negw	a4,a4
   21644:	f80500e3          	beqz	a0,215c4 <__fixtfsi+0x34>
   21648:	00100613          	li	a2,1
   2164c:	0100006f          	j	2165c <__fixtfsi+0xcc>
   21650:	00000713          	li	a4,0
   21654:	ff5ff06f          	j	21648 <__fixtfsi+0xb8>
   21658:	01000613          	li	a2,16
   2165c:	00162073          	csrs	fflags,a2
   21660:	f65ff06f          	j	215c4 <__fixtfsi+0x34>

0000000000021664 <__floatsitf>:
   21664:	fe010113          	addi	sp,sp,-32
   21668:	00113c23          	sd	ra,24(sp)
   2166c:	00813823          	sd	s0,16(sp)
   21670:	00913423          	sd	s1,8(sp)
   21674:	06050863          	beqz	a0,216e4 <__floatsitf+0x80>
   21678:	0005079b          	sext.w	a5,a0
   2167c:	03f55493          	srli	s1,a0,0x3f
   21680:	00055463          	bgez	a0,21688 <__floatsitf+0x24>
   21684:	40f007bb          	negw	a5,a5
   21688:	02079413          	slli	s0,a5,0x20
   2168c:	02045413          	srli	s0,s0,0x20
   21690:	00040513          	mv	a0,s0
   21694:	d3dee0ef          	jal	ra,103d0 <__clzdi2>
   21698:	00004737          	lui	a4,0x4
   2169c:	03e7079b          	addiw	a5,a4,62
   216a0:	40a785bb          	subw	a1,a5,a0
   216a4:	02f7071b          	addiw	a4,a4,47
   216a8:	40b7053b          	subw	a0,a4,a1
   216ac:	00a41533          	sll	a0,s0,a0
   216b0:	01813083          	ld	ra,24(sp)
   216b4:	01013403          	ld	s0,16(sp)
   216b8:	01051513          	slli	a0,a0,0x10
   216bc:	03159593          	slli	a1,a1,0x31
   216c0:	01055513          	srli	a0,a0,0x10
   216c4:	0015d593          	srli	a1,a1,0x1
   216c8:	03f49493          	slli	s1,s1,0x3f
   216cc:	00b565b3          	or	a1,a0,a1
   216d0:	0095e5b3          	or	a1,a1,s1
   216d4:	00000513          	li	a0,0
   216d8:	00813483          	ld	s1,8(sp)
   216dc:	02010113          	addi	sp,sp,32
   216e0:	00008067          	ret
   216e4:	00000513          	li	a0,0
   216e8:	00000593          	li	a1,0
   216ec:	00000493          	li	s1,0
   216f0:	fc1ff06f          	j	216b0 <__floatsitf+0x4c>

00000000000216f4 <__extenddftf2>:
   216f4:	fe010113          	addi	sp,sp,-32
   216f8:	00113c23          	sd	ra,24(sp)
   216fc:	00813823          	sd	s0,16(sp)
   21700:	00913423          	sd	s1,8(sp)
   21704:	002027f3          	frrm	a5
   21708:	03455713          	srli	a4,a0,0x34
   2170c:	7ff77713          	andi	a4,a4,2047
   21710:	00170693          	addi	a3,a4,1 # 4001 <main-0xc0af>
   21714:	00c51413          	slli	s0,a0,0xc
   21718:	7fe6f693          	andi	a3,a3,2046
   2171c:	00c45413          	srli	s0,s0,0xc
   21720:	03f55493          	srli	s1,a0,0x3f
   21724:	02068063          	beqz	a3,21744 <__extenddftf2+0x50>
   21728:	000046b7          	lui	a3,0x4
   2172c:	c0068693          	addi	a3,a3,-1024 # 3c00 <main-0xc4b0>
   21730:	00445793          	srli	a5,s0,0x4
   21734:	00d70733          	add	a4,a4,a3
   21738:	03c41413          	slli	s0,s0,0x3c
   2173c:	00000693          	li	a3,0
   21740:	0880006f          	j	217c8 <__extenddftf2+0xd4>
   21744:	04071a63          	bnez	a4,21798 <__extenddftf2+0xa4>
   21748:	00000793          	li	a5,0
   2174c:	fe0408e3          	beqz	s0,2173c <__extenddftf2+0x48>
   21750:	00040513          	mv	a0,s0
   21754:	c7dee0ef          	jal	ra,103d0 <__clzdi2>
   21758:	0005071b          	sext.w	a4,a0
   2175c:	00e00793          	li	a5,14
   21760:	02e7c463          	blt	a5,a4,21788 <__extenddftf2+0x94>
   21764:	00f00793          	li	a5,15
   21768:	40a787bb          	subw	a5,a5,a0
   2176c:	0315071b          	addiw	a4,a0,49
   21770:	00f457b3          	srl	a5,s0,a5
   21774:	00e41433          	sll	s0,s0,a4
   21778:	00004737          	lui	a4,0x4
   2177c:	c0c7071b          	addiw	a4,a4,-1012
   21780:	40a7073b          	subw	a4,a4,a0
   21784:	fb9ff06f          	j	2173c <__extenddftf2+0x48>
   21788:	ff15079b          	addiw	a5,a0,-15
   2178c:	00f417b3          	sll	a5,s0,a5
   21790:	00000413          	li	s0,0
   21794:	fe5ff06f          	j	21778 <__extenddftf2+0x84>
   21798:	06040663          	beqz	s0,21804 <__extenddftf2+0x110>
   2179c:	00100713          	li	a4,1
   217a0:	03371693          	slli	a3,a4,0x33
   217a4:	00d476b3          	and	a3,s0,a3
   217a8:	00445793          	srli	a5,s0,0x4
   217ac:	02f71713          	slli	a4,a4,0x2f
   217b0:	0016b693          	seqz	a3,a3
   217b4:	00e7e7b3          	or	a5,a5,a4
   217b8:	00008737          	lui	a4,0x8
   217bc:	00469693          	slli	a3,a3,0x4
   217c0:	03c41413          	slli	s0,s0,0x3c
   217c4:	fff70713          	addi	a4,a4,-1 # 7fff <main-0x80b1>
   217c8:	01079793          	slli	a5,a5,0x10
   217cc:	03171713          	slli	a4,a4,0x31
   217d0:	00175713          	srli	a4,a4,0x1
   217d4:	0107d793          	srli	a5,a5,0x10
   217d8:	03f49593          	slli	a1,s1,0x3f
   217dc:	00e7e7b3          	or	a5,a5,a4
   217e0:	00b7e5b3          	or	a1,a5,a1
   217e4:	00068463          	beqz	a3,217ec <__extenddftf2+0xf8>
   217e8:	0016a073          	csrs	fflags,a3
   217ec:	00040513          	mv	a0,s0
   217f0:	01813083          	ld	ra,24(sp)
   217f4:	01013403          	ld	s0,16(sp)
   217f8:	00813483          	ld	s1,8(sp)
   217fc:	02010113          	addi	sp,sp,32
   21800:	00008067          	ret
   21804:	00008737          	lui	a4,0x8
   21808:	00000793          	li	a5,0
   2180c:	fff70713          	addi	a4,a4,-1 # 7fff <main-0x80b1>
   21810:	f2dff06f          	j	2173c <__extenddftf2+0x48>

0000000000021814 <__trunctfdf2>:
   21814:	00202673          	frrm	a2
   21818:	000088b7          	lui	a7,0x8
   2181c:	0305d713          	srli	a4,a1,0x30
   21820:	fff88813          	addi	a6,a7,-1 # 7fff <main-0x80b1>
   21824:	03f5d693          	srli	a3,a1,0x3f
   21828:	01059593          	slli	a1,a1,0x10
   2182c:	00d5d793          	srli	a5,a1,0xd
   21830:	01077733          	and	a4,a4,a6
   21834:	03d55593          	srli	a1,a0,0x3d
   21838:	00f5e5b3          	or	a1,a1,a5
   2183c:	ffe88893          	addi	a7,a7,-2
   21840:	00170793          	addi	a5,a4,1
   21844:	0117f8b3          	and	a7,a5,a7
   21848:	0006061b          	sext.w	a2,a2
   2184c:	00351e93          	slli	t4,a0,0x3
   21850:	1e088a63          	beqz	a7,21a44 <__trunctfdf2+0x230>
   21854:	ffffce37          	lui	t3,0xffffc
   21858:	400e0e13          	addi	t3,t3,1024 # ffffffffffffc400 <__BSS_END__+0xfffffffffffd77e0>
   2185c:	01c70e33          	add	t3,a4,t3
   21860:	7fe00793          	li	a5,2046
   21864:	0dc7dc63          	bge	a5,t3,2193c <__trunctfdf2+0x128>
   21868:	06060063          	beqz	a2,218c8 <__trunctfdf2+0xb4>
   2186c:	00300793          	li	a5,3
   21870:	04f61663          	bne	a2,a5,218bc <__trunctfdf2+0xa8>
   21874:	04068a63          	beqz	a3,218c8 <__trunctfdf2+0xb4>
   21878:	fff00793          	li	a5,-1
   2187c:	7fe00e13          	li	t3,2046
   21880:	00000713          	li	a4,0
   21884:	00500893          	li	a7,5
   21888:	00200593          	li	a1,2
   2188c:	0018e893          	ori	a7,a7,1
   21890:	22b60e63          	beq	a2,a1,21acc <__trunctfdf2+0x2b8>
   21894:	00300593          	li	a1,3
   21898:	22b60463          	beq	a2,a1,21ac0 <__trunctfdf2+0x2ac>
   2189c:	00061a63          	bnez	a2,218b0 <__trunctfdf2+0x9c>
   218a0:	00f7f593          	andi	a1,a5,15
   218a4:	00400513          	li	a0,4
   218a8:	00a58463          	beq	a1,a0,218b0 <__trunctfdf2+0x9c>
   218ac:	00478793          	addi	a5,a5,4
   218b0:	02070263          	beqz	a4,218d4 <__trunctfdf2+0xc0>
   218b4:	0028e893          	ori	a7,a7,2
   218b8:	01c0006f          	j	218d4 <__trunctfdf2+0xc0>
   218bc:	00200793          	li	a5,2
   218c0:	faf61ce3          	bne	a2,a5,21878 <__trunctfdf2+0x64>
   218c4:	fa068ae3          	beqz	a3,21878 <__trunctfdf2+0x64>
   218c8:	00000793          	li	a5,0
   218cc:	7ff00e13          	li	t3,2047
   218d0:	00500893          	li	a7,5
   218d4:	00879713          	slli	a4,a5,0x8
   218d8:	02075063          	bgez	a4,218f8 <__trunctfdf2+0xe4>
   218dc:	001e0e13          	addi	t3,t3,1
   218e0:	7ff00713          	li	a4,2047
   218e4:	1eee0863          	beq	t3,a4,21ad4 <__trunctfdf2+0x2c0>
   218e8:	fff00613          	li	a2,-1
   218ec:	03761613          	slli	a2,a2,0x37
   218f0:	fff60613          	addi	a2,a2,-1
   218f4:	00c7f7b3          	and	a5,a5,a2
   218f8:	7ff00713          	li	a4,2047
   218fc:	0037d793          	srli	a5,a5,0x3
   21900:	00ee1a63          	bne	t3,a4,21914 <__trunctfdf2+0x100>
   21904:	00078863          	beqz	a5,21914 <__trunctfdf2+0x100>
   21908:	00100793          	li	a5,1
   2190c:	03379793          	slli	a5,a5,0x33
   21910:	00000693          	li	a3,0
   21914:	00c79793          	slli	a5,a5,0xc
   21918:	7ffe7513          	andi	a0,t3,2047
   2191c:	03451513          	slli	a0,a0,0x34
   21920:	00c7d793          	srli	a5,a5,0xc
   21924:	03f69693          	slli	a3,a3,0x3f
   21928:	00a7e7b3          	or	a5,a5,a0
   2192c:	00d7e533          	or	a0,a5,a3
   21930:	1c088c63          	beqz	a7,21b08 <__trunctfdf2+0x2f4>
   21934:	0018a073          	csrs	fflags,a7
   21938:	00008067          	ret
   2193c:	0dc04a63          	bgtz	t3,21a10 <__trunctfdf2+0x1fc>
   21940:	fcc00793          	li	a5,-52
   21944:	14fe4863          	blt	t3,a5,21a94 <__trunctfdf2+0x280>
   21948:	00100793          	li	a5,1
   2194c:	03379793          	slli	a5,a5,0x33
   21950:	03d00313          	li	t1,61
   21954:	00f5e5b3          	or	a1,a1,a5
   21958:	41c30333          	sub	t1,t1,t3
   2195c:	03f00793          	li	a5,63
   21960:	000e051b          	sext.w	a0,t3
   21964:	0667ce63          	blt	a5,t1,219e0 <__trunctfdf2+0x1cc>
   21968:	0035081b          	addiw	a6,a0,3
   2196c:	03d00713          	li	a4,61
   21970:	40a7073b          	subw	a4,a4,a0
   21974:	010e97b3          	sll	a5,t4,a6
   21978:	00eed733          	srl	a4,t4,a4
   2197c:	00f037b3          	snez	a5,a5
   21980:	00f767b3          	or	a5,a4,a5
   21984:	010595b3          	sll	a1,a1,a6
   21988:	00f5e7b3          	or	a5,a1,a5
   2198c:	00000e13          	li	t3,0
   21990:	12078463          	beqz	a5,21ab8 <__trunctfdf2+0x2a4>
   21994:	00179713          	slli	a4,a5,0x1
   21998:	00777593          	andi	a1,a4,7
   2199c:	00000893          	li	a7,0
   219a0:	02058663          	beqz	a1,219cc <__trunctfdf2+0x1b8>
   219a4:	00200593          	li	a1,2
   219a8:	10b60063          	beq	a2,a1,21aa8 <__trunctfdf2+0x294>
   219ac:	00300593          	li	a1,3
   219b0:	00100893          	li	a7,1
   219b4:	0eb60463          	beq	a2,a1,21a9c <__trunctfdf2+0x288>
   219b8:	00061a63          	bnez	a2,219cc <__trunctfdf2+0x1b8>
   219bc:	00f77593          	andi	a1,a4,15
   219c0:	00400513          	li	a0,4
   219c4:	00a58463          	beq	a1,a0,219cc <__trunctfdf2+0x1b8>
   219c8:	00470713          	addi	a4,a4,4
   219cc:	03875713          	srli	a4,a4,0x38
   219d0:	00174713          	xori	a4,a4,1
   219d4:	00177713          	andi	a4,a4,1
   219d8:	00000e13          	li	t3,0
   219dc:	0540006f          	j	21a30 <__trunctfdf2+0x21c>
   219e0:	ffd00893          	li	a7,-3
   219e4:	40a888bb          	subw	a7,a7,a0
   219e8:	04000793          	li	a5,64
   219ec:	0115d8b3          	srl	a7,a1,a7
   219f0:	00000813          	li	a6,0
   219f4:	00f30663          	beq	t1,a5,21a00 <__trunctfdf2+0x1ec>
   219f8:	0435071b          	addiw	a4,a0,67
   219fc:	00e59833          	sll	a6,a1,a4
   21a00:	01d86833          	or	a6,a6,t4
   21a04:	01003833          	snez	a6,a6
   21a08:	0108e7b3          	or	a5,a7,a6
   21a0c:	f81ff06f          	j	2198c <__trunctfdf2+0x178>
   21a10:	00751793          	slli	a5,a0,0x7
   21a14:	00f037b3          	snez	a5,a5
   21a18:	03ced813          	srli	a6,t4,0x3c
   21a1c:	0107e7b3          	or	a5,a5,a6
   21a20:	00459593          	slli	a1,a1,0x4
   21a24:	00f5e7b3          	or	a5,a1,a5
   21a28:	00000713          	li	a4,0
   21a2c:	00000893          	li	a7,0
   21a30:	0077f593          	andi	a1,a5,7
   21a34:	e4059ae3          	bnez	a1,21888 <__trunctfdf2+0x74>
   21a38:	e8070ee3          	beqz	a4,218d4 <__trunctfdf2+0xc0>
   21a3c:	0018f713          	andi	a4,a7,1
   21a40:	e71ff06f          	j	218b0 <__trunctfdf2+0x9c>
   21a44:	01d5e7b3          	or	a5,a1,t4
   21a48:	00071663          	bnez	a4,21a54 <__trunctfdf2+0x240>
   21a4c:	00f037b3          	snez	a5,a5
   21a50:	f3dff06f          	j	2198c <__trunctfdf2+0x178>
   21a54:	06078063          	beqz	a5,21ab4 <__trunctfdf2+0x2a0>
   21a58:	00000893          	li	a7,0
   21a5c:	01071863          	bne	a4,a6,21a6c <__trunctfdf2+0x258>
   21a60:	0325d893          	srli	a7,a1,0x32
   21a64:	0018b893          	seqz	a7,a7
   21a68:	00489893          	slli	a7,a7,0x4
   21a6c:	03ced793          	srli	a5,t4,0x3c
   21a70:	00459593          	slli	a1,a1,0x4
   21a74:	00f5e5b3          	or	a1,a1,a5
   21a78:	00100793          	li	a5,1
   21a7c:	ff85f593          	andi	a1,a1,-8
   21a80:	03679793          	slli	a5,a5,0x36
   21a84:	00f5e7b3          	or	a5,a1,a5
   21a88:	7ff00e13          	li	t3,2047
   21a8c:	00000713          	li	a4,0
   21a90:	fa1ff06f          	j	21a30 <__trunctfdf2+0x21c>
   21a94:	00100793          	li	a5,1
   21a98:	efdff06f          	j	21994 <__trunctfdf2+0x180>
   21a9c:	f20698e3          	bnez	a3,219cc <__trunctfdf2+0x1b8>
   21aa0:	00870713          	addi	a4,a4,8
   21aa4:	f29ff06f          	j	219cc <__trunctfdf2+0x1b8>
   21aa8:	00100893          	li	a7,1
   21aac:	f20680e3          	beqz	a3,219cc <__trunctfdf2+0x1b8>
   21ab0:	ff1ff06f          	j	21aa0 <__trunctfdf2+0x28c>
   21ab4:	7ff00e13          	li	t3,2047
   21ab8:	00000893          	li	a7,0
   21abc:	e19ff06f          	j	218d4 <__trunctfdf2+0xc0>
   21ac0:	de0698e3          	bnez	a3,218b0 <__trunctfdf2+0x9c>
   21ac4:	00878793          	addi	a5,a5,8
   21ac8:	de9ff06f          	j	218b0 <__trunctfdf2+0x9c>
   21acc:	de0682e3          	beqz	a3,218b0 <__trunctfdf2+0x9c>
   21ad0:	ff5ff06f          	j	21ac4 <__trunctfdf2+0x2b0>
   21ad4:	00000793          	li	a5,0
   21ad8:	02060463          	beqz	a2,21b00 <__trunctfdf2+0x2ec>
   21adc:	00300713          	li	a4,3
   21ae0:	00e61a63          	bne	a2,a4,21af4 <__trunctfdf2+0x2e0>
   21ae4:	00068e63          	beqz	a3,21b00 <__trunctfdf2+0x2ec>
   21ae8:	fff00793          	li	a5,-1
   21aec:	7fe00e13          	li	t3,2046
   21af0:	0100006f          	j	21b00 <__trunctfdf2+0x2ec>
   21af4:	00200713          	li	a4,2
   21af8:	fee618e3          	bne	a2,a4,21ae8 <__trunctfdf2+0x2d4>
   21afc:	fe0686e3          	beqz	a3,21ae8 <__trunctfdf2+0x2d4>
   21b00:	0058e893          	ori	a7,a7,5
   21b04:	df5ff06f          	j	218f8 <__trunctfdf2+0xe4>
   21b08:	00008067          	ret

0000000000021b0c <__muldi3>:
   21b0c:	00050613          	mv	a2,a0
   21b10:	00000513          	li	a0,0
   21b14:	0015f693          	andi	a3,a1,1
   21b18:	00068463          	beqz	a3,21b20 <__muldi3+0x14>
   21b1c:	00c50533          	add	a0,a0,a2
   21b20:	0015d593          	srli	a1,a1,0x1
   21b24:	00161613          	slli	a2,a2,0x1
   21b28:	fe0596e3          	bnez	a1,21b14 <__muldi3+0x8>
   21b2c:	00008067          	ret

0000000000021b30 <__udivsi3>:
   21b30:	02051513          	slli	a0,a0,0x20
   21b34:	02059593          	slli	a1,a1,0x20
   21b38:	00008293          	mv	t0,ra
   21b3c:	03c000ef          	jal	ra,21b78 <__udivdi3>
   21b40:	0005051b          	sext.w	a0,a0
   21b44:	00028067          	jr	t0 # 105f8 <memset+0xb4>

0000000000021b48 <__umodsi3>:
   21b48:	02051513          	slli	a0,a0,0x20
   21b4c:	02059593          	slli	a1,a1,0x20
   21b50:	02055513          	srli	a0,a0,0x20
   21b54:	0205d593          	srli	a1,a1,0x20
   21b58:	00008293          	mv	t0,ra
   21b5c:	01c000ef          	jal	ra,21b78 <__udivdi3>
   21b60:	0005851b          	sext.w	a0,a1
   21b64:	00028067          	jr	t0

0000000000021b68 <__divsi3>:
   21b68:	fff00293          	li	t0,-1
   21b6c:	0a558c63          	beq	a1,t0,21c24 <__moddi3+0x30>

0000000000021b70 <__divdi3>:
   21b70:	06054063          	bltz	a0,21bd0 <__umoddi3+0x10>
   21b74:	0605c663          	bltz	a1,21be0 <__umoddi3+0x20>

0000000000021b78 <__udivdi3>:
   21b78:	00058613          	mv	a2,a1
   21b7c:	00050593          	mv	a1,a0
   21b80:	fff00513          	li	a0,-1
   21b84:	02060c63          	beqz	a2,21bbc <__udivdi3+0x44>
   21b88:	00100693          	li	a3,1
   21b8c:	00b67a63          	bgeu	a2,a1,21ba0 <__udivdi3+0x28>
   21b90:	00c05863          	blez	a2,21ba0 <__udivdi3+0x28>
   21b94:	00161613          	slli	a2,a2,0x1
   21b98:	00169693          	slli	a3,a3,0x1
   21b9c:	feb66ae3          	bltu	a2,a1,21b90 <__udivdi3+0x18>
   21ba0:	00000513          	li	a0,0
   21ba4:	00c5e663          	bltu	a1,a2,21bb0 <__udivdi3+0x38>
   21ba8:	40c585b3          	sub	a1,a1,a2
   21bac:	00d56533          	or	a0,a0,a3
   21bb0:	0016d693          	srli	a3,a3,0x1
   21bb4:	00165613          	srli	a2,a2,0x1
   21bb8:	fe0696e3          	bnez	a3,21ba4 <__udivdi3+0x2c>
   21bbc:	00008067          	ret

0000000000021bc0 <__umoddi3>:
   21bc0:	00008293          	mv	t0,ra
   21bc4:	fb5ff0ef          	jal	ra,21b78 <__udivdi3>
   21bc8:	00058513          	mv	a0,a1
   21bcc:	00028067          	jr	t0
   21bd0:	40a00533          	neg	a0,a0
   21bd4:	0005d863          	bgez	a1,21be4 <__umoddi3+0x24>
   21bd8:	40b005b3          	neg	a1,a1
   21bdc:	f9dff06f          	j	21b78 <__udivdi3>
   21be0:	40b005b3          	neg	a1,a1
   21be4:	00008293          	mv	t0,ra
   21be8:	f91ff0ef          	jal	ra,21b78 <__udivdi3>
   21bec:	40a00533          	neg	a0,a0
   21bf0:	00028067          	jr	t0

0000000000021bf4 <__moddi3>:
   21bf4:	00008293          	mv	t0,ra
   21bf8:	0005ca63          	bltz	a1,21c0c <__moddi3+0x18>
   21bfc:	00054c63          	bltz	a0,21c14 <__moddi3+0x20>
   21c00:	f79ff0ef          	jal	ra,21b78 <__udivdi3>
   21c04:	00058513          	mv	a0,a1
   21c08:	00028067          	jr	t0
   21c0c:	40b005b3          	neg	a1,a1
   21c10:	fe0558e3          	bgez	a0,21c00 <__moddi3+0xc>
   21c14:	40a00533          	neg	a0,a0
   21c18:	f61ff0ef          	jal	ra,21b78 <__udivdi3>
   21c1c:	40b00533          	neg	a0,a1
   21c20:	00028067          	jr	t0
   21c24:	01f29293          	slli	t0,t0,0x1f
   21c28:	f45514e3          	bne	a0,t0,21b70 <__divdi3>
   21c2c:	00008067          	ret
